Archive member included to satisfy reference by file (symbol)

/home/vboxuser/Desktop/topst/buildtools/gcc-linaro-7.2.1-2017.11-x86_64_arm-eabi/arm-eabi/libc/usr/lib/libc.a(lib_a-atoi.o)
                              /home/vboxuser/Desktop/topst/cr5-bsp/sources/build/tcc805x/gcc/tcc805x-freertos-debug/obj/Motor_System.o (atoi)
/home/vboxuser/Desktop/topst/buildtools/gcc-linaro-7.2.1-2017.11-x86_64_arm-eabi/arm-eabi/libc/usr/lib/libc.a(lib_a-atol.o)
                              /home/vboxuser/Desktop/topst/cr5-bsp/sources/build/tcc805x/gcc/tcc805x-freertos-debug/obj/hsm_test.o (atol)
/home/vboxuser/Desktop/topst/buildtools/gcc-linaro-7.2.1-2017.11-x86_64_arm-eabi/arm-eabi/libc/usr/lib/libc.a(lib_a-memcmp.o)
                              /home/vboxuser/Desktop/topst/cr5-bsp/sources/build/tcc805x/gcc/tcc805x-freertos-debug/obj/sal_freertos_impl.o (memcmp)
/home/vboxuser/Desktop/topst/buildtools/gcc-linaro-7.2.1-2017.11-x86_64_arm-eabi/arm-eabi/libc/usr/lib/libc.a(lib_a-memcpy-stub.o)
                              /home/vboxuser/Desktop/topst/cr5-bsp/sources/build/tcc805x/gcc/tcc805x-freertos-debug/obj/dse_test.o (memcpy)
/home/vboxuser/Desktop/topst/buildtools/gcc-linaro-7.2.1-2017.11-x86_64_arm-eabi/arm-eabi/libc/usr/lib/libc.a(lib_a-memset.o)
                              /home/vboxuser/Desktop/topst/cr5-bsp/sources/build/tcc805x/gcc/tcc805x-freertos-debug/obj/console.o (memset)
/home/vboxuser/Desktop/topst/buildtools/gcc-linaro-7.2.1-2017.11-x86_64_arm-eabi/arm-eabi/libc/usr/lib/libc.a(lib_a-snprintf.o)
                              /home/vboxuser/Desktop/topst/cr5-bsp/sources/build/tcc805x/gcc/tcc805x-freertos-debug/obj/Motor_System.o (snprintf)
/home/vboxuser/Desktop/topst/buildtools/gcc-linaro-7.2.1-2017.11-x86_64_arm-eabi/arm-eabi/libc/usr/lib/libc.a(lib_a-strlen-stub.o)
                              /home/vboxuser/Desktop/topst/cr5-bsp/sources/build/tcc805x/gcc/tcc805x-freertos-debug/obj/Motor_System.o (strlen)
/home/vboxuser/Desktop/topst/buildtools/gcc-linaro-7.2.1-2017.11-x86_64_arm-eabi/arm-eabi/libc/usr/lib/libc.a(lib_a-strncmp.o)
                              /home/vboxuser/Desktop/topst/cr5-bsp/sources/build/tcc805x/gcc/tcc805x-freertos-debug/obj/sal_freertos_impl.o (strncmp)
/home/vboxuser/Desktop/topst/buildtools/gcc-linaro-7.2.1-2017.11-x86_64_arm-eabi/arm-eabi/libc/usr/lib/libc.a(lib_a-strncpy.o)
                              /home/vboxuser/Desktop/topst/cr5-bsp/sources/build/tcc805x/gcc/tcc805x-freertos-debug/obj/sal_freertos_impl.o (strncpy)
/home/vboxuser/Desktop/topst/buildtools/gcc-linaro-7.2.1-2017.11-x86_64_arm-eabi/arm-eabi/libc/usr/lib/libc.a(lib_a-strnlen.o)
                              /home/vboxuser/Desktop/topst/cr5-bsp/sources/build/tcc805x/gcc/tcc805x-freertos-debug/obj/sal_freertos_impl.o (strnlen)
/home/vboxuser/Desktop/topst/buildtools/gcc-linaro-7.2.1-2017.11-x86_64_arm-eabi/arm-eabi/libc/usr/lib/libc.a(lib_a-strtol.o)
                              /home/vboxuser/Desktop/topst/buildtools/gcc-linaro-7.2.1-2017.11-x86_64_arm-eabi/arm-eabi/libc/usr/lib/libc.a(lib_a-atoi.o) (_strtol_r)
/home/vboxuser/Desktop/topst/buildtools/gcc-linaro-7.2.1-2017.11-x86_64_arm-eabi/arm-eabi/libc/usr/lib/libc.a(lib_a-strtoul.o)
                              /home/vboxuser/Desktop/topst/cr5-bsp/sources/build/tcc805x/gcc/tcc805x-freertos-debug/obj/console.o (strtoul)
/home/vboxuser/Desktop/topst/buildtools/gcc-linaro-7.2.1-2017.11-x86_64_arm-eabi/arm-eabi/libc/usr/lib/libc.a(lib_a-svfprintf.o)
                              /home/vboxuser/Desktop/topst/buildtools/gcc-linaro-7.2.1-2017.11-x86_64_arm-eabi/arm-eabi/libc/usr/lib/libc.a(lib_a-snprintf.o) (_svfprintf_r)
/home/vboxuser/Desktop/topst/buildtools/gcc-linaro-7.2.1-2017.11-x86_64_arm-eabi/arm-eabi/libc/usr/lib/libc.a(lib_a-wcrtomb.o)
                              /home/vboxuser/Desktop/topst/buildtools/gcc-linaro-7.2.1-2017.11-x86_64_arm-eabi/arm-eabi/libc/usr/lib/libc.a(lib_a-svfprintf.o) (_wcrtomb_r)
/home/vboxuser/Desktop/topst/buildtools/gcc-linaro-7.2.1-2017.11-x86_64_arm-eabi/arm-eabi/libc/usr/lib/libc.a(lib_a-wcsrtombs.o)
                              /home/vboxuser/Desktop/topst/buildtools/gcc-linaro-7.2.1-2017.11-x86_64_arm-eabi/arm-eabi/libc/usr/lib/libc.a(lib_a-svfprintf.o) (_wcsrtombs_r)
/home/vboxuser/Desktop/topst/buildtools/gcc-linaro-7.2.1-2017.11-x86_64_arm-eabi/arm-eabi/libc/usr/lib/libc.a(lib_a-dtoa.o)
                              /home/vboxuser/Desktop/topst/buildtools/gcc-linaro-7.2.1-2017.11-x86_64_arm-eabi/arm-eabi/libc/usr/lib/libc.a(lib_a-svfprintf.o) (_dtoa_r)
/home/vboxuser/Desktop/topst/buildtools/gcc-linaro-7.2.1-2017.11-x86_64_arm-eabi/arm-eabi/libc/usr/lib/libc.a(lib_a-freer.o)
                              /home/vboxuser/Desktop/topst/buildtools/gcc-linaro-7.2.1-2017.11-x86_64_arm-eabi/arm-eabi/libc/usr/lib/libc.a(lib_a-svfprintf.o) (_free_r)
/home/vboxuser/Desktop/topst/buildtools/gcc-linaro-7.2.1-2017.11-x86_64_arm-eabi/arm-eabi/libc/usr/lib/libc.a(lib_a-impure.o)
                              /home/vboxuser/Desktop/topst/buildtools/gcc-linaro-7.2.1-2017.11-x86_64_arm-eabi/arm-eabi/libc/usr/lib/libc.a(lib_a-snprintf.o) (_impure_ptr)
/home/vboxuser/Desktop/topst/buildtools/gcc-linaro-7.2.1-2017.11-x86_64_arm-eabi/arm-eabi/libc/usr/lib/libc.a(lib_a-locale.o)
                              /home/vboxuser/Desktop/topst/buildtools/gcc-linaro-7.2.1-2017.11-x86_64_arm-eabi/arm-eabi/libc/usr/lib/libc.a(lib_a-svfprintf.o) (__locale_mb_cur_max)
/home/vboxuser/Desktop/topst/buildtools/gcc-linaro-7.2.1-2017.11-x86_64_arm-eabi/arm-eabi/libc/usr/lib/libc.a(lib_a-localeconv.o)
                              /home/vboxuser/Desktop/topst/buildtools/gcc-linaro-7.2.1-2017.11-x86_64_arm-eabi/arm-eabi/libc/usr/lib/libc.a(lib_a-svfprintf.o) (_localeconv_r)
/home/vboxuser/Desktop/topst/buildtools/gcc-linaro-7.2.1-2017.11-x86_64_arm-eabi/arm-eabi/libc/usr/lib/libc.a(lib_a-mallocr.o)
                              /home/vboxuser/Desktop/topst/buildtools/gcc-linaro-7.2.1-2017.11-x86_64_arm-eabi/arm-eabi/libc/usr/lib/libc.a(lib_a-svfprintf.o) (_malloc_r)
/home/vboxuser/Desktop/topst/buildtools/gcc-linaro-7.2.1-2017.11-x86_64_arm-eabi/arm-eabi/libc/usr/lib/libc.a(lib_a-mbtowc_r.o)
                              /home/vboxuser/Desktop/topst/buildtools/gcc-linaro-7.2.1-2017.11-x86_64_arm-eabi/arm-eabi/libc/usr/lib/libc.a(lib_a-locale.o) (__ascii_mbtowc)
/home/vboxuser/Desktop/topst/buildtools/gcc-linaro-7.2.1-2017.11-x86_64_arm-eabi/arm-eabi/libc/usr/lib/libc.a(lib_a-memchr-stub.o)
                              /home/vboxuser/Desktop/topst/buildtools/gcc-linaro-7.2.1-2017.11-x86_64_arm-eabi/arm-eabi/libc/usr/lib/libc.a(lib_a-svfprintf.o) (memchr)
/home/vboxuser/Desktop/topst/buildtools/gcc-linaro-7.2.1-2017.11-x86_64_arm-eabi/arm-eabi/libc/usr/lib/libc.a(lib_a-mlock.o)
                              /home/vboxuser/Desktop/topst/buildtools/gcc-linaro-7.2.1-2017.11-x86_64_arm-eabi/arm-eabi/libc/usr/lib/libc.a(lib_a-freer.o) (__malloc_lock)
/home/vboxuser/Desktop/topst/buildtools/gcc-linaro-7.2.1-2017.11-x86_64_arm-eabi/arm-eabi/libc/usr/lib/libc.a(lib_a-mprec.o)
                              /home/vboxuser/Desktop/topst/buildtools/gcc-linaro-7.2.1-2017.11-x86_64_arm-eabi/arm-eabi/libc/usr/lib/libc.a(lib_a-dtoa.o) (_Balloc)
/home/vboxuser/Desktop/topst/buildtools/gcc-linaro-7.2.1-2017.11-x86_64_arm-eabi/arm-eabi/libc/usr/lib/libc.a(lib_a-s_frexp.o)
                              /home/vboxuser/Desktop/topst/buildtools/gcc-linaro-7.2.1-2017.11-x86_64_arm-eabi/arm-eabi/libc/usr/lib/libc.a(lib_a-svfprintf.o) (frexp)
/home/vboxuser/Desktop/topst/buildtools/gcc-linaro-7.2.1-2017.11-x86_64_arm-eabi/arm-eabi/libc/usr/lib/libc.a(lib_a-sbrkr.o)
                              /home/vboxuser/Desktop/topst/buildtools/gcc-linaro-7.2.1-2017.11-x86_64_arm-eabi/arm-eabi/libc/usr/lib/libc.a(lib_a-freer.o) (_sbrk_r)
/home/vboxuser/Desktop/topst/buildtools/gcc-linaro-7.2.1-2017.11-x86_64_arm-eabi/arm-eabi/libc/usr/lib/libc.a(lib_a-strcasecmp.o)
                              /home/vboxuser/Desktop/topst/buildtools/gcc-linaro-7.2.1-2017.11-x86_64_arm-eabi/arm-eabi/libc/usr/lib/libc.a(lib_a-locale.o) (strcasecmp)
/home/vboxuser/Desktop/topst/buildtools/gcc-linaro-7.2.1-2017.11-x86_64_arm-eabi/arm-eabi/libc/usr/lib/libc.a(lib_a-strcat.o)
                              /home/vboxuser/Desktop/topst/buildtools/gcc-linaro-7.2.1-2017.11-x86_64_arm-eabi/arm-eabi/libc/usr/lib/libc.a(lib_a-locale.o) (strcat)
/home/vboxuser/Desktop/topst/buildtools/gcc-linaro-7.2.1-2017.11-x86_64_arm-eabi/arm-eabi/libc/usr/lib/libc.a(lib_a-strchr.o)
                              /home/vboxuser/Desktop/topst/buildtools/gcc-linaro-7.2.1-2017.11-x86_64_arm-eabi/arm-eabi/libc/usr/lib/libc.a(lib_a-locale.o) (strchr)
/home/vboxuser/Desktop/topst/buildtools/gcc-linaro-7.2.1-2017.11-x86_64_arm-eabi/arm-eabi/libc/usr/lib/libc.a(lib_a-strcmp.o)
                              /home/vboxuser/Desktop/topst/buildtools/gcc-linaro-7.2.1-2017.11-x86_64_arm-eabi/arm-eabi/libc/usr/lib/libc.a(lib_a-locale.o) (strcmp)
/home/vboxuser/Desktop/topst/buildtools/gcc-linaro-7.2.1-2017.11-x86_64_arm-eabi/arm-eabi/libc/usr/lib/libc.a(lib_a-strcpy.o)
                              /home/vboxuser/Desktop/topst/buildtools/gcc-linaro-7.2.1-2017.11-x86_64_arm-eabi/arm-eabi/libc/usr/lib/libc.a(lib_a-locale.o) (strcpy)
/home/vboxuser/Desktop/topst/buildtools/gcc-linaro-7.2.1-2017.11-x86_64_arm-eabi/arm-eabi/libc/usr/lib/libc.a(lib_a-strlcpy.o)
                              /home/vboxuser/Desktop/topst/buildtools/gcc-linaro-7.2.1-2017.11-x86_64_arm-eabi/arm-eabi/libc/usr/lib/libc.a(lib_a-locale.o) (strlcpy)
/home/vboxuser/Desktop/topst/buildtools/gcc-linaro-7.2.1-2017.11-x86_64_arm-eabi/arm-eabi/libc/usr/lib/libc.a(lib_a-strncasecmp.o)
                              /home/vboxuser/Desktop/topst/buildtools/gcc-linaro-7.2.1-2017.11-x86_64_arm-eabi/arm-eabi/libc/usr/lib/libc.a(lib_a-locale.o) (strncasecmp)
/home/vboxuser/Desktop/topst/buildtools/gcc-linaro-7.2.1-2017.11-x86_64_arm-eabi/arm-eabi/libc/usr/lib/libc.a(lib_a-svfiprintf.o)
                              /home/vboxuser/Desktop/topst/buildtools/gcc-linaro-7.2.1-2017.11-x86_64_arm-eabi/arm-eabi/libc/usr/lib/libc.a(lib_a-svfprintf.o) (__ssprint_r)
/home/vboxuser/Desktop/topst/buildtools/gcc-linaro-7.2.1-2017.11-x86_64_arm-eabi/arm-eabi/libc/usr/lib/libc.a(lib_a-syscalls.o)
                              /home/vboxuser/Desktop/topst/buildtools/gcc-linaro-7.2.1-2017.11-x86_64_arm-eabi/arm-eabi/libc/usr/lib/libc.a(lib_a-sbrkr.o) (_sbrk)
/home/vboxuser/Desktop/topst/buildtools/gcc-linaro-7.2.1-2017.11-x86_64_arm-eabi/arm-eabi/libc/usr/lib/libc.a(lib_a-wcsnrtombs.o)
                              /home/vboxuser/Desktop/topst/buildtools/gcc-linaro-7.2.1-2017.11-x86_64_arm-eabi/arm-eabi/libc/usr/lib/libc.a(lib_a-wcsrtombs.o) (_wcsnrtombs_r)
/home/vboxuser/Desktop/topst/buildtools/gcc-linaro-7.2.1-2017.11-x86_64_arm-eabi/arm-eabi/libc/usr/lib/libc.a(lib_a-wctomb_r.o)
                              /home/vboxuser/Desktop/topst/buildtools/gcc-linaro-7.2.1-2017.11-x86_64_arm-eabi/arm-eabi/libc/usr/lib/libc.a(lib_a-locale.o) (__ascii_wctomb)
/home/vboxuser/Desktop/topst/buildtools/gcc-linaro-7.2.1-2017.11-x86_64_arm-eabi/arm-eabi/libc/usr/lib/libc.a(lib_a-callocr.o)
                              /home/vboxuser/Desktop/topst/buildtools/gcc-linaro-7.2.1-2017.11-x86_64_arm-eabi/arm-eabi/libc/usr/lib/libc.a(lib_a-mprec.o) (_calloc_r)
/home/vboxuser/Desktop/topst/buildtools/gcc-linaro-7.2.1-2017.11-x86_64_arm-eabi/arm-eabi/libc/usr/lib/libc.a(lib_a-ctype_.o)
                              /home/vboxuser/Desktop/topst/buildtools/gcc-linaro-7.2.1-2017.11-x86_64_arm-eabi/arm-eabi/libc/usr/lib/libc.a(lib_a-locale.o) (__set_ctype)
/home/vboxuser/Desktop/topst/buildtools/gcc-linaro-7.2.1-2017.11-x86_64_arm-eabi/arm-eabi/libc/usr/lib/libc.a(lib_a-errno.o)
                              /home/vboxuser/Desktop/topst/buildtools/gcc-linaro-7.2.1-2017.11-x86_64_arm-eabi/arm-eabi/libc/usr/lib/libc.a(lib_a-syscalls.o) (__errno)
/home/vboxuser/Desktop/topst/buildtools/gcc-linaro-7.2.1-2017.11-x86_64_arm-eabi/arm-eabi/libc/usr/lib/libc.a(lib_a-findfp.o)
                              /home/vboxuser/Desktop/topst/buildtools/gcc-linaro-7.2.1-2017.11-x86_64_arm-eabi/arm-eabi/libc/usr/lib/libc.a(lib_a-syscalls.o) (__sinit)
/home/vboxuser/Desktop/topst/buildtools/gcc-linaro-7.2.1-2017.11-x86_64_arm-eabi/arm-eabi/libc/usr/lib/libc.a(lib_a-fwalk.o)
                              /home/vboxuser/Desktop/topst/buildtools/gcc-linaro-7.2.1-2017.11-x86_64_arm-eabi/arm-eabi/libc/usr/lib/libc.a(lib_a-findfp.o) (_fwalk)
/home/vboxuser/Desktop/topst/buildtools/gcc-linaro-7.2.1-2017.11-x86_64_arm-eabi/arm-eabi/libc/usr/lib/libc.a(lib_a-getenv_r.o)
                              /home/vboxuser/Desktop/topst/buildtools/gcc-linaro-7.2.1-2017.11-x86_64_arm-eabi/arm-eabi/libc/usr/lib/libc.a(lib_a-locale.o) (_getenv_r)
/home/vboxuser/Desktop/topst/buildtools/gcc-linaro-7.2.1-2017.11-x86_64_arm-eabi/arm-eabi/libc/usr/lib/libc.a(lib_a-memmove.o)
                              /home/vboxuser/Desktop/topst/buildtools/gcc-linaro-7.2.1-2017.11-x86_64_arm-eabi/arm-eabi/libc/usr/lib/libc.a(lib_a-svfiprintf.o) (memmove)
/home/vboxuser/Desktop/topst/buildtools/gcc-linaro-7.2.1-2017.11-x86_64_arm-eabi/arm-eabi/libc/usr/lib/libc.a(lib_a-reallocr.o)
                              /home/vboxuser/Desktop/topst/buildtools/gcc-linaro-7.2.1-2017.11-x86_64_arm-eabi/arm-eabi/libc/usr/lib/libc.a(lib_a-svfiprintf.o) (_realloc_r)
/home/vboxuser/Desktop/topst/buildtools/gcc-linaro-7.2.1-2017.11-x86_64_arm-eabi/arm-eabi/libc/usr/lib/libc.a(lib_a-reent.o)
                              /home/vboxuser/Desktop/topst/buildtools/gcc-linaro-7.2.1-2017.11-x86_64_arm-eabi/arm-eabi/libc/usr/lib/libc.a(lib_a-sbrkr.o) (errno)
/home/vboxuser/Desktop/topst/buildtools/gcc-linaro-7.2.1-2017.11-x86_64_arm-eabi/arm-eabi/libc/usr/lib/libc.a(lib_a-stdio.o)
                              /home/vboxuser/Desktop/topst/buildtools/gcc-linaro-7.2.1-2017.11-x86_64_arm-eabi/arm-eabi/libc/usr/lib/libc.a(lib_a-findfp.o) (__sread)
/home/vboxuser/Desktop/topst/buildtools/gcc-linaro-7.2.1-2017.11-x86_64_arm-eabi/arm-eabi/libc/usr/lib/libc.a(lib_a-writer.o)
                              /home/vboxuser/Desktop/topst/buildtools/gcc-linaro-7.2.1-2017.11-x86_64_arm-eabi/arm-eabi/libc/usr/lib/libc.a(lib_a-stdio.o) (_write_r)
/home/vboxuser/Desktop/topst/buildtools/gcc-linaro-7.2.1-2017.11-x86_64_arm-eabi/arm-eabi/libc/usr/lib/libc.a(lib_a-closer.o)
                              /home/vboxuser/Desktop/topst/buildtools/gcc-linaro-7.2.1-2017.11-x86_64_arm-eabi/arm-eabi/libc/usr/lib/libc.a(lib_a-stdio.o) (_close_r)
/home/vboxuser/Desktop/topst/buildtools/gcc-linaro-7.2.1-2017.11-x86_64_arm-eabi/arm-eabi/libc/usr/lib/libc.a(lib_a-environ.o)
                              /home/vboxuser/Desktop/topst/buildtools/gcc-linaro-7.2.1-2017.11-x86_64_arm-eabi/arm-eabi/libc/usr/lib/libc.a(lib_a-getenv_r.o) (environ)
/home/vboxuser/Desktop/topst/buildtools/gcc-linaro-7.2.1-2017.11-x86_64_arm-eabi/arm-eabi/libc/usr/lib/libc.a(lib_a-envlock.o)
                              /home/vboxuser/Desktop/topst/buildtools/gcc-linaro-7.2.1-2017.11-x86_64_arm-eabi/arm-eabi/libc/usr/lib/libc.a(lib_a-getenv_r.o) (__env_lock)
/home/vboxuser/Desktop/topst/buildtools/gcc-linaro-7.2.1-2017.11-x86_64_arm-eabi/arm-eabi/libc/usr/lib/libc.a(lib_a-fclose.o)
                              /home/vboxuser/Desktop/topst/buildtools/gcc-linaro-7.2.1-2017.11-x86_64_arm-eabi/arm-eabi/libc/usr/lib/libc.a(lib_a-findfp.o) (_fclose_r)
/home/vboxuser/Desktop/topst/buildtools/gcc-linaro-7.2.1-2017.11-x86_64_arm-eabi/arm-eabi/libc/usr/lib/libc.a(lib_a-fflush.o)
                              /home/vboxuser/Desktop/topst/buildtools/gcc-linaro-7.2.1-2017.11-x86_64_arm-eabi/arm-eabi/libc/usr/lib/libc.a(lib_a-fclose.o) (__sflush_r)
/home/vboxuser/Desktop/topst/buildtools/gcc-linaro-7.2.1-2017.11-x86_64_arm-eabi/arm-eabi/libc/usr/lib/libc.a(lib_a-lseekr.o)
                              /home/vboxuser/Desktop/topst/buildtools/gcc-linaro-7.2.1-2017.11-x86_64_arm-eabi/arm-eabi/libc/usr/lib/libc.a(lib_a-stdio.o) (_lseek_r)
/home/vboxuser/Desktop/topst/buildtools/gcc-linaro-7.2.1-2017.11-x86_64_arm-eabi/arm-eabi/libc/usr/lib/libc.a(lib_a-readr.o)
                              /home/vboxuser/Desktop/topst/buildtools/gcc-linaro-7.2.1-2017.11-x86_64_arm-eabi/arm-eabi/libc/usr/lib/libc.a(lib_a-stdio.o) (_read_r)
/home/vboxuser/Desktop/topst/buildtools/gcc-linaro-7.2.1-2017.11-x86_64_arm-eabi/arm-eabi/libc/usr/lib/libgcc.a(_udivsi3.o)
                              /home/vboxuser/Desktop/topst/buildtools/gcc-linaro-7.2.1-2017.11-x86_64_arm-eabi/arm-eabi/libc/usr/lib/libc.a(lib_a-strtoul.o) (__aeabi_uidiv)
/home/vboxuser/Desktop/topst/buildtools/gcc-linaro-7.2.1-2017.11-x86_64_arm-eabi/arm-eabi/libc/usr/lib/libgcc.a(_dvmd_tls.o)
                              /home/vboxuser/Desktop/topst/buildtools/gcc-linaro-7.2.1-2017.11-x86_64_arm-eabi/arm-eabi/libc/usr/lib/libgcc.a(_udivsi3.o) (__aeabi_idiv0)
/home/vboxuser/Desktop/topst/buildtools/gcc-linaro-7.2.1-2017.11-x86_64_arm-eabi/arm-eabi/libc/usr/lib/libgcc.a(_arm_addsubdf3.o)
                              /home/vboxuser/Desktop/topst/buildtools/gcc-linaro-7.2.1-2017.11-x86_64_arm-eabi/arm-eabi/libc/usr/lib/libc.a(lib_a-svfprintf.o) (__aeabi_dsub)
/home/vboxuser/Desktop/topst/buildtools/gcc-linaro-7.2.1-2017.11-x86_64_arm-eabi/arm-eabi/libc/usr/lib/libgcc.a(_arm_muldivdf3.o)
                              /home/vboxuser/Desktop/topst/cr5-bsp/sources/build/tcc805x/gcc/tcc805x-freertos-debug/obj/Motor_System.o (__aeabi_dmul)
/home/vboxuser/Desktop/topst/buildtools/gcc-linaro-7.2.1-2017.11-x86_64_arm-eabi/arm-eabi/libc/usr/lib/libgcc.a(_arm_cmpdf2.o)
                              /home/vboxuser/Desktop/topst/buildtools/gcc-linaro-7.2.1-2017.11-x86_64_arm-eabi/arm-eabi/libc/usr/lib/libc.a(lib_a-svfprintf.o) (__aeabi_dcmpeq)
/home/vboxuser/Desktop/topst/buildtools/gcc-linaro-7.2.1-2017.11-x86_64_arm-eabi/arm-eabi/libc/usr/lib/libgcc.a(_arm_unorddf2.o)
                              /home/vboxuser/Desktop/topst/buildtools/gcc-linaro-7.2.1-2017.11-x86_64_arm-eabi/arm-eabi/libc/usr/lib/libc.a(lib_a-svfprintf.o) (__aeabi_dcmpun)
/home/vboxuser/Desktop/topst/buildtools/gcc-linaro-7.2.1-2017.11-x86_64_arm-eabi/arm-eabi/libc/usr/lib/libgcc.a(_arm_fixdfsi.o)
                              /home/vboxuser/Desktop/topst/buildtools/gcc-linaro-7.2.1-2017.11-x86_64_arm-eabi/arm-eabi/libc/usr/lib/libc.a(lib_a-svfprintf.o) (__aeabi_d2iz)
/home/vboxuser/Desktop/topst/buildtools/gcc-linaro-7.2.1-2017.11-x86_64_arm-eabi/arm-eabi/libc/usr/lib/libgcc.a(_arm_fixunsdfsi.o)
                              /home/vboxuser/Desktop/topst/cr5-bsp/sources/build/tcc805x/gcc/tcc805x-freertos-debug/obj/Motor_System.o (__aeabi_d2uiz)
/home/vboxuser/Desktop/topst/buildtools/gcc-linaro-7.2.1-2017.11-x86_64_arm-eabi/arm-eabi/libc/usr/lib/libgcc.a(_arm_addsubsf3.o)
                              /home/vboxuser/Desktop/topst/cr5-bsp/sources/build/tcc805x/gcc/tcc805x-freertos-debug/obj/Motor_System.o (__aeabi_i2f)
/home/vboxuser/Desktop/topst/buildtools/gcc-linaro-7.2.1-2017.11-x86_64_arm-eabi/arm-eabi/libc/usr/lib/libgcc.a(_arm_muldivsf3.o)
                              /home/vboxuser/Desktop/topst/cr5-bsp/sources/build/tcc805x/gcc/tcc805x-freertos-debug/obj/Motor_System.o (__aeabi_fmul)
/home/vboxuser/Desktop/topst/buildtools/gcc-linaro-7.2.1-2017.11-x86_64_arm-eabi/arm-eabi/libc/usr/lib/libgcc.a(_arm_fixunssfsi.o)
                              /home/vboxuser/Desktop/topst/cr5-bsp/sources/build/tcc805x/gcc/tcc805x-freertos-debug/obj/Motor_System.o (__aeabi_f2uiz)
/home/vboxuser/Desktop/topst/buildtools/gcc-linaro-7.2.1-2017.11-x86_64_arm-eabi/arm-eabi/libc/usr/lib/libgcc.a(_aeabi_uldivmod.o)
                              /home/vboxuser/Desktop/topst/cr5-bsp/sources/build/tcc805x/gcc/tcc805x-freertos-debug/obj/clock_dev.o (__aeabi_uldivmod)
/home/vboxuser/Desktop/topst/buildtools/gcc-linaro-7.2.1-2017.11-x86_64_arm-eabi/arm-eabi/libc/usr/lib/libgcc.a(_udivmoddi4.o)
                              /home/vboxuser/Desktop/topst/buildtools/gcc-linaro-7.2.1-2017.11-x86_64_arm-eabi/arm-eabi/libc/usr/lib/libgcc.a(_aeabi_uldivmod.o) (__udivmoddi4)
/home/vboxuser/Desktop/topst/buildtools/gcc-linaro-7.2.1-2017.11-x86_64_arm-eabi/arm-eabi/libc/usr/lib/libgcc.a(_clzdi2.o)
                              /home/vboxuser/Desktop/topst/buildtools/gcc-linaro-7.2.1-2017.11-x86_64_arm-eabi/arm-eabi/libc/usr/lib/libgcc.a(_udivmoddi4.o) (__clzdi2)
/home/vboxuser/Desktop/topst/buildtools/gcc-linaro-7.2.1-2017.11-x86_64_arm-eabi/arm-eabi/libc/usr/lib/libgcc.a(_clzsi2.o)
                              /home/vboxuser/Desktop/topst/buildtools/gcc-linaro-7.2.1-2017.11-x86_64_arm-eabi/arm-eabi/libc/usr/lib/libgcc.a(_clzdi2.o) (__clzsi2)

Allocating common symbols
Common symbol       size              file

errno               0x4               /home/vboxuser/Desktop/topst/buildtools/gcc-linaro-7.2.1-2017.11-x86_64_arm-eabi/arm-eabi/libc/usr/lib/libc.a(lib_a-reent.o)

Discarded input sections

 .ARM.extab     0x0000000000000000        0x0 /home/vboxuser/Desktop/topst/buildtools/gcc-linaro-7.2.1-2017.11-x86_64_arm-eabi/arm-eabi/libc/usr/lib/libgcc.a(_udivmoddi4.o)
 .ARM.exidx     0x0000000000000000        0x8 /home/vboxuser/Desktop/topst/buildtools/gcc-linaro-7.2.1-2017.11-x86_64_arm-eabi/arm-eabi/libc/usr/lib/libgcc.a(_udivmoddi4.o)

Memory Configuration

Name             Origin             Length             Attributes
SRAM             0x0000000006000000 0x000000000007b980 xrw
SRAM_ARM_STACK   0x000000000607b980 0x0000000000000680 xrw
NC_SRAM          0x00000000c007c000 0x0000000000004000 xrw
NOR              0x0000000008200000 0x0000000000200000 xr
*default*        0x0000000000000000 0xffffffffffffffff

Linker script and memory map

                0x0000000006000000                __VECTOR_START = 0x6000000
                0x0000000000004000                DMA_NC_SIZE = 0x4000

.text           0x0000000008200000    0x7ca68
                0x0000000008200000                __TEXT_START__ = .
 *startup.o(.text)
 .text          0x0000000008200000      0x230 /home/vboxuser/Desktop/topst/cr5-bsp/sources/build/tcc805x/gcc/tcc805x-freertos-debug/obj/startup.o
                0x0000000008200000                reset
 *(.text)
 .text          0x0000000008200230      0x260 /home/vboxuser/Desktop/topst/cr5-bsp/sources/build/tcc805x/gcc/tcc805x-freertos-debug/obj/main.o
                0x0000000008200230                cmain
 .text          0x0000000008200490     0x1a50 /home/vboxuser/Desktop/topst/cr5-bsp/sources/build/tcc805x/gcc/tcc805x-freertos-debug/obj/can_demo.o
                0x0000000008201664                CAN_DemoInitialize
                0x00000000082018b8                CAN_DemoTest
                0x0000000008201ddc                CAN_DemoCreateApp
 .text          0x0000000008201ee0     0x2ee0 /home/vboxuser/Desktop/topst/cr5-bsp/sources/build/tcc805x/gcc/tcc805x-freertos-debug/obj/console.o
                0x0000000008204d44                CreateConsoleTask
 .text          0x0000000008204dc0      0x4fc /home/vboxuser/Desktop/topst/cr5-bsp/sources/build/tcc805x/gcc/tcc805x-freertos-debug/obj/fwug.o
                0x0000000008204dc0                FWUG_CreateApp
                0x0000000008204fb8                FWUG_Start
 .text          0x00000000082052bc      0xb00 /home/vboxuser/Desktop/topst/cr5-bsp/sources/build/tcc805x/gcc/tcc805x-freertos-debug/obj/key_adc.o
                0x000000000820568c                KEY_AdcOpen
                0x00000000082058e4                KEY_AdcScan
 .text          0x0000000008205dbc      0x500 /home/vboxuser/Desktop/topst/cr5-bsp/sources/build/tcc805x/gcc/tcc805x-freertos-debug/obj/key_gpio.o
                0x0000000008205f88                KEY_GpioKeyOpen
                0x0000000008205ffc                KEY_GpioGetRotaryValue
 .text          0x00000000082062bc      0xa08 /home/vboxuser/Desktop/topst/cr5-bsp/sources/build/tcc805x/gcc/tcc805x-freertos-debug/obj/key_i2c.o
                0x0000000008206438                KEY_I2cOpen
                0x000000000820650c                KEY_I2cRead
                0x0000000008206688                KEY_I2cWrite
                0x0000000008206810                KEY_I2cScan
 .text          0x0000000008206cc4        0x0 /home/vboxuser/Desktop/topst/cr5-bsp/sources/build/tcc805x/gcc/tcc805x-freertos-debug/obj/key.o
 .text          0x0000000008206cc4      0xc0c /home/vboxuser/Desktop/topst/cr5-bsp/sources/build/tcc805x/gcc/tcc805x-freertos-debug/obj/system_monitoring.o
                0x0000000008207854                SM_CreateAppTask
 .text          0x00000000082078d0      0x4b0 /home/vboxuser/Desktop/topst/cr5-bsp/sources/build/tcc805x/gcc/tcc805x-freertos-debug/obj/bootctrl.o
                0x0000000008207c1c                BCTRL_Init
 .text          0x0000000008207d80      0x1dc /home/vboxuser/Desktop/topst/cr5-bsp/sources/build/tcc805x/gcc/tcc805x-freertos-debug/obj/reset_demo.o
                0x0000000008207d80                PMU_ResetTest
 .text          0x0000000008207f5c     0x1994 /home/vboxuser/Desktop/topst/cr5-bsp/sources/build/tcc805x/gcc/tcc805x-freertos-debug/obj/adc_test.o
                0x000000000820985c                ADC_StartAdcTest
 .text          0x00000000082098f0      0x76c /home/vboxuser/Desktop/topst/cr5-bsp/sources/build/tcc805x/gcc/tcc805x-freertos-debug/obj/dse_test.o
                0x00000000082098f0                DSE_Test_R5AccessFault
                0x0000000008209dac                DSE_Test_SoftFaultCheck
 .text          0x000000000820a05c      0x620 /home/vboxuser/Desktop/topst/cr5-bsp/sources/build/tcc805x/gcc/tcc805x-freertos-debug/obj/fmu_test.o
                0x000000000820a628                FMU_StartFmuTest
 .text          0x000000000820a67c      0x3dc /home/vboxuser/Desktop/topst/cr5-bsp/sources/build/tcc805x/gcc/tcc805x-freertos-debug/obj/gdma_test.o
                0x000000000820a67c                GDMA_SampleForM2M
 .text          0x000000000820aa58      0x404 /home/vboxuser/Desktop/topst/cr5-bsp/sources/build/tcc805x/gcc/tcc805x-freertos-debug/obj/gic_test.o
                0x000000000820ab1c                GIC_Test_SmInt
                0x000000000820ace0                GIC_Test_Sgi
 .text          0x000000000820ae5c     0x21b8 /home/vboxuser/Desktop/topst/cr5-bsp/sources/build/tcc805x/gcc/tcc805x-freertos-debug/obj/gpio_test.o
                0x000000000820cfc0                GPIO_StartGpioTest
 .text          0x000000000820d014     0x2590 /home/vboxuser/Desktop/topst/cr5-bsp/sources/build/tcc805x/gcc/tcc805x-freertos-debug/obj/gpsb_test.o
                0x000000000820eff0                GPSB_Test
 .text          0x000000000820f5a4     0x33b0 /home/vboxuser/Desktop/topst/cr5-bsp/sources/build/tcc805x/gcc/tcc805x-freertos-debug/obj/hsm_test.o
                0x0000000008212730                HSM_Test
 .text          0x0000000008212954      0xae0 /home/vboxuser/Desktop/topst/cr5-bsp/sources/build/tcc805x/gcc/tcc805x-freertos-debug/obj/i2c_test.o
                0x0000000008213388                I2C_TestMain
 .text          0x0000000008213434      0x2bc /home/vboxuser/Desktop/topst/cr5-bsp/sources/build/tcc805x/gcc/tcc805x-freertos-debug/obj/ictc_test.o
                0x00000000082136b0                ICTC_SelectTestCase
 .text          0x00000000082136f0      0x354 /home/vboxuser/Desktop/topst/cr5-bsp/sources/build/tcc805x/gcc/tcc805x-freertos-debug/obj/lin_test.o
                0x00000000082136f0                LIN_TestUsage
                0x000000000821373c                LIN_SampleTest
 .text          0x0000000008213a44      0x48c /home/vboxuser/Desktop/topst/cr5-bsp/sources/build/tcc805x/gcc/tcc805x-freertos-debug/obj/pdm_test.o
                0x0000000008213e70                PDM_SelectTestCase
 .text          0x0000000008213ed0      0x66c /home/vboxuser/Desktop/topst/cr5-bsp/sources/build/tcc805x/gcc/tcc805x-freertos-debug/obj/pmio_test.o
                0x0000000008214228                PMIO_TEST_GetByAddress
                0x0000000008214298                PMIO_TEST_GetByName
                0x0000000008214334                PMIO_TEST_SetByAddress
                0x00000000082143ec                PMIO_TEST_SetByName
                0x00000000082144dc                PMIO_TEST_PrintStatus
                0x00000000082144fc                PMIO_TEST_Run
 .text          0x000000000821453c     0x13c4 /home/vboxuser/Desktop/topst/cr5-bsp/sources/build/tcc805x/gcc/tcc805x-freertos-debug/obj/timer_test.o
                0x0000000008215744                delay_us3
                0x0000000008215794                timer_on
                0x00000000082157f8                TIMER_StartTimerTest
 .text          0x0000000008215900      0xac0 /home/vboxuser/Desktop/topst/cr5-bsp/sources/build/tcc805x/gcc/tcc805x-freertos-debug/obj/wdt_test.o
                0x0000000008216278                WDT_StartTest
 .text          0x00000000082163c0      0x534 /home/vboxuser/Desktop/topst/cr5-bsp/sources/build/tcc805x/gcc/tcc805x-freertos-debug/obj/pwm_test.o
                0x00000000082163c0                PWM_TestSleepForSec
                0x0000000008216428                PWM_TestSetGpio
                0x0000000008216444                PWM_TestMotorGpio
                0x0000000008216490                PWM_TestSwitchGpio
                0x00000000082164c4                PWM_TestLED
                0x0000000008216648                PWM_SwitchCtrl
                0x0000000008216898                PWM_SelectTestCase
 .text          0x00000000082168f4      0x66c /home/vboxuser/Desktop/topst/cr5-bsp/sources/build/tcc805x/gcc/tcc805x-freertos-debug/obj/Motor_System.o
                0x00000000082168f4                calculate_distance
                0x0000000008216968                ultrasonic_read_distance
                0x0000000008216a6c                UltraSonic_main
                0x0000000008216bd8                Uart_PWM
                0x0000000008216e74                Create_Motor_System_Task
 .text          0x0000000008216f60      0x21c /home/vboxuser/Desktop/topst/cr5-bsp/sources/build/tcc805x/gcc/tcc805x-freertos-debug/obj/mptool.o
                0x0000000008216f60                MPTool_CreateApp
 .text          0x000000000821717c     0x1d6c /home/vboxuser/Desktop/topst/cr5-bsp/sources/build/tcc805x/gcc/tcc805x-freertos-debug/obj/ipc_os.o
                0x000000000821717c                IPC_GetUsec
                0x0000000008217198                IPC_GetMsec
                0x00000000082171e8                IPC_Mdelay
                0x0000000008217234                IPC_Udelay
                0x0000000008217364                IPC_CommonLock
                0x00000000082173ec                IPC_CommonUnlock
                0x0000000008217b44                IPC_MboxLock
                0x0000000008217bcc                IPC_MboxUnlock
                0x0000000008217c4c                IPC_WriteLock
                0x0000000008217cd4                IPC_WriteUnlock
                0x0000000008217d54                IPC_ReadLock
                0x0000000008217ddc                IPC_ReadUnlock
                0x0000000008217e5c                IPC_RbufferLock
                0x0000000008217ee4                IPC_RbufferUnlock
                0x0000000008217f64                IPC_WbufferLock
                0x0000000008217fec                IPC_WbufferUnlock
                0x000000000821824c                IPC_CmdWaitEventTimeOut
                0x00000000082183e8                IPC_CmdWakePreSet
                0x000000000821854c                IPC_CmdWakeUp
                0x000000000821884c                IPC_ReadWaitEventTimeOut
                0x0000000008218934                IPC_ReadClearEvent
                0x00000000082189bc                IPC_ReadWakeUp
                0x0000000008218bcc                IPC_BufferOverFlowWaitEventTimeOut
                0x0000000008218d24                IPC_BufferOverFlowWakeUp
                0x0000000008218db0                IPC_RequestIrq
                0x0000000008218df8                IPC_FreeIrq
                0x0000000008218e20                IPC_OsResourceInit
                0x0000000008218e7c                IPC_OsResourceRelease
 .text          0x0000000008218ee8      0xfa8 /home/vboxuser/Desktop/topst/cr5-bsp/sources/build/tcc805x/gcc/tcc805x-freertos-debug/obj/ipc_buffer.o
                0x0000000008218ee8                IPC_BufferInit
                0x0000000008218f40                IPC_PushOneByte
                0x0000000008219054                IPC_PushOneByteOverWrite
                0x00000000082191c0                IPC_PopOneByte
                0x00000000082192dc                IPC_BufferFlush
                0x0000000008219368                IPC_BufferFlushByte
                0x00000000082194cc                IPC_BufferDataAvailable
                0x00000000082195b8                IPC_BufferFreeSpace
                0x00000000082196ac                IPC_BufferSetHead
                0x0000000008219730                IPC_BufferSetTail
                0x00000000082197b4                IPC_BufferGetHead
                0x00000000082197f0                IPC_BufferGetTail
                0x000000000821982c                IPC_PushBuffer
                0x0000000008219a68                IPC_PushBufferOverWrite
                0x0000000008219c88                IPC_PopBuffer
 .text          0x0000000008219e90      0x96c /home/vboxuser/Desktop/topst/cr5-bsp/sources/build/tcc805x/gcc/tcc805x-freertos-debug/obj/ipc_cmd.o
                0x0000000008219f24                IPC_SendOpen
                0x000000000821a0bc                IPC_SendClose
                0x000000000821a200                IPC_SendWrite
                0x000000000821a4dc                IPC_SendPing
                0x000000000821a678                IPC_SendAck
 .text          0x000000000821a7fc     0x1cec /home/vboxuser/Desktop/topst/cr5-bsp/sources/build/tcc805x/gcc/tcc805x-freertos-debug/obj/ipc_ctl.o
                0x000000000821a8ec                IPC_Write
                0x000000000821b044                IPC_Read
                0x000000000821b1c8                IPC_PingTest
                0x000000000821b2f0                IPC_Flush
                0x000000000821b35c                IPC_StructInit
                0x000000000821b460                IPC_GetStatus
                0x000000000821c308                IPC_Initialize
                0x000000000821c498                IPC_Release
 .text          0x000000000821c4e8      0x680 /home/vboxuser/Desktop/topst/cr5-bsp/sources/build/tcc805x/gcc/tcc805x-freertos-debug/obj/ipc_parser.o
                0x000000000821c9f0                IPC_CreateIPCParserTask
 .text          0x000000000821cb68     0x1024 /home/vboxuser/Desktop/topst/cr5-bsp/sources/build/tcc805x/gcc/tcc805x-freertos-debug/obj/ipc_api.o
                0x000000000821cb68                IPC_Open
                0x000000000821cde4                IPC_Close
                0x000000000821cfec                IPC_CalcCrc16
                0x000000000821d0b0                IPC_Ioctl
                0x000000000821d904                IPC_SendPacketWithIPCHeader
 .text          0x000000000821db8c      0x1d4 /home/vboxuser/Desktop/topst/cr5-bsp/sources/build/tcc805x/gcc/tcc805x-freertos-debug/obj/ipc.o
                0x000000000821db8c                IPC_Create
                0x000000000821dba0                IPC_RegisterCbFunc
                0x000000000821dca8                IPC_SendPacket
                0x000000000821dd18                IPC_IsReady
 .text          0x000000000821dd60      0xe1c /home/vboxuser/Desktop/topst/cr5-bsp/sources/build/tcc805x/gcc/tcc805x-freertos-debug/obj/lin.o
                0x000000000821e3f0                LIN_Init
                0x000000000821e60c                LIN_SendData
                0x000000000821e754                LIN_ReadData
                0x000000000821eae4                LIN_TransceiverWakeup
 .text          0x000000000821eb7c      0xc84 /home/vboxuser/Desktop/topst/cr5-bsp/sources/build/tcc805x/gcc/tcc805x-freertos-debug/obj/sdm.o
                0x000000000821ed48                SDM_ReadReg
                0x000000000821f16c                SDM_WriteReg
                0x000000000821f6b0                SDM_Init
 .text          0x000000000821f800     0x2d00 /home/vboxuser/Desktop/topst/cr5-bsp/sources/build/tcc805x/gcc/tcc805x-freertos-debug/obj/hsm_manager.o
                0x000000000821f800                HSM_Init
                0x000000000821f8d4                HSM_VerifyFw
                0x000000000821fa34                HSM_SetKey
                0x000000000821fc40                HSM_RunAes
                0x00000000082201e0                HSM_RunAesByKt
                0x000000000822070c                HSM_GenMac
                0x0000000008220b88                HSM_GenMacByKt
                0x0000000008220f90                HSM_GenHash
                0x00000000082212c8                HSM_RunEcdsa
                0x0000000008221718                HSM_RunRsa
                0x0000000008221c18                HSM_Write
                0x0000000008221e5c                HSM_GetRand
                0x00000000082220e0                HSM_BlockApSystem
                0x0000000008222268                HSM_GetVersion
 .text          0x0000000008222500      0x3fc /home/vboxuser/Desktop/topst/cr5-bsp/sources/build/tcc805x/gcc/tcc805x-freertos-debug/obj/adc.o
                0x000000000822269c                ADC_Init
                0x0000000008222790                ADC_Read
                0x0000000008222890                ADC_AutoScan
                0x00000000082228e0                ADC_DeInit
 .text          0x00000000082228fc      0xbb0 /home/vboxuser/Desktop/topst/cr5-bsp/sources/build/tcc805x/gcc/tcc805x-freertos-debug/obj/can.o
                0x00000000082228fc                CAN_Init
                0x0000000008222a94                CAN_Deinit
                0x0000000008222bc0                CAN_InitMessage
                0x0000000008222c48                CAN_CheckNewRxMessage
                0x0000000008222c90                CAN_GetNewRxMessage
                0x0000000008222d84                CAN_SendMessage
                0x0000000008222e88                CAN_RequestTxMessageCancellation
                0x0000000008222f48                CAN_CheckNewTxEvent
                0x0000000008222f90                CAN_GetNewTxEvent
                0x0000000008222ff0                CAN_SetControllerMode
                0x000000000822323c                CAN_GetControllerMode
                0x00000000082232c0                CAN_GetProtocolStatus
                0x0000000008223340                CAN_GetControllerInfo
                0x00000000082233b0                CAN_RegisterCallbackFunctionTx
                0x0000000008223404                CAN_RegisterCallbackFunctionRx
                0x0000000008223458                CAN_RegisterCallbackFunctionError
 .text          0x00000000082234ac     0x2ef8 /home/vboxuser/Desktop/topst/cr5-bsp/sources/build/tcc805x/gcc/tcc805x-freertos-debug/obj/can_drv.o
                0x00000000082234ac                CAN_DrvInitChannel
                0x0000000008223678                CAN_DrvDeinitChannel
                0x000000000822375c                CAN_DrvSetNormalOperationMode
                0x00000000082238e0                CAN_DrvSetMonitoringMode
                0x00000000082239c8                CAN_DrvSetInternalTestMode
                0x0000000008223ad8                CAN_DrvSetExternalTestMode
                0x0000000008223bd4                CAN_DrvSetWakeUpMode
                0x0000000008223cf4                CAN_DrvSetSleepMode
                0x000000000822561c                CAN_DrvGetProtocolStatus
                0x0000000008226258                CAN_DrvCallbackNotifyRxEvent
 .text          0x00000000082263a4     0x1ac0 /home/vboxuser/Desktop/topst/cr5-bsp/sources/build/tcc805x/gcc/tcc805x-freertos-debug/obj/can_msg.o
                0x00000000082263a4                CAN_MsgInit
                0x0000000008226d48                CAN_MsgPutRxMessage
                0x00000000082271a8                CAN_MsgGetCountOfRxMessage
                0x000000000822734c                CAN_MsgGetRxMessage
                0x00000000082278c0                CAN_MsgSetTxMessage
                0x0000000008227b74                CAN_MsgRequestTxMessageCancellation
                0x0000000008227c04                CAN_MsgGetCountOfTxEvent
                0x0000000008227c74                CAN_MsgGetTxEventMessage
 .text          0x0000000008227e64        0x0 /home/vboxuser/Desktop/topst/cr5-bsp/sources/build/tcc805x/gcc/tcc805x-freertos-debug/obj/can_par.o
 .text          0x0000000008227e64      0xc10 /home/vboxuser/Desktop/topst/cr5-bsp/sources/build/tcc805x/gcc/tcc805x-freertos-debug/obj/can_porting.o
                0x0000000008227e64                CAN_PortingDelay
                0x0000000008227ec8                CAN_PortingInitHW
                0x0000000008227fc4                CAN_PortingSetControllerClock
                0x0000000008228098                CAN_PortingResetDriver
                0x000000000822821c                CAN_PortingSetInterruptHandler
                0x0000000008228294                CAN_PortingDisableControllerInterrupts
                0x00000000082282e8                CAN_PortingEnableControllerInterrupts
                0x000000000822833c                CAN_PortingGetSizeofStandardIDFilterList
                0x0000000008228380                CAN_PortingGetSizeofExtendedIDFilterList
                0x00000000082283c4                CAN_PortingGetSizeofRxFIFO0
                0x0000000008228408                CAN_PortingGetSizeofRxFIFO1
                0x000000000822844c                CAN_PortingGetSizeofRxBuffer
                0x0000000008228490                CAN_PortingGetSizeofTxEventBuffer
                0x00000000082284d4                CAN_PortingGetSizeofTxBuffer
                0x0000000008228518                CAN_PortingGetBitRateSwitchEnable
                0x000000000822855c                CAN_PortingGetFDEnable
                0x00000000082285a0                CAN_PortingGetStandardIDFilterEnable
                0x00000000082285e4                CAN_PortingGetExtendedIDFilterEnable
                0x0000000008228628                CAN_PortingGetStandardIDRemoteRejectEnable
                0x000000000822866c                CAN_PortingGetExtendedIDRemoteRejectEnable
                0x00000000082286b0                CAN_PortingGetTxEventFIFOEnable
                0x00000000082286f4                CAN_PortingGetWatchDogEnable
                0x0000000008228738                CAN_PortingGetTimeOutEnable
                0x000000000822877c                CAN_PortingGetTimeStampEnable
                0x00000000082287c0                CAN_PortingAllocateNonCacheMemory
                0x0000000008228848                CAN_PortingDeallocateNonCacheMemory
                0x0000000008228888                CAN_PortingGetControllerRegister
                0x00000000082288d4                CAN_PortingGetConfigBaseAddr
                0x0000000008228900                CAN_PortingGetMessageRamBaseAddr
                0x0000000008228954                CAN_PortingGetConfigEXTS0Addr
                0x000000000822899c                CAN_PortingGetConfigEXTS1Addr
                0x00000000082289e4                CAN_PortingGetConfigWritePasswordAddr
                0x0000000008228a2c                CAN_PortingGetConfigWriteLockAddr
 *fill*         0x0000000008228a74        0x4 
 .text          0x0000000008228a78     0x226c /home/vboxuser/Desktop/topst/cr5-bsp/sources/build/tcc805x/gcc/tcc805x-freertos-debug/obj/clock_dev.o
                0x0000000008229ba4                CLOCK_Init
                0x0000000008229c78                CLOCK_SetPllDiv
                0x0000000008229dc0                CLOCK_GetPllRate
                0x0000000008229e38                CLOCK_SetPllRate
                0x000000000822a3fc                CLOCK_SetClkCtrlRate
                0x000000000822a49c                CLOCK_GetClkCtrlRate
                0x000000000822a5f0                CLOCK_IsPeriEnabled
                0x000000000822a658                CLOCK_EnablePeri
                0x000000000822a6b8                CLOCK_DisablePeri
                0x000000000822a718                CLOCK_GetPeriRate
                0x000000000822a894                CLOCK_SetPeriRate
                0x000000000822a9b0                CLOCK_IsIobusPwdn
                0x000000000822aa64                CLOCK_EnableIobus
                0x000000000822ab04                CLOCK_SetIobusPwdn
                0x000000000822abf4                CLOCK_SetSwReset
 .text          0x000000000822ace4      0xba8 /home/vboxuser/Desktop/topst/cr5-bsp/sources/build/tcc805x/gcc/tcc805x-freertos-debug/obj/debug.o
                0x000000000822ace4                DBG_Putc
                0x000000000822b144                DBG_Printfi
                0x000000000822b860                DBG_SerialPrintf
 .text          0x000000000822b88c       0xd8 /home/vboxuser/Desktop/topst/cr5-bsp/sources/build/tcc805x/gcc/tcc805x-freertos-debug/obj/bsp.o
                0x000000000822b88c                BSP_PreInit
                0x000000000822b8a8                BSP_Init
                0x000000000822b8fc                BSP_UndefAbortExceptionHook
                0x000000000822b924                BSP_SystemHalt
 .text          0x000000000822b964     0x18a4 /home/vboxuser/Desktop/topst/cr5-bsp/sources/build/tcc805x/gcc/tcc805x-freertos-debug/obj/fmu.o
                0x000000000822cc84                FMU_Init
                0x000000000822cd0c                FMU_IsrHandler
                0x000000000822ce38                FMU_Set
                0x000000000822d158                FMU_IsrClr
                0x000000000822d1d4                FMU_Deinit
 .text          0x000000000822d208      0xc3c /home/vboxuser/Desktop/topst/cr5-bsp/sources/build/tcc805x/gcc/tcc805x-freertos-debug/obj/gdma.o
                0x000000000822d984                GDMA_TransferFunctionForM2M
                0x000000000822dcb8                GDMA_Initialize
 .text          0x000000000822de44      0xe1c /home/vboxuser/Desktop/topst/cr5-bsp/sources/build/tcc805x/gcc/tcc805x-freertos-debug/obj/gic.o
                0x000000000822e094                GIC_Init
                0x000000000822e180                GIC_IntSrcEn
                0x000000000822e2a0                GIC_IntSrcDis
                0x000000000822e398                GIC_IntPrioSet
                0x000000000822e430                GIC_IntVectSet
                0x000000000822e654                GIC_IntHandlerWithParam
                0x000000000822e73c                GIC_IntHandler
                0x000000000822e828                GIC_IntExtSet
                0x000000000822e96c                GIC_IntSGI
                0x000000000822ea08                GIC_SmIrqEn
                0x000000000822eb34                GIC_SmIrqSetHigh
 .text          0x000000000822ec60     0x1224 /home/vboxuser/Desktop/topst/cr5-bsp/sources/build/tcc805x/gcc/tcc805x-freertos-debug/obj/gpio.o
                0x000000000822f1b4                GPIO_Config
                0x000000000822faf0                GPIO_Get
                0x000000000822fb68                GPIO_Set
                0x000000000822fc30                GPIO_ToNum
 .text          0x000000000822fe84     0x4d00 /home/vboxuser/Desktop/topst/cr5-bsp/sources/build/tcc805x/gcc/tcc805x-freertos-debug/obj/i2c.o
                0x000000000823023c                I2C_ScanSlave
                0x0000000008231ab8                I2C_Xfer
                0x0000000008231d7c                I2C_XferCmd
                0x0000000008232004                I2C_GetMachineState
                0x0000000008234358                I2C_Open
                0x00000000082347a0                I2C_Close
                0x0000000008234acc                I2C_Init
                0x0000000008234b5c                I2C_Deinit
 .text          0x0000000008234b84        0x0 /home/vboxuser/Desktop/topst/cr5-bsp/sources/build/tcc805x/gcc/tcc805x-freertos-debug/obj/i2c_reg.o
 .text          0x0000000008234b84     0x153c /home/vboxuser/Desktop/topst/cr5-bsp/sources/build/tcc805x/gcc/tcc805x-freertos-debug/obj/ictc.o
                0x0000000008234b84                ICTC_Init
                0x0000000008234cfc                ICTC_Deinit
                0x0000000008234d7c                ICTC_GetPrevPeriodCnt
                0x0000000008234ea4                ICTC_GetPreDutyCnt
                0x0000000008234fcc                ICTC_GetCurEdgeCnt
                0x00000000082350f4                ICTC_GetPrvEdgeCnt
                0x000000000823521c                ICTC_GetREdgeTstmpCnt
                0x0000000008235450                ICTC_GetFEdgeTstmpCnt
                0x0000000008235748                ICTC_EnableCapture
                0x00000000082357f0                ICTC_DisableCapture
                0x00000000082358a0                ICTC_SetOpEnCtrlCounter
                0x0000000008235914                ICTC_SetOpModeCtrlReg
                0x0000000008235c34                ICTC_SetIRQCtrlReg
                0x0000000008235dc4                ICTC_SetCallBackFunc
                0x0000000008235e28                ICTC_SetTimeoutValue
                0x0000000008235ea8                ICTC_SetEdgeMatchingValue
                0x0000000008235fe0                ICTC_SetCompareRoundValue
 .text          0x00000000082360c0     0x10d4 /home/vboxuser/Desktop/topst/cr5-bsp/sources/build/tcc805x/gcc/tcc805x-freertos-debug/obj/mbox_phy.o
                0x00000000082360c0                MBOX_PhyReady
                0x0000000008236334                MBOX_PhyBitSetCtrl
                0x00000000082363b8                MBOX_PhyBitClearCtrl
                0x0000000008236410                MBOX_PhyIsIlevelSet
                0x0000000008236460                MBOX_PhyIsIenSet
                0x00000000082364b4                MBOX_PhyIsOenSet
                0x0000000008236508                MBOX_PhyIsFlushedCmd
                0x000000000823655c                MBOX_PhyIsFlushedData
                0x00000000082365b0                MBOX_PhyCountScmd
                0x0000000008236604                MBOX_PhyFullScmd
                0x0000000008236658                MBOX_PhyEmptyScmd
                0x00000000082366ac                MBOX_PhyCountMcmd
                0x0000000008236700                MBOX_PhyFullMcmd
                0x0000000008236754                MBOX_PhyEmptyMcmd
                0x00000000082367a4                MBOX_PhyEmptyMdata
                0x00000000082367f8                MBOX_PhyFullMdata
                0x000000000823684c                MBOX_PhyCountMdata
                0x0000000008236898                MBOX_PhyEmptySdata
                0x00000000082368ec                MBOX_PhyFullSdata
                0x0000000008236940                MBOX_PhyCountSdata
                0x000000000823698c                MBOX_PhyWriteCmd
                0x0000000008236b48                MBOX_PhyReadCmd
                0x0000000008236dcc                MBOX_PhyWriteData
                0x0000000008236eb4                MBOX_PhyReadData
                0x0000000008236fbc                MBOX_PhySetOwnTmnSts
                0x0000000008237070                MBOX_PhyGetOwnTmnSts
                0x0000000008237100                MBOX_PhyGetOppTmnSts
 .text          0x0000000008237194     0x424c /home/vboxuser/Desktop/topst/cr5-bsp/sources/build/tcc805x/gcc/tcc805x-freertos-debug/obj/mbox_dev.o
                0x0000000008237194                MBOX_DevInit
                0x000000000823761c                MBOX_DevOpen
                0x0000000008237d1c                MBOX_DevSend
                0x0000000008238230                MBOX_DevSendSss
                0x0000000008238738                MBOX_DevSendCmd
                0x0000000008238b8c                MBOX_DevSendData
                0x000000000823909c                MBOX_DevRecv
                0x0000000008239214                MBOX_DevRecvSss
                0x000000000823938c                MBOX_DevRecvCmd
                0x00000000082393c0                MBOX_DevRecvData
                0x000000000823a3f4                MBOX_DevIoctl
 .text          0x000000000823b3e0      0xcc8 /home/vboxuser/Desktop/topst/cr5-bsp/sources/build/tcc805x/gcc/tcc805x-freertos-debug/obj/mbox.o
                0x000000000823be00                MBOX_Init
 .text          0x000000000823c0a8      0x268 /home/vboxuser/Desktop/topst/cr5-bsp/sources/build/tcc805x/gcc/tcc805x-freertos-debug/obj/mpu.o
                0x000000000823c134                MPU_Init
                0x000000000823c1c4                MPU_GetDMABaseAddress
                0x000000000823c1f0                MPU_SetRegion
                0x000000000823c294                MPU_Enable
                0x000000000823c2c8                MPU_Disable
 .text          0x000000000823c310     0x3f08 /home/vboxuser/Desktop/topst/cr5-bsp/sources/build/tcc805x/gcc/tcc805x-freertos-debug/obj/pdm.o
                0x000000000823d5f8                PDM_EnableClock
                0x000000000823d778                PDM_DisableClock
                0x000000000823d7a0                PDM_Init
                0x000000000823de84                PDM_Deinit
                0x000000000823f524                PDM_GetChannelStatus
                0x000000000823faf4                PDM_Enable
                0x000000000823fca4                PDM_Disable
                0x000000000823fdd0                PDM_SetConfig
 .text          0x0000000008240218     0x2914 /home/vboxuser/Desktop/topst/cr5-bsp/sources/build/tcc805x/gcc/tcc805x-freertos-debug/obj/pmio_dev.o
                0x0000000008240c98                PMIO_ForceSTRModeTest
                0x0000000008240cc0                PMIO_EarlyWakeUp
                0x0000000008240d74                PMIO_PowerDown
                0x0000000008240fd8                PMIO_DebugPrintPowerStatus
                0x0000000008241200                PMIO_Init
                0x00000000082412b4                PMIO_ClearBackupRAM
                0x000000000824130c                PMIO_GetBackupRam
                0x0000000008241348                PMIO_SetBackupRam
                0x00000000082413c8                PMIO_GetBootReason
                0x00000000082414d4                PMIO_GetWdtReset
                0x0000000008241550                PMIO_SetGPK
                0x0000000008242b14                PMIO_APBootOk
 .text          0x0000000008242b2c     0x7490 /home/vboxuser/Desktop/topst/cr5-bsp/sources/build/tcc805x/gcc/tcc805x-freertos-debug/obj/gpsb.o
                0x0000000008242ba8                GPSB_BitClear
                0x0000000008242bf8                GPSB_BitSet
                0x0000000008242c58                GPSB_BitCSet
                0x0000000008242cbc                GPSB_BitSClear
                0x00000000082434ac                GPSB_Reset
                0x0000000008244028                GPSB_SetSpeed
                0x0000000008244220                GPSB_SetBpw
                0x0000000008244410                GPSB_SetBpwNoSwap
                0x00000000082445d0                GPSB_SetMode
                0x0000000008244a0c                GPSB_CsAlloc
                0x0000000008244b8c                GPSB_CsInit
                0x0000000008244c80                GPSB_CsActivate
                0x0000000008244d20                GPSB_CsDeactivate
                0x0000000008245fe0                GPSB_Xfer
                0x00000000082464e0                GPSB_XferAbort
                0x0000000008246824                GPSB_Open
                0x0000000008247038                GPSB_Close
                0x0000000008248588                GPSB_SetSdmExtPort
                0x00000000082486c4                GPSB_SetRvcExtPort
                0x00000000082487e4                GPSB_SetSdmChannel
                0x0000000008248a08                GPSB_SetRvcChannel
                0x0000000008248c38                GPSB_SetLbCfg
                0x0000000008248d8c                GPSB_ClearLbCfg
                0x000000000824942c                GPSB_Init
                0x0000000008249624                GPSB_Deinit
                0x0000000008249694                GPSB_SafetyEnableLock
                0x000000000824978c                GPSB_SafetyDisableLock
                0x0000000008249884                GPSB_SafetyEnableLoopback
                0x00000000082499e0                GPSB_SafetyDisableLoopback
                0x0000000008249aec                GPSB_SafetyEnableMonitor
                0x0000000008249d18                GPSB_SafetyDisableMonitor
                0x0000000008249de8                GPSB_SafetyGetStatus
 .text          0x0000000008249fbc        0x0 /home/vboxuser/Desktop/topst/cr5-bsp/sources/build/tcc805x/gcc/tcc805x-freertos-debug/obj/gpsb_reg.o
 .text          0x0000000008249fbc     0x10c0 /home/vboxuser/Desktop/topst/cr5-bsp/sources/build/tcc805x/gcc/tcc805x-freertos-debug/obj/timer.o
                0x0000000008249fbc                TIMER_GetCurrentMainCounter1
                0x0000000008249fe0                TIMER_GetCurrentMainCounter
                0x000000000824a01c                delay_us2
                0x000000000824a39c                TIMER_InterruptClear
                0x000000000824a414                TIMER_Enable
                0x000000000824a460                TIMER_EnableWithMode
                0x000000000824a4e8                TIMER_EnableWithCfg
                0x000000000824ac98                TIMER_Disable
                0x000000000824ae58                TIMER_Init
 .text          0x000000000824b07c     0x3bec /home/vboxuser/Desktop/topst/cr5-bsp/sources/build/tcc805x/gcc/tcc805x-freertos-debug/obj/uart.o
                0x000000000824de34                UART_Open
                0x000000000824dfd0                UART_Close
                0x000000000824e1a4                UART_Read
                0x000000000824e334                UART_Write
                0x000000000824e4a0                UART_GetData
                0x000000000824e654                UART_GetChar
                0x000000000824e7c8                UART_PutChar
                0x000000000824e8cc                UART_SetLineControlReg
                0x000000000824e954                UART_SetInterruptClearReg
                0x000000000824e98c                UART_SetErrorClearReg
                0x000000000824e9c4                UART_GetReceiveStatusReg
                0x000000000824e9fc                UART_GetRawInterruptStatusReg
                0x000000000824ea34                UART_Init
                0x000000000824eaec                UART_ISR
 .text          0x000000000824ec68     0x1238 /home/vboxuser/Desktop/topst/cr5-bsp/sources/build/tcc805x/gcc/tcc805x-freertos-debug/obj/udma.o
                0x000000000824ec68                UDMA_InterruptEnable
                0x000000000824ed64                UDMA_InterruptDisable
                0x000000000824ee60                UDMA_SetAddrIncrement
                0x000000000824ef58                UDMA_SetTransferWidth
                0x000000000824f050                UDMA_SetBurstSize
                0x000000000824f148                UDMA_SetTransferSize
                0x000000000824f220                UDMA_SetFlowControl
                0x000000000824f2f8                UDMA_Reset
                0x000000000824f378                UDMA_SetPeri
                0x000000000824f42c                UDMA_GetTransferSize
                0x000000000824f750                UDMA_ChannelEnable
                0x000000000824f818                UDMA_ChannelDisable
                0x000000000824f8e0                UDMA_SetSrcAddr
                0x000000000824f988                UDMA_SetDestAddr
                0x000000000824fa30                UDMA_SetlliAddr
                0x000000000824fad8                UDMA_GetDestAddr
                0x000000000824fb88                UDMA_TransferMem2Mem
                0x000000000824fc70                UDMA_Init
 .text          0x000000000824fea0      0x69c /home/vboxuser/Desktop/topst/cr5-bsp/sources/build/tcc805x/gcc/tcc805x-freertos-debug/obj/wdt.o
                0x0000000008250154                WDT_KickPing
                0x0000000008250174                WDT_ResetSystem
                0x00000000082501f8                WDT_Stop
                0x000000000825027c                WDT_SmMode
                0x0000000008250430                WDT_Init
 .text          0x000000000825053c      0x530 /home/vboxuser/Desktop/topst/cr5-bsp/sources/build/tcc805x/gcc/tcc805x-freertos-debug/obj/dse.o
                0x000000000825053c                DSE_WriteLock
                0x0000000008250870                DSE_Deinit
                0x00000000082508cc                DSE_Init
                0x0000000008250a3c                DSE_GetGrpSts
 .text          0x0000000008250a6c      0xc5c /home/vboxuser/Desktop/topst/cr5-bsp/sources/build/tcc805x/gcc/tcc805x-freertos-debug/obj/midf.o
                0x0000000008250a6c                MIDF_FilterInitialize
                0x0000000008250d08                MIDF_RegisterFilterRegion
                0x000000000825104c                MIDF_UnregisterFilterRegion
                0x0000000008251438                MIDF_RegisterWriteLockSafetyMechanism
                0x0000000008251534                MIDF_ConfigSoftFaultCheckSafetyMechanism
 .text          0x00000000082516c8      0xa08 /home/vboxuser/Desktop/topst/cr5-bsp/sources/build/tcc805x/gcc/tcc805x-freertos-debug/obj/pmu_reset.o
                0x00000000082516c8                PMU_ResetPreCfg
                0x000000000825184c                PMU_ResetSDMRstMskCfg
                0x0000000008251994                PMU_ResetTRVCRstMskCfg
                0x0000000008251ae8                PMU_ResetColdReset
                0x0000000008251b10                PMU_ResetAPSystemReboot
                0x0000000008251fb0                PMU_ResetSCWDTInit
 .text          0x00000000082520d0     0x3668 /home/vboxuser/Desktop/topst/cr5-bsp/sources/build/tcc805x/gcc/tcc805x-freertos-debug/obj/tasks.o
                0x00000000082520d0                xTaskCreateStatic
                0x00000000082521b8                xTaskCreate
                0x0000000008252614                vTaskDelete
                0x0000000008252768                vTaskDelayUntil
                0x00000000082528a8                vTaskDelay
                0x0000000008252918                eTaskGetState
                0x0000000008252a64                uxTaskPriorityGet
                0x0000000008252abc                uxTaskPriorityGetFromISR
                0x0000000008252b20                vTaskPrioritySet
                0x0000000008252d38                vTaskSuspend
                0x0000000008252f18                vTaskResume
                0x0000000008253028                xTaskResumeFromISR
                0x0000000008253160                vTaskStartScheduler
                0x000000000825327c                vTaskEndScheduler
                0x00000000082532a4                vTaskSuspendAll
                0x00000000082532dc                xTaskResumeAll
                0x00000000082534e4                xTaskGetTickCount
                0x0000000008253518                xTaskGetTickCountFromISR
                0x0000000008253558                uxTaskGetNumberOfTasks
                0x000000000825357c                pcTaskGetName
                0x0000000008253788                xTaskGetHandle
                0x00000000082538bc                xTaskCatchUpTicks
                0x0000000008253928                xTaskAbortDelay
                0x0000000008253a6c                xTaskIncrementTick
                0x0000000008253d14                vTaskSwitchContext
                0x0000000008253ef0                vTaskPlaceOnEventList
                0x0000000008253f48                vTaskPlaceOnUnorderedEventList
                0x0000000008253fd4                vTaskPlaceOnEventListRestricted
                0x0000000008254044                xTaskRemoveFromEventList
                0x0000000008254180                vTaskRemoveFromUnorderedEventList
                0x0000000008254294                vTaskSetTimeOutState
                0x00000000082542f0                vTaskInternalSetTimeOutState
                0x0000000008254338                xTaskCheckForTimeOut
                0x000000000825448c                vTaskMissedYield
                0x0000000008254734                xTaskGetCurrentTaskHandle
                0x0000000008254764                xTaskGetSchedulerState
                0x00000000082547cc                xTaskPriorityInherit
                0x0000000008254968                xTaskPriorityDisinherit
                0x0000000008254ab4                vTaskPriorityDisinheritAfterTimeout
                0x0000000008254c54                uxTaskResetEventItemValue
                0x0000000008254cac                pvTaskIncrementMutexHeldCount
                0x0000000008254cfc                ulTaskNotifyTake
                0x0000000008254de8                xTaskNotifyWait
                0x0000000008254f18                xTaskGenericNotify
                0x0000000008255110                xTaskGenericNotifyFromISR
                0x0000000008255368                vTaskNotifyGiveFromISR
                0x00000000082554f0                xTaskNotifyStateClear
                0x0000000008255570                ulTaskNotifyValueClear
 .text          0x0000000008255738      0x294 /home/vboxuser/Desktop/topst/cr5-bsp/sources/build/tcc805x/gcc/tcc805x-freertos-debug/obj/list.o
                0x0000000008255738                vListInitialise
                0x00000000082557a0                vListInitialiseItem
                0x00000000082557cc                vListInsertEnd
                0x0000000008255854                vListInsert
                0x000000000825592c                uxListRemove
 .text          0x00000000082559cc     0x2278 /home/vboxuser/Desktop/topst/cr5-bsp/sources/build/tcc805x/gcc/tcc805x-freertos-debug/obj/queue.o
                0x00000000082559cc                xQueueGenericReset
                0x0000000008255af8                xQueueGenericCreateStatic
                0x0000000008255c00                xQueueGenericCreate
                0x0000000008255d8c                xQueueCreateMutex
                0x0000000008255de0                xQueueCreateMutexStatic
                0x0000000008255e40                xQueueGetMutexHolder
                0x0000000008255e98                xQueueGetMutexHolderFromISR
                0x0000000008255ef4                xQueueGiveMutexRecursive
                0x0000000008255f90                xQueueTakeMutexRecursive
                0x0000000008256034                xQueueCreateCountingSemaphoreStatic
                0x00000000082560b8                xQueueCreateCountingSemaphore
                0x000000000825612c                xQueueGenericSend
                0x0000000008256400                xQueueGenericSendFromISR
                0x00000000082565e4                xQueueGiveFromISR
                0x000000000825677c                xQueueReceive
                0x00000000082569c4                xQueueSemaphoreTake
                0x0000000008256c74                xQueuePeek
                0x0000000008256ec4                xQueueReceiveFromISR
                0x000000000825700c                xQueuePeekFromISR
                0x00000000082570ec                uxQueueMessagesWaiting
                0x0000000008257130                uxQueueSpacesAvailable
                0x0000000008257188                uxQueueMessagesWaitingFromISR
                0x00000000082571d0                vQueueDelete
                0x0000000008257624                xQueueIsQueueEmptyFromISR
                0x00000000082576d8                xQueueIsQueueFullFromISR
                0x0000000008257740                vQueueAddToRegistry
                0x00000000082577d4                pcQueueGetName
                0x0000000008257860                vQueueUnregisterQueue
                0x00000000082578fc                vQueueWaitForMessageRestricted
                0x00000000082579a0                xQueueCreateSet
                0x00000000082579d4                xQueueAddToSet
                0x0000000008257a4c                xQueueRemoveFromSet
                0x0000000008257ad0                xQueueSelectFromSet
                0x0000000008257b10                xQueueSelectFromSetFromISR
 .text          0x0000000008257c44      0x8e4 /home/vboxuser/Desktop/topst/cr5-bsp/sources/build/tcc805x/gcc/tcc805x-freertos-debug/obj/event_groups.o
                0x0000000008257c44                xEventGroupCreateStatic
                0x0000000008257cc8                xEventGroupCreate
                0x0000000008257d24                xEventGroupSync
                0x0000000008257f0c                xEventGroupWaitBits
                0x0000000008258144                xEventGroupClearBits
                0x00000000082581c4                xEventGroupGetBitsFromISR
                0x0000000008258208                xEventGroupSetBits
                0x00000000082583bc                vEventGroupDelete
                0x0000000008258450                vEventGroupSetBitsCallback
                0x000000000825847c                vEventGroupClearBitsCallback
 .text          0x0000000008258528      0xfe0 /home/vboxuser/Desktop/topst/cr5-bsp/sources/build/tcc805x/gcc/tcc805x-freertos-debug/obj/timers.o
                0x0000000008258528                xTimerCreateTimerTask
                0x00000000082585fc                xTimerCreate
                0x0000000008258670                xTimerCreateStatic
                0x00000000082587b8                xTimerGenericCommand
                0x00000000082588ac                xTimerGetTimerDaemonTaskHandle
                0x00000000082588e8                xTimerGetPeriod
                0x0000000008258928                vTimerSetReloadMode
                0x00000000082589a8                uxTimerGetReloadMode
                0x0000000008258a10                xTimerGetExpiryTime
                0x0000000008258a58                pcTimerGetName
                0x0000000008259318                xTimerIsTimerActive
                0x0000000008259380                pvTimerGetTimerID
                0x00000000082593cc                vTimerSetTimerID
                0x0000000008259418                xTimerPendFunctionCallFromISR
                0x0000000008259484                xTimerPendFunctionCall
 .text          0x0000000008259508     0x126c /home/vboxuser/Desktop/topst/cr5-bsp/sources/build/tcc805x/gcc/tcc805x-freertos-debug/obj/stream_buffer.o
                0x0000000008259508                xStreamBufferGenericCreate
                0x00000000082595e0                xStreamBufferGenericCreateStatic
                0x0000000008259704                vStreamBufferDelete
                0x0000000008259768                xStreamBufferReset
                0x0000000008259808                xStreamBufferSetTriggerLevel
                0x0000000008259890                xStreamBufferSpacesAvailable
                0x000000000825992c                xStreamBufferBytesAvailable
                0x0000000008259970                xStreamBufferSend
                0x0000000008259b58                xStreamBufferSendFromISR
                0x0000000008259d58                xStreamBufferReceive
                0x0000000008259efc                xStreamBufferNextMessageLengthBytes
                0x0000000008259fbc                xStreamBufferReceiveFromISR
                0x000000000825a18c                xStreamBufferIsEmpty
                0x000000000825a1fc                xStreamBufferIsFull
                0x000000000825a288                xStreamBufferSendCompletedFromISR
                0x000000000825a324                xStreamBufferReceiveCompletedFromISR
 .text          0x000000000825a774      0x8b8 /home/vboxuser/Desktop/topst/cr5-bsp/sources/build/tcc805x/gcc/tcc805x-freertos-debug/obj/port.o
                0x000000000825a774                pxPortInitialiseStack
                0x000000000825aa08                xPortStartScheduler
                0x000000000825ab4c                vPortEndScheduler
                0x000000000825ab7c                vPortEnterCritical
                0x000000000825abd8                vPortExitCritical
                0x000000000825ac64                FreeRTOS_Tick_Handler
                0x000000000825acf8                vPortTaskUsesFPU
                0x000000000825ad20                vPortClearInterruptMask
                0x000000000825ad7c                ulPortSetInterruptMask
                0x000000000825adf4                vPortValidateInterruptPriority
                0x000000000825ae28                vApplicationGetIdleTaskMemory
                0x000000000825ae7c                vInitialiseTimerForRunTimeStats
                0x000000000825ae94                vApplicationStackOverflowHook
                0x000000000825aeb8                vApplicationGetTimerTaskMemory
                0x000000000825af0c                vConfigureTickInterrupt
                0x000000000825af94                vClearTickInterrupt
                0x000000000825afac                vApplicationFPUSafeIRQHandler
                0x000000000825afd0                xPortGetInterruptNestingCount
                0x000000000825aff4                heap_init
 .text          0x000000000825b02c      0x8ec /home/vboxuser/Desktop/topst/cr5-bsp/sources/build/tcc805x/gcc/tcc805x-freertos-debug/obj/heap_5.o
                0x000000000825b02c                pvPortMalloc
                0x000000000825b284                vPortFree
                0x000000000825b3ac                xPortGetFreeHeapSize
                0x000000000825b3d0                xPortGetMinimumEverFreeHeapSize
                0x000000000825b54c                vPortDefineHeapRegions
                0x000000000825b7c4                vPortGetHeapStats
 .text          0x000000000825b918      0x32c /home/vboxuser/Desktop/topst/cr5-bsp/sources/build/tcc805x/gcc/tcc805x-freertos-debug/obj/sal_api.o
                0x000000000825b918                SAL_RegisterFunction
 .text          0x000000000825bc44     0x2714 /home/vboxuser/Desktop/topst/cr5-bsp/sources/build/tcc805x/gcc/tcc805x-freertos-debug/obj/sal_freertos_impl.o
                0x000000000825defc                SAL_Init
 .text          0x000000000825e358        0x0 /home/vboxuser/Desktop/topst/cr5-bsp/sources/build/tcc805x/gcc/tcc805x-freertos-debug/obj/vector.o
 .text          0x000000000825e358        0x4 /home/vboxuser/Desktop/topst/cr5-bsp/sources/build/tcc805x/gcc/tcc805x-freertos-debug/obj/vfp_init.o
                0x000000000825e358                vfp_init
 .text          0x000000000825e35c        0xc /home/vboxuser/Desktop/topst/cr5-bsp/sources/build/tcc805x/gcc/tcc805x-freertos-debug/obj/arm_a.o
                0x000000000825e35c                ARM_DSB
 *fill*         0x000000000825e368        0x8 
 .text          0x000000000825e370      0x270 /home/vboxuser/Desktop/topst/cr5-bsp/sources/build/tcc805x/gcc/tcc805x-freertos-debug/obj/portASM.o
                0x000000000825e370                FreeRTOS_SWI_Handler
                0x000000000825e3f8                vPortRestoreTaskContext
                0x000000000825e450                FreeRTOS_IRQ_Handler
                0x000000000825e5a0                vApplicationIRQHandler
 .text          0x000000000825e5e0       0xb8 /home/vboxuser/Desktop/topst/cr5-bsp/sources/build/tcc805x/gcc/tcc805x-freertos-debug/obj/freertos.o
                0x000000000825e5e0                FreeRTOS_ARM_ExceptUndefInstrHndlr
                0x000000000825e5f4                FreeRTOS_ARM_ExceptSwiHndlr
                0x000000000825e5f8                FreeRTOS_ARM_ExceptPrefetchAbortHndlr
                0x000000000825e610                FreeRTOS_ARM_ExceptDataAbortHndlr
                0x000000000825e640                FreeRTOS_ARM_ExceptIrqHndlr
                0x000000000825e644                FreeRTOS_ARM_ExceptFiqHndlr
                0x000000000825e65c                FreeRTOS_ARM_DRegCntGet
                0x000000000825e664                CPU_WaitForEvent
                0x000000000825e670                __DSB
                0x000000000825e67c                CPU_SR_Save
                0x000000000825e68c                CPU_SR_Restore
 .text          0x000000000825e698       0x18 /home/vboxuser/Desktop/topst/cr5-bsp/sources/build/tcc805x/gcc/tcc805x-freertos-debug/obj/sal.o
                0x000000000825e698                ARM_ExceptUndefInstrHndlr
                0x000000000825e69c                ARM_ExceptSwiHndlr
                0x000000000825e6a0                ARM_ExceptPrefetchAbortHndlr
                0x000000000825e6a4                ARM_ExceptDataAbortHndlr
                0x000000000825e6a8                ARM_ExceptIrqHndlr
                0x000000000825e6ac                ARM_ExceptFiqHndlr
 .text          0x000000000825e6b0       0x30 /home/vboxuser/Desktop/topst/buildtools/gcc-linaro-7.2.1-2017.11-x86_64_arm-eabi/arm-eabi/libc/usr/lib/libc.a(lib_a-atoi.o)
                0x000000000825e6b0                atoi
                0x000000000825e6c8                _atoi_r
 .text          0x000000000825e6e0       0x30 /home/vboxuser/Desktop/topst/buildtools/gcc-linaro-7.2.1-2017.11-x86_64_arm-eabi/arm-eabi/libc/usr/lib/libc.a(lib_a-atol.o)
                0x000000000825e6e0                atol
                0x000000000825e6f8                _atol_r
 .text          0x000000000825e710      0x104 /home/vboxuser/Desktop/topst/buildtools/gcc-linaro-7.2.1-2017.11-x86_64_arm-eabi/arm-eabi/libc/usr/lib/libc.a(lib_a-memcmp.o)
                0x000000000825e710                memcmp
 .text          0x000000000825e814      0x110 /home/vboxuser/Desktop/topst/buildtools/gcc-linaro-7.2.1-2017.11-x86_64_arm-eabi/arm-eabi/libc/usr/lib/libc.a(lib_a-memcpy-stub.o)
                0x000000000825e814                memcpy
 .text          0x000000000825e924      0x114 /home/vboxuser/Desktop/topst/buildtools/gcc-linaro-7.2.1-2017.11-x86_64_arm-eabi/arm-eabi/libc/usr/lib/libc.a(lib_a-memset.o)
                0x000000000825e924                memset
 .text          0x000000000825ea38      0x188 /home/vboxuser/Desktop/topst/buildtools/gcc-linaro-7.2.1-2017.11-x86_64_arm-eabi/arm-eabi/libc/usr/lib/libc.a(lib_a-snprintf.o)
                0x000000000825ea38                _snprintf_r
                0x000000000825eaf4                snprintf
 .text          0x000000000825ebc0       0x60 /home/vboxuser/Desktop/topst/buildtools/gcc-linaro-7.2.1-2017.11-x86_64_arm-eabi/arm-eabi/libc/usr/lib/libc.a(lib_a-strlen-stub.o)
                0x000000000825ebc0                strlen
 .text          0x000000000825ec20      0x100 /home/vboxuser/Desktop/topst/buildtools/gcc-linaro-7.2.1-2017.11-x86_64_arm-eabi/arm-eabi/libc/usr/lib/libc.a(lib_a-strncmp.o)
                0x000000000825ec20                strncmp
 .text          0x000000000825ed20       0xe0 /home/vboxuser/Desktop/topst/buildtools/gcc-linaro-7.2.1-2017.11-x86_64_arm-eabi/arm-eabi/libc/usr/lib/libc.a(lib_a-strncpy.o)
                0x000000000825ed20                strncpy
 .text          0x000000000825ee00       0x5c /home/vboxuser/Desktop/topst/buildtools/gcc-linaro-7.2.1-2017.11-x86_64_arm-eabi/arm-eabi/libc/usr/lib/libc.a(lib_a-strnlen.o)
                0x000000000825ee00                strnlen
 .text          0x000000000825ee5c      0x27c /home/vboxuser/Desktop/topst/buildtools/gcc-linaro-7.2.1-2017.11-x86_64_arm-eabi/arm-eabi/libc/usr/lib/libc.a(lib_a-strtol.o)
                0x000000000825f018                _strtol_r
                0x000000000825f054                strtol_l
                0x000000000825f08c                strtol
 .text          0x000000000825f0d8      0x28c /home/vboxuser/Desktop/topst/buildtools/gcc-linaro-7.2.1-2017.11-x86_64_arm-eabi/arm-eabi/libc/usr/lib/libc.a(lib_a-strtoul.o)
                0x000000000825f2a4                _strtoul_r
                0x000000000825f2e0                strtoul_l
                0x000000000825f318                strtoul
 .text          0x000000000825f364     0xb4c8 /home/vboxuser/Desktop/topst/buildtools/gcc-linaro-7.2.1-2017.11-x86_64_arm-eabi/arm-eabi/libc/usr/lib/libc.a(lib_a-svfprintf.o)
                0x0000000008266668                _svfprintf_r
 .text          0x000000000826a82c      0x134 /home/vboxuser/Desktop/topst/buildtools/gcc-linaro-7.2.1-2017.11-x86_64_arm-eabi/arm-eabi/libc/usr/lib/libc.a(lib_a-wcrtomb.o)
                0x000000000826a82c                _wcrtomb_r
                0x000000000826a8c4                wcrtomb
 .text          0x000000000826a960       0x5c /home/vboxuser/Desktop/topst/buildtools/gcc-linaro-7.2.1-2017.11-x86_64_arm-eabi/arm-eabi/libc/usr/lib/libc.a(lib_a-wcsrtombs.o)
                0x000000000826a960                _wcsrtombs_r
                0x000000000826a984                wcsrtombs
 *fill*         0x000000000826a9bc        0x4 
 .text          0x000000000826a9c0     0x17dc /home/vboxuser/Desktop/topst/buildtools/gcc-linaro-7.2.1-2017.11-x86_64_arm-eabi/arm-eabi/libc/usr/lib/libc.a(lib_a-dtoa.o)
                0x000000000826aba8                _dtoa_r
 .text          0x000000000826c19c      0x3dc /home/vboxuser/Desktop/topst/buildtools/gcc-linaro-7.2.1-2017.11-x86_64_arm-eabi/arm-eabi/libc/usr/lib/libc.a(lib_a-freer.o)
                0x000000000826c19c                _malloc_trim_r
                0x000000000826c29c                _free_r
 .text          0x000000000826c578        0x0 /home/vboxuser/Desktop/topst/buildtools/gcc-linaro-7.2.1-2017.11-x86_64_arm-eabi/arm-eabi/libc/usr/lib/libc.a(lib_a-impure.o)
 .text          0x000000000826c578      0xd0c /home/vboxuser/Desktop/topst/buildtools/gcc-linaro-7.2.1-2017.11-x86_64_arm-eabi/arm-eabi/libc/usr/lib/libc.a(lib_a-locale.o)
                0x000000000826c60c                __loadlocale
                0x000000000826ce44                __get_locale_env
                0x000000000826ced8                _setlocale_r
                0x000000000826d214                __locale_mb_cur_max
                0x000000000826d23c                __locale_ctype_ptr_l
                0x000000000826d244                __locale_ctype_ptr
                0x000000000826d26c                setlocale
 .text          0x000000000826d284       0x58 /home/vboxuser/Desktop/topst/buildtools/gcc-linaro-7.2.1-2017.11-x86_64_arm-eabi/arm-eabi/libc/usr/lib/libc.a(lib_a-localeconv.o)
                0x000000000826d284                __localeconv_l
                0x000000000826d28c                _localeconv_r
                0x000000000826d2b4                localeconv
 .text          0x000000000826d2dc      0x760 /home/vboxuser/Desktop/topst/buildtools/gcc-linaro-7.2.1-2017.11-x86_64_arm-eabi/arm-eabi/libc/usr/lib/libc.a(lib_a-mallocr.o)
                0x000000000826d2dc                _malloc_r
 .text          0x000000000826da3c      0x744 /home/vboxuser/Desktop/topst/buildtools/gcc-linaro-7.2.1-2017.11-x86_64_arm-eabi/arm-eabi/libc/usr/lib/libc.a(lib_a-mbtowc_r.o)
                0x000000000826da3c                _mbtowc_r
                0x000000000826da70                __ascii_mbtowc
                0x000000000826dab4                __utf8_mbtowc
                0x000000000826ddbc                __sjis_mbtowc
                0x000000000826de90                __eucjp_mbtowc
                0x000000000826dfc8                __jis_mbtowc
 .text          0x000000000826e180      0x110 /home/vboxuser/Desktop/topst/buildtools/gcc-linaro-7.2.1-2017.11-x86_64_arm-eabi/arm-eabi/libc/usr/lib/libc.a(lib_a-memchr-stub.o)
                0x000000000826e180                memchr
 .text          0x000000000826e290        0x8 /home/vboxuser/Desktop/topst/buildtools/gcc-linaro-7.2.1-2017.11-x86_64_arm-eabi/arm-eabi/libc/usr/lib/libc.a(lib_a-mlock.o)
                0x000000000826e290                __malloc_lock
                0x000000000826e294                __malloc_unlock
 .text          0x000000000826e298      0xdb8 /home/vboxuser/Desktop/topst/buildtools/gcc-linaro-7.2.1-2017.11-x86_64_arm-eabi/arm-eabi/libc/usr/lib/libc.a(lib_a-mprec.o)
                0x000000000826e298                _Balloc
                0x000000000826e324                _Bfree
                0x000000000826e340                __multadd
                0x000000000826e41c                __s2b
                0x000000000826e500                __hi0bits
                0x000000000826e558                __lo0bits
                0x000000000826e5f8                __i2b
                0x000000000826e61c                __multiply
                0x000000000826e81c                __pow5mult
                0x000000000826e920                __lshift
                0x000000000826ea14                __mcmp
                0x000000000826ea74                __mdiff
                0x000000000826ebfc                __ulp
                0x000000000826ec64                __b2d
                0x000000000826ed44                __d2b
                0x000000000826ee5c                __ratio
                0x000000000826eeec                _mprec_log10
                0x000000000826ef4c                __copybits
                0x000000000826efd8                __any_on
 .text          0x000000000826f050       0x98 /home/vboxuser/Desktop/topst/buildtools/gcc-linaro-7.2.1-2017.11-x86_64_arm-eabi/arm-eabi/libc/usr/lib/libc.a(lib_a-s_frexp.o)
                0x000000000826f050                frexp
 .text          0x000000000826f0e8       0x3c /home/vboxuser/Desktop/topst/buildtools/gcc-linaro-7.2.1-2017.11-x86_64_arm-eabi/arm-eabi/libc/usr/lib/libc.a(lib_a-sbrkr.o)
                0x000000000826f0e8                _sbrk_r
 .text          0x000000000826f124       0x70 /home/vboxuser/Desktop/topst/buildtools/gcc-linaro-7.2.1-2017.11-x86_64_arm-eabi/arm-eabi/libc/usr/lib/libc.a(lib_a-strcasecmp.o)
                0x000000000826f124                strcasecmp
 .text          0x000000000826f194       0x74 /home/vboxuser/Desktop/topst/buildtools/gcc-linaro-7.2.1-2017.11-x86_64_arm-eabi/arm-eabi/libc/usr/lib/libc.a(lib_a-strcat.o)
                0x000000000826f194                strcat
 .text          0x000000000826f208      0x184 /home/vboxuser/Desktop/topst/buildtools/gcc-linaro-7.2.1-2017.11-x86_64_arm-eabi/arm-eabi/libc/usr/lib/libc.a(lib_a-strchr.o)
                0x000000000826f208                strchr
 .text          0x000000000826f38c      0x224 /home/vboxuser/Desktop/topst/buildtools/gcc-linaro-7.2.1-2017.11-x86_64_arm-eabi/arm-eabi/libc/usr/lib/libc.a(lib_a-strcmp.o)
                0x000000000826f38c                strcmp
 .text          0x000000000826f5b0       0xf0 /home/vboxuser/Desktop/topst/buildtools/gcc-linaro-7.2.1-2017.11-x86_64_arm-eabi/arm-eabi/libc/usr/lib/libc.a(lib_a-strcpy.o)
                0x000000000826f5b0                strcpy
 .text          0x000000000826f6a0       0x54 /home/vboxuser/Desktop/topst/buildtools/gcc-linaro-7.2.1-2017.11-x86_64_arm-eabi/arm-eabi/libc/usr/lib/libc.a(lib_a-strlcpy.o)
                0x000000000826f6a0                strlcpy
 .text          0x000000000826f6f4       0x94 /home/vboxuser/Desktop/topst/buildtools/gcc-linaro-7.2.1-2017.11-x86_64_arm-eabi/arm-eabi/libc/usr/lib/libc.a(lib_a-strncasecmp.o)
                0x000000000826f6f4                strncasecmp
 .text          0x000000000826f788     0x9c7c /home/vboxuser/Desktop/topst/buildtools/gcc-linaro-7.2.1-2017.11-x86_64_arm-eabi/arm-eabi/libc/usr/lib/libc.a(lib_a-svfiprintf.o)
                0x000000000827685c                __ssprint_r
                0x00000000082769ec                _svfiprintf_r
 .text          0x0000000008279404      0xa0c /home/vboxuser/Desktop/topst/buildtools/gcc-linaro-7.2.1-2017.11-x86_64_arm-eabi/arm-eabi/libc/usr/lib/libc.a(lib_a-syscalls.o)
                0x00000000082794bc                initialise_monitor_handles
                0x000000000827956c                _swiread
                0x00000000082795b0                _read
                0x0000000008279678                _swilseek
                0x0000000008279774                _lseek
                0x0000000008279794                _swiwrite
                0x00000000082797d8                _write
                0x00000000082798a4                _swiopen
                0x00000000082799a8                _open
                0x00000000082799dc                _swiclose
                0x0000000008279a50                _close
                0x0000000008279a70                _kill
                0x0000000008279aa8                _exit
                0x0000000008279ad0                _getpid
                0x0000000008279ad8                _sbrk
                0x0000000008279b38                _fstat
                0x0000000008279b6c                _stat
                0x0000000008279bd8                _link
                0x0000000008279be0                _unlink
                0x0000000008279c38                _raise
                0x0000000008279c3c                _gettimeofday
                0x0000000008279c84                _times
                0x0000000008279cc0                _isatty
                0x0000000008279d10                _system
                0x0000000008279da4                _rename
 .text          0x0000000008279e10      0x21c /home/vboxuser/Desktop/topst/buildtools/gcc-linaro-7.2.1-2017.11-x86_64_arm-eabi/arm-eabi/libc/usr/lib/libc.a(lib_a-wcsnrtombs.o)
                0x0000000008279e10                _wcsnrtombs_l
                0x0000000008279f8c                _wcsnrtombs_r
                0x0000000008279fd4                wcsnrtombs
 .text          0x000000000827a02c      0x35c /home/vboxuser/Desktop/topst/buildtools/gcc-linaro-7.2.1-2017.11-x86_64_arm-eabi/arm-eabi/libc/usr/lib/libc.a(lib_a-wctomb_r.o)
                0x000000000827a02c                _wctomb_r
                0x000000000827a060                __ascii_wctomb
                0x000000000827a088                __utf8_wctomb
                0x000000000827a174                __sjis_wctomb
                0x000000000827a1fc                __eucjp_wctomb
                0x000000000827a2ac                __jis_wctomb
 .text          0x000000000827a388       0x98 /home/vboxuser/Desktop/topst/buildtools/gcc-linaro-7.2.1-2017.11-x86_64_arm-eabi/arm-eabi/libc/usr/lib/libc.a(lib_a-callocr.o)
                0x000000000827a388                _calloc_r
 .text          0x000000000827a420       0x10 /home/vboxuser/Desktop/topst/buildtools/gcc-linaro-7.2.1-2017.11-x86_64_arm-eabi/arm-eabi/libc/usr/lib/libc.a(lib_a-ctype_.o)
                0x000000000827a420                __set_ctype
 .text          0x000000000827a430       0x10 /home/vboxuser/Desktop/topst/buildtools/gcc-linaro-7.2.1-2017.11-x86_64_arm-eabi/arm-eabi/libc/usr/lib/libc.a(lib_a-errno.o)
                0x000000000827a430                __errno
 .text          0x000000000827a440      0x340 /home/vboxuser/Desktop/topst/buildtools/gcc-linaro-7.2.1-2017.11-x86_64_arm-eabi/arm-eabi/libc/usr/lib/libc.a(lib_a-findfp.o)
                0x000000000827a448                _cleanup_r
                0x000000000827a5b0                __sfmoreglue
                0x000000000827a600                __sfp
                0x000000000827a6f4                _cleanup
                0x000000000827a718                __sinit
                0x000000000827a728                __sfp_lock_acquire
                0x000000000827a72c                __sfp_lock_release
                0x000000000827a730                __sinit_lock_acquire
                0x000000000827a734                __sinit_lock_release
                0x000000000827a738                __fp_lock_all
                0x000000000827a75c                __fp_unlock_all
 .text          0x000000000827a780       0xf8 /home/vboxuser/Desktop/topst/buildtools/gcc-linaro-7.2.1-2017.11-x86_64_arm-eabi/arm-eabi/libc/usr/lib/libc.a(lib_a-fwalk.o)
                0x000000000827a780                _fwalk
                0x000000000827a7f8                _fwalk_reent
 .text          0x000000000827a878       0xec /home/vboxuser/Desktop/topst/buildtools/gcc-linaro-7.2.1-2017.11-x86_64_arm-eabi/arm-eabi/libc/usr/lib/libc.a(lib_a-getenv_r.o)
                0x000000000827a878                _findenv_r
                0x000000000827a948                _getenv_r
 .text          0x000000000827a964      0x140 /home/vboxuser/Desktop/topst/buildtools/gcc-linaro-7.2.1-2017.11-x86_64_arm-eabi/arm-eabi/libc/usr/lib/libc.a(lib_a-memmove.o)
                0x000000000827a964                memmove
 .text          0x000000000827aaa4      0x4dc /home/vboxuser/Desktop/topst/buildtools/gcc-linaro-7.2.1-2017.11-x86_64_arm-eabi/arm-eabi/libc/usr/lib/libc.a(lib_a-reallocr.o)
                0x000000000827aaa4                _realloc_r
 .text          0x000000000827af80      0x124 /home/vboxuser/Desktop/topst/buildtools/gcc-linaro-7.2.1-2017.11-x86_64_arm-eabi/arm-eabi/libc/usr/lib/libc.a(lib_a-reent.o)
                0x000000000827af80                cleanup_glue
                0x000000000827afb4                _reclaim_reent
 .text          0x000000000827b0a4       0xd8 /home/vboxuser/Desktop/topst/buildtools/gcc-linaro-7.2.1-2017.11-x86_64_arm-eabi/arm-eabi/libc/usr/lib/libc.a(lib_a-stdio.o)
                0x000000000827b0a4                __sread
                0x000000000827b0d8                __seofread
                0x000000000827b0e0                __swrite
                0x000000000827b138                __sseek
                0x000000000827b168                __sclose
 .text          0x000000000827b17c       0x48 /home/vboxuser/Desktop/topst/buildtools/gcc-linaro-7.2.1-2017.11-x86_64_arm-eabi/arm-eabi/libc/usr/lib/libc.a(lib_a-writer.o)
                0x000000000827b17c                _write_r
 .text          0x000000000827b1c4       0x3c /home/vboxuser/Desktop/topst/buildtools/gcc-linaro-7.2.1-2017.11-x86_64_arm-eabi/arm-eabi/libc/usr/lib/libc.a(lib_a-closer.o)
                0x000000000827b1c4                _close_r
 .text          0x000000000827b200        0x0 /home/vboxuser/Desktop/topst/buildtools/gcc-linaro-7.2.1-2017.11-x86_64_arm-eabi/arm-eabi/libc/usr/lib/libc.a(lib_a-environ.o)
 .text          0x000000000827b200        0x8 /home/vboxuser/Desktop/topst/buildtools/gcc-linaro-7.2.1-2017.11-x86_64_arm-eabi/arm-eabi/libc/usr/lib/libc.a(lib_a-envlock.o)
                0x000000000827b200                __env_lock
                0x000000000827b204                __env_unlock
 .text          0x000000000827b208      0x114 /home/vboxuser/Desktop/topst/buildtools/gcc-linaro-7.2.1-2017.11-x86_64_arm-eabi/arm-eabi/libc/usr/lib/libc.a(lib_a-fclose.o)
                0x000000000827b208                _fclose_r
                0x000000000827b308                fclose
 .text          0x000000000827b31c      0x2dc /home/vboxuser/Desktop/topst/buildtools/gcc-linaro-7.2.1-2017.11-x86_64_arm-eabi/arm-eabi/libc/usr/lib/libc.a(lib_a-fflush.o)
                0x000000000827b31c                __sflush_r
                0x000000000827b564                _fflush_r
                0x000000000827b5c0                fflush
 .text          0x000000000827b5f8       0x48 /home/vboxuser/Desktop/topst/buildtools/gcc-linaro-7.2.1-2017.11-x86_64_arm-eabi/arm-eabi/libc/usr/lib/libc.a(lib_a-lseekr.o)
                0x000000000827b5f8                _lseek_r
 .text          0x000000000827b640       0x48 /home/vboxuser/Desktop/topst/buildtools/gcc-linaro-7.2.1-2017.11-x86_64_arm-eabi/arm-eabi/libc/usr/lib/libc.a(lib_a-readr.o)
                0x000000000827b640                _read_r
 .text          0x000000000827b688      0x114 /home/vboxuser/Desktop/topst/buildtools/gcc-linaro-7.2.1-2017.11-x86_64_arm-eabi/arm-eabi/libc/usr/lib/libgcc.a(_udivsi3.o)
                0x000000000827b688                __udivsi3
                0x000000000827b688                __aeabi_uidiv
                0x000000000827b77c                __aeabi_uidivmod
 .text          0x000000000827b79c        0x4 /home/vboxuser/Desktop/topst/buildtools/gcc-linaro-7.2.1-2017.11-x86_64_arm-eabi/arm-eabi/libc/usr/lib/libgcc.a(_dvmd_tls.o)
                0x000000000827b79c                __aeabi_ldiv0
                0x000000000827b79c                __aeabi_idiv0
 .text          0x000000000827b7a0      0x424 /home/vboxuser/Desktop/topst/buildtools/gcc-linaro-7.2.1-2017.11-x86_64_arm-eabi/arm-eabi/libc/usr/lib/libgcc.a(_arm_addsubdf3.o)
                0x000000000827b7a0                __aeabi_drsub
                0x000000000827b7a8                __aeabi_dsub
                0x000000000827b7a8                __subdf3
                0x000000000827b7ac                __adddf3
                0x000000000827b7ac                __aeabi_dadd
                0x000000000827babc                __aeabi_ui2d
                0x000000000827babc                __floatunsidf
                0x000000000827bae0                __floatsidf
                0x000000000827bae0                __aeabi_i2d
                0x000000000827bb08                __extendsfdf2
                0x000000000827bb08                __aeabi_f2d
                0x000000000827bb50                __aeabi_ul2d
                0x000000000827bb50                __floatundidf
                0x000000000827bb64                __floatdidf
                0x000000000827bb64                __aeabi_l2d
 .text          0x000000000827bbc4      0x49c /home/vboxuser/Desktop/topst/buildtools/gcc-linaro-7.2.1-2017.11-x86_64_arm-eabi/arm-eabi/libc/usr/lib/libgcc.a(_arm_muldivdf3.o)
                0x000000000827bbc4                __aeabi_dmul
                0x000000000827bbc4                __muldf3
                0x000000000827be54                __aeabi_ddiv
                0x000000000827be54                __divdf3
 .text          0x000000000827c060      0x144 /home/vboxuser/Desktop/topst/buildtools/gcc-linaro-7.2.1-2017.11-x86_64_arm-eabi/arm-eabi/libc/usr/lib/libgcc.a(_arm_cmpdf2.o)
                0x000000000827c060                __gtdf2
                0x000000000827c060                __gedf2
                0x000000000827c068                __ltdf2
                0x000000000827c068                __ledf2
                0x000000000827c070                __cmpdf2
                0x000000000827c070                __eqdf2
                0x000000000827c070                __nedf2
                0x000000000827c0f8                __aeabi_cdrcmple
                0x000000000827c114                __aeabi_cdcmple
                0x000000000827c114                __aeabi_cdcmpeq
                0x000000000827c12c                __aeabi_dcmpeq
                0x000000000827c144                __aeabi_dcmplt
                0x000000000827c15c                __aeabi_dcmple
                0x000000000827c174                __aeabi_dcmpge
                0x000000000827c18c                __aeabi_dcmpgt
 .text          0x000000000827c1a4       0x38 /home/vboxuser/Desktop/topst/buildtools/gcc-linaro-7.2.1-2017.11-x86_64_arm-eabi/arm-eabi/libc/usr/lib/libgcc.a(_arm_unorddf2.o)
                0x000000000827c1a4                __aeabi_dcmpun
                0x000000000827c1a4                __unorddf2
 .text          0x000000000827c1dc       0x5c /home/vboxuser/Desktop/topst/buildtools/gcc-linaro-7.2.1-2017.11-x86_64_arm-eabi/arm-eabi/libc/usr/lib/libgcc.a(_arm_fixdfsi.o)
                0x000000000827c1dc                __fixdfsi
                0x000000000827c1dc                __aeabi_d2iz
 .text          0x000000000827c238       0x54 /home/vboxuser/Desktop/topst/buildtools/gcc-linaro-7.2.1-2017.11-x86_64_arm-eabi/arm-eabi/libc/usr/lib/libgcc.a(_arm_fixunsdfsi.o)
                0x000000000827c238                __fixunsdfsi
                0x000000000827c238                __aeabi_d2uiz
 .text          0x000000000827c28c      0x2ac /home/vboxuser/Desktop/topst/buildtools/gcc-linaro-7.2.1-2017.11-x86_64_arm-eabi/arm-eabi/libc/usr/lib/libgcc.a(_arm_addsubsf3.o)
                0x000000000827c28c                __aeabi_frsub
                0x000000000827c294                __subsf3
                0x000000000827c294                __aeabi_fsub
                0x000000000827c298                __aeabi_fadd
                0x000000000827c298                __addsf3
                0x000000000827c454                __aeabi_ui2f
                0x000000000827c454                __floatunsisf
                0x000000000827c45c                __aeabi_i2f
                0x000000000827c45c                __floatsisf
                0x000000000827c47c                __floatundisf
                0x000000000827c47c                __aeabi_ul2f
                0x000000000827c48c                __floatdisf
                0x000000000827c48c                __aeabi_l2f
 .text          0x000000000827c538      0x2f8 /home/vboxuser/Desktop/topst/buildtools/gcc-linaro-7.2.1-2017.11-x86_64_arm-eabi/arm-eabi/libc/usr/lib/libgcc.a(_arm_muldivsf3.o)
                0x000000000827c538                __mulsf3
                0x000000000827c538                __aeabi_fmul
                0x000000000827c6d0                __divsf3
                0x000000000827c6d0                __aeabi_fdiv
 .text          0x000000000827c830       0x54 /home/vboxuser/Desktop/topst/buildtools/gcc-linaro-7.2.1-2017.11-x86_64_arm-eabi/arm-eabi/libc/usr/lib/libgcc.a(_arm_fixunssfsi.o)
                0x000000000827c830                __aeabi_f2uiz
                0x000000000827c830                __fixunssfsi
 .text          0x000000000827c884       0x3c /home/vboxuser/Desktop/topst/buildtools/gcc-linaro-7.2.1-2017.11-x86_64_arm-eabi/arm-eabi/libc/usr/lib/libgcc.a(_aeabi_uldivmod.o)
                0x000000000827c884                __aeabi_uldivmod
 .text          0x000000000827c8c0      0x12c /home/vboxuser/Desktop/topst/buildtools/gcc-linaro-7.2.1-2017.11-x86_64_arm-eabi/arm-eabi/libc/usr/lib/libgcc.a(_udivmoddi4.o)
                0x000000000827c8c0                __udivmoddi4
 .text          0x000000000827c9ec       0x28 /home/vboxuser/Desktop/topst/buildtools/gcc-linaro-7.2.1-2017.11-x86_64_arm-eabi/arm-eabi/libc/usr/lib/libgcc.a(_clzdi2.o)
                0x000000000827c9ec                __clzdi2
 .text          0x000000000827ca14       0x48 /home/vboxuser/Desktop/topst/buildtools/gcc-linaro-7.2.1-2017.11-x86_64_arm-eabi/arm-eabi/libc/usr/lib/libgcc.a(_clzsi2.o)
                0x000000000827ca14                __clzsi2
 *fill*         0x000000000827ca5c        0x4 
 .text.__stub   0x000000000827ca60        0x8 linker stubs
                0x000000000827ca68                __TEXT_END__ = .
                0x000000000827ca68                . = ALIGN (0x4)

.rodata         0x000000000827ca68     0xcab8
                0x000000000827ca68                __RODATA_START__ = .
 *(.rodata)
 .rodata        0x000000000827ca68       0x35 /home/vboxuser/Desktop/topst/cr5-bsp/sources/build/tcc805x/gcc/tcc805x-freertos-debug/obj/main.o
 *fill*         0x000000000827ca9d        0x3 
 .rodata        0x000000000827caa0      0xb01 /home/vboxuser/Desktop/topst/cr5-bsp/sources/build/tcc805x/gcc/tcc805x-freertos-debug/obj/can_demo.o
 *fill*         0x000000000827d5a1        0x3 
 .rodata        0x000000000827d5a4      0x521 /home/vboxuser/Desktop/topst/cr5-bsp/sources/build/tcc805x/gcc/tcc805x-freertos-debug/obj/console.o
 *fill*         0x000000000827dac5        0x3 
 .rodata        0x000000000827dac8      0x101 /home/vboxuser/Desktop/topst/cr5-bsp/sources/build/tcc805x/gcc/tcc805x-freertos-debug/obj/fwug.o
 *fill*         0x000000000827dbc9        0x3 
 .rodata        0x000000000827dbcc      0x145 /home/vboxuser/Desktop/topst/cr5-bsp/sources/build/tcc805x/gcc/tcc805x-freertos-debug/obj/key_i2c.o
 *fill*         0x000000000827dd11        0x3 
 .rodata        0x000000000827dd14        0x7 /home/vboxuser/Desktop/topst/cr5-bsp/sources/build/tcc805x/gcc/tcc805x-freertos-debug/obj/system_monitoring.o
 *fill*         0x000000000827dd1b        0x1 
 .rodata        0x000000000827dd1c      0x12b /home/vboxuser/Desktop/topst/cr5-bsp/sources/build/tcc805x/gcc/tcc805x-freertos-debug/obj/bootctrl.o
 *fill*         0x000000000827de47        0x1 
 .rodata        0x000000000827de48       0x24 /home/vboxuser/Desktop/topst/cr5-bsp/sources/build/tcc805x/gcc/tcc805x-freertos-debug/obj/reset_demo.o
 .rodata        0x000000000827de6c      0x295 /home/vboxuser/Desktop/topst/cr5-bsp/sources/build/tcc805x/gcc/tcc805x-freertos-debug/obj/adc_test.o
 *fill*         0x000000000827e101        0x3 
 .rodata        0x000000000827e104      0x5af /home/vboxuser/Desktop/topst/cr5-bsp/sources/build/tcc805x/gcc/tcc805x-freertos-debug/obj/dse_test.o
 *fill*         0x000000000827e6b3        0x1 
 .rodata        0x000000000827e6b4       0xe9 /home/vboxuser/Desktop/topst/cr5-bsp/sources/build/tcc805x/gcc/tcc805x-freertos-debug/obj/fmu_test.o
 *fill*         0x000000000827e79d        0x3 
 .rodata        0x000000000827e7a0      0x1ba /home/vboxuser/Desktop/topst/cr5-bsp/sources/build/tcc805x/gcc/tcc805x-freertos-debug/obj/gdma_test.o
 *fill*         0x000000000827e95a        0x2 
 .rodata        0x000000000827e95c      0x1f6 /home/vboxuser/Desktop/topst/cr5-bsp/sources/build/tcc805x/gcc/tcc805x-freertos-debug/obj/gic_test.o
 *fill*         0x000000000827eb52        0x2 
 .rodata        0x000000000827eb54      0x279 /home/vboxuser/Desktop/topst/cr5-bsp/sources/build/tcc805x/gcc/tcc805x-freertos-debug/obj/gpio_test.o
 *fill*         0x000000000827edcd        0x3 
 .rodata        0x000000000827edd0      0xbcb /home/vboxuser/Desktop/topst/cr5-bsp/sources/build/tcc805x/gcc/tcc805x-freertos-debug/obj/gpsb_test.o
 *fill*         0x000000000827f99b        0x1 
 .rodata        0x000000000827f99c      0xb69 /home/vboxuser/Desktop/topst/cr5-bsp/sources/build/tcc805x/gcc/tcc805x-freertos-debug/obj/hsm_test.o
 *fill*         0x0000000008280505        0x3 
 .rodata        0x0000000008280508      0x441 /home/vboxuser/Desktop/topst/cr5-bsp/sources/build/tcc805x/gcc/tcc805x-freertos-debug/obj/i2c_test.o
 *fill*         0x0000000008280949        0x3 
 .rodata        0x000000000828094c       0xe6 /home/vboxuser/Desktop/topst/cr5-bsp/sources/build/tcc805x/gcc/tcc805x-freertos-debug/obj/ictc_test.o
 *fill*         0x0000000008280a32        0x2 
 .rodata        0x0000000008280a34       0xdb /home/vboxuser/Desktop/topst/cr5-bsp/sources/build/tcc805x/gcc/tcc805x-freertos-debug/obj/lin_test.o
 *fill*         0x0000000008280b0f        0x1 
 .rodata        0x0000000008280b10      0x126 /home/vboxuser/Desktop/topst/cr5-bsp/sources/build/tcc805x/gcc/tcc805x-freertos-debug/obj/pdm_test.o
 *fill*         0x0000000008280c36        0x2 
 .rodata        0x0000000008280c38      0x55f /home/vboxuser/Desktop/topst/cr5-bsp/sources/build/tcc805x/gcc/tcc805x-freertos-debug/obj/pmio_test.o
 *fill*         0x0000000008281197        0x1 
 .rodata        0x0000000008281198      0x4af /home/vboxuser/Desktop/topst/cr5-bsp/sources/build/tcc805x/gcc/tcc805x-freertos-debug/obj/timer_test.o
 *fill*         0x0000000008281647        0x1 
 .rodata        0x0000000008281648      0xa37 /home/vboxuser/Desktop/topst/cr5-bsp/sources/build/tcc805x/gcc/tcc805x-freertos-debug/obj/wdt_test.o
 *fill*         0x000000000828207f        0x1 
 .rodata        0x0000000008282080       0xde /home/vboxuser/Desktop/topst/cr5-bsp/sources/build/tcc805x/gcc/tcc805x-freertos-debug/obj/pwm_test.o
 *fill*         0x000000000828215e        0x2 
 .rodata        0x0000000008282160       0x8b /home/vboxuser/Desktop/topst/cr5-bsp/sources/build/tcc805x/gcc/tcc805x-freertos-debug/obj/Motor_System.o
 *fill*         0x00000000082821eb        0x1 
 .rodata        0x00000000082821ec       0x68 /home/vboxuser/Desktop/topst/cr5-bsp/sources/build/tcc805x/gcc/tcc805x-freertos-debug/obj/mptool.o
 .rodata        0x0000000008282254      0x1b3 /home/vboxuser/Desktop/topst/cr5-bsp/sources/build/tcc805x/gcc/tcc805x-freertos-debug/obj/ipc_os.o
 *fill*         0x0000000008282407        0x1 
 .rodata        0x0000000008282408       0xe2 /home/vboxuser/Desktop/topst/cr5-bsp/sources/build/tcc805x/gcc/tcc805x-freertos-debug/obj/ipc_buffer.o
 *fill*         0x00000000082824ea        0x2 
 .rodata        0x00000000082824ec      0x183 /home/vboxuser/Desktop/topst/cr5-bsp/sources/build/tcc805x/gcc/tcc805x-freertos-debug/obj/ipc_ctl.o
 *fill*         0x000000000828266f        0x1 
 .rodata        0x0000000008282670       0x38 /home/vboxuser/Desktop/topst/cr5-bsp/sources/build/tcc805x/gcc/tcc805x-freertos-debug/obj/ipc_parser.o
 .rodata        0x00000000082826a8      0x262 /home/vboxuser/Desktop/topst/cr5-bsp/sources/build/tcc805x/gcc/tcc805x-freertos-debug/obj/ipc_api.o
 *fill*         0x000000000828290a        0x2 
 .rodata        0x000000000828290c      0x3aa /home/vboxuser/Desktop/topst/cr5-bsp/sources/build/tcc805x/gcc/tcc805x-freertos-debug/obj/lin.o
 *fill*         0x0000000008282cb6        0x2 
 .rodata        0x0000000008282cb8      0x209 /home/vboxuser/Desktop/topst/cr5-bsp/sources/build/tcc805x/gcc/tcc805x-freertos-debug/obj/sdm.o
 *fill*         0x0000000008282ec1        0x3 
 .rodata        0x0000000008282ec4      0x38b /home/vboxuser/Desktop/topst/cr5-bsp/sources/build/tcc805x/gcc/tcc805x-freertos-debug/obj/hsm_manager.o
 *fill*         0x000000000828324f        0x1 
 .rodata        0x0000000008283250       0xf5 /home/vboxuser/Desktop/topst/cr5-bsp/sources/build/tcc805x/gcc/tcc805x-freertos-debug/obj/adc.o
 *fill*         0x0000000008283345        0x3 
 .rodata        0x0000000008283348       0x9f /home/vboxuser/Desktop/topst/cr5-bsp/sources/build/tcc805x/gcc/tcc805x-freertos-debug/obj/can.o
 *fill*         0x00000000082833e7        0x1 
 .rodata        0x00000000082833e8      0x4ee /home/vboxuser/Desktop/topst/cr5-bsp/sources/build/tcc805x/gcc/tcc805x-freertos-debug/obj/can_drv.o
 *fill*         0x00000000082838d6        0x2 
 .rodata        0x00000000082838d8       0x25 /home/vboxuser/Desktop/topst/cr5-bsp/sources/build/tcc805x/gcc/tcc805x-freertos-debug/obj/debug.o
 *fill*         0x00000000082838fd        0x3 
 .rodata        0x0000000008283900       0x3a /home/vboxuser/Desktop/topst/cr5-bsp/sources/build/tcc805x/gcc/tcc805x-freertos-debug/obj/bsp.o
 *fill*         0x000000000828393a        0x2 
 .rodata        0x000000000828393c      0x365 /home/vboxuser/Desktop/topst/cr5-bsp/sources/build/tcc805x/gcc/tcc805x-freertos-debug/obj/fmu.o
 *fill*         0x0000000008283ca1        0x3 
 .rodata        0x0000000008283ca4      0x164 /home/vboxuser/Desktop/topst/cr5-bsp/sources/build/tcc805x/gcc/tcc805x-freertos-debug/obj/gdma.o
 .rodata        0x0000000008283e08      0x3d0 /home/vboxuser/Desktop/topst/cr5-bsp/sources/build/tcc805x/gcc/tcc805x-freertos-debug/obj/gic.o
 .rodata        0x00000000082841d8       0x77 /home/vboxuser/Desktop/topst/cr5-bsp/sources/build/tcc805x/gcc/tcc805x-freertos-debug/obj/gpio.o
 *fill*         0x000000000828424f        0x1 
 .rodata        0x0000000008284250      0x93e /home/vboxuser/Desktop/topst/cr5-bsp/sources/build/tcc805x/gcc/tcc805x-freertos-debug/obj/i2c.o
 *fill*         0x0000000008284b8e        0x2 
 .rodata        0x0000000008284b90      0x1ec /home/vboxuser/Desktop/topst/cr5-bsp/sources/build/tcc805x/gcc/tcc805x-freertos-debug/obj/i2c_reg.o
                0x0000000008284b90                i2cport
 .rodata        0x0000000008284d7c      0x32a /home/vboxuser/Desktop/topst/cr5-bsp/sources/build/tcc805x/gcc/tcc805x-freertos-debug/obj/ictc.o
 *fill*         0x00000000082850a6        0x2 
 .rodata        0x00000000082850a8      0x620 /home/vboxuser/Desktop/topst/cr5-bsp/sources/build/tcc805x/gcc/tcc805x-freertos-debug/obj/mbox_dev.o
 .rodata        0x00000000082856c8      0x342 /home/vboxuser/Desktop/topst/cr5-bsp/sources/build/tcc805x/gcc/tcc805x-freertos-debug/obj/mbox.o
 *fill*         0x0000000008285a0a        0x2 
 .rodata        0x0000000008285a0c       0xc0 /home/vboxuser/Desktop/topst/cr5-bsp/sources/build/tcc805x/gcc/tcc805x-freertos-debug/obj/mpu.o
                0x0000000008285a0c                sMPUTable
 .rodata        0x0000000008285acc      0x1ea /home/vboxuser/Desktop/topst/cr5-bsp/sources/build/tcc805x/gcc/tcc805x-freertos-debug/obj/pdm.o
 *fill*         0x0000000008285cb6        0x2 
 .rodata        0x0000000008285cb8      0xc45 /home/vboxuser/Desktop/topst/cr5-bsp/sources/build/tcc805x/gcc/tcc805x-freertos-debug/obj/pmio_dev.o
 *fill*         0x00000000082868fd        0x3 
 .rodata        0x0000000008286900     0x13b1 /home/vboxuser/Desktop/topst/cr5-bsp/sources/build/tcc805x/gcc/tcc805x-freertos-debug/obj/gpsb.o
 *fill*         0x0000000008287cb1        0x3 
 .rodata        0x0000000008287cb4      0x2d8 /home/vboxuser/Desktop/topst/cr5-bsp/sources/build/tcc805x/gcc/tcc805x-freertos-debug/obj/gpsb_reg.o
                0x0000000008287cb4                gpsbport
                0x0000000008287f74                gpsb_sm
 .rodata        0x0000000008287f8c      0x17b /home/vboxuser/Desktop/topst/cr5-bsp/sources/build/tcc805x/gcc/tcc805x-freertos-debug/obj/timer.o
 *fill*         0x0000000008288107        0x1 
 .rodata        0x0000000008288108      0x531 /home/vboxuser/Desktop/topst/cr5-bsp/sources/build/tcc805x/gcc/tcc805x-freertos-debug/obj/uart.o
 *fill*         0x0000000008288639        0x3 
 .rodata        0x000000000828863c      0x13e /home/vboxuser/Desktop/topst/cr5-bsp/sources/build/tcc805x/gcc/tcc805x-freertos-debug/obj/udma.o
 *fill*         0x000000000828877a        0x2 
 .rodata        0x000000000828877c      0x18d /home/vboxuser/Desktop/topst/cr5-bsp/sources/build/tcc805x/gcc/tcc805x-freertos-debug/obj/wdt.o
 *fill*         0x0000000008288909        0x3 
 .rodata        0x000000000828890c       0xb8 /home/vboxuser/Desktop/topst/cr5-bsp/sources/build/tcc805x/gcc/tcc805x-freertos-debug/obj/dse.o
 .rodata        0x00000000082889c4       0xde /home/vboxuser/Desktop/topst/cr5-bsp/sources/build/tcc805x/gcc/tcc805x-freertos-debug/obj/pmu_reset.o
 *fill*         0x0000000008288aa2        0x2 
 .rodata        0x0000000008288aa4        0x5 /home/vboxuser/Desktop/topst/cr5-bsp/sources/build/tcc805x/gcc/tcc805x-freertos-debug/obj/tasks.o
 *fill*         0x0000000008288aa9        0x3 
 .rodata        0x0000000008288aac        0xd /home/vboxuser/Desktop/topst/cr5-bsp/sources/build/tcc805x/gcc/tcc805x-freertos-debug/obj/timers.o
 *fill*         0x0000000008288ab9        0x3 
 .rodata        0x0000000008288abc       0x20 /home/vboxuser/Desktop/topst/cr5-bsp/sources/build/tcc805x/gcc/tcc805x-freertos-debug/obj/port.o
                0x0000000008288abc                ulICCIAR
                0x0000000008288ac0                ulICCEOIR
                0x0000000008288ac4                ulICCPMR
                0x0000000008288ac8                ulMaxAPIPriorityMask
 .rodata        0x0000000008288adc        0x4 /home/vboxuser/Desktop/topst/cr5-bsp/sources/build/tcc805x/gcc/tcc805x-freertos-debug/obj/heap_5.o
 .rodata        0x0000000008288ae0      0x249 /home/vboxuser/Desktop/topst/cr5-bsp/sources/build/tcc805x/gcc/tcc805x-freertos-debug/obj/sal_freertos_impl.o
 *fill*         0x0000000008288d29        0x3 
 .rodata        0x0000000008288d2c       0x20 /home/vboxuser/Desktop/topst/buildtools/gcc-linaro-7.2.1-2017.11-x86_64_arm-eabi/arm-eabi/libc/usr/lib/libc.a(lib_a-svfprintf.o)
 .rodata        0x0000000008288d4c        0x4 /home/vboxuser/Desktop/topst/buildtools/gcc-linaro-7.2.1-2017.11-x86_64_arm-eabi/arm-eabi/libc/usr/lib/libc.a(lib_a-impure.o)
                0x0000000008288d4c                _global_impure_ptr
 .rodata        0x0000000008288d50      0x188 /home/vboxuser/Desktop/topst/buildtools/gcc-linaro-7.2.1-2017.11-x86_64_arm-eabi/arm-eabi/libc/usr/lib/libc.a(lib_a-locale.o)
                0x0000000008288d6c                __C_locale
 .rodata        0x0000000008288ed8       0x90 /home/vboxuser/Desktop/topst/buildtools/gcc-linaro-7.2.1-2017.11-x86_64_arm-eabi/arm-eabi/libc/usr/lib/libc.a(lib_a-mbtowc_r.o)
 .rodata        0x0000000008288f68      0x128 /home/vboxuser/Desktop/topst/buildtools/gcc-linaro-7.2.1-2017.11-x86_64_arm-eabi/arm-eabi/libc/usr/lib/libc.a(lib_a-mprec.o)
                0x0000000008288f78                __mprec_tens
                0x0000000008289040                __mprec_tinytens
                0x0000000008289068                __mprec_bigtens
 .rodata        0x0000000008289090      0x1f8 /home/vboxuser/Desktop/topst/buildtools/gcc-linaro-7.2.1-2017.11-x86_64_arm-eabi/arm-eabi/libc/usr/lib/libc.a(lib_a-svfiprintf.o)
                0x0000000008289090                __chclass
                0x0000000008289190                __state_table
                0x00000000082891fc                __action_table
 .rodata        0x0000000008289288      0x101 /home/vboxuser/Desktop/topst/buildtools/gcc-linaro-7.2.1-2017.11-x86_64_arm-eabi/arm-eabi/libc/usr/lib/libc.a(lib_a-ctype_.o)
                0x0000000008289288                _ctype_
 *(.rodata.*)
 *fill*         0x0000000008289389        0x3 
 .rodata.str1.4
                0x000000000828938c       0x42 /home/vboxuser/Desktop/topst/buildtools/gcc-linaro-7.2.1-2017.11-x86_64_arm-eabi/arm-eabi/libc/usr/lib/libc.a(lib_a-svfprintf.o)
 *fill*         0x00000000082893ce        0x2 
 .rodata.str1.4
                0x00000000082893d0       0x10 /home/vboxuser/Desktop/topst/buildtools/gcc-linaro-7.2.1-2017.11-x86_64_arm-eabi/arm-eabi/libc/usr/lib/libc.a(lib_a-dtoa.o)
                                         0x12 (size before relaxing)
 .rodata.str1.4
                0x00000000082893e0      0x12c /home/vboxuser/Desktop/topst/buildtools/gcc-linaro-7.2.1-2017.11-x86_64_arm-eabi/arm-eabi/libc/usr/lib/libc.a(lib_a-locale.o)
                                        0x130 (size before relaxing)
 .rodata.str1.4
                0x000000000828950c       0x2f /home/vboxuser/Desktop/topst/buildtools/gcc-linaro-7.2.1-2017.11-x86_64_arm-eabi/arm-eabi/libc/usr/lib/libc.a(lib_a-svfiprintf.o)
 .rodata.str1.4
                0x000000000828950c        0x4 /home/vboxuser/Desktop/topst/buildtools/gcc-linaro-7.2.1-2017.11-x86_64_arm-eabi/arm-eabi/libc/usr/lib/libc.a(lib_a-syscalls.o)
 *(.const)
 *(.const.*)
                0x0000000008289540                . = ALIGN (0x20)
 *fill*         0x0000000008289510       0x10 
                0x0000000008289520                __RODATA_END__ = .

.vector         0x0000000006000000       0x60 load address 0x0000000008289520
                0x0000000008289520                __VECTOR_START_LOAD = LOADADDR (.vector)
                0x0000000006000000                __VECTOR_START__ = .
 *vector.o(.vector .text .rodata .rodata*)
 .vector        0x0000000006000000       0x50 /home/vboxuser/Desktop/topst/cr5-bsp/sources/build/tcc805x/gcc/tcc805x-freertos-debug/obj/vector.o
                0x0000000006000000                _vector
                0x0000000006000000                _start
                0x0000000006000024                ARM_Reserved
                0x0000000006000060                . = ALIGN (0x20)
 *fill*         0x0000000006000050       0x10 
                0x0000000006000060                __VECTOR_END__ = .

.data           0x0000000006000060     0x3500 load address 0x0000000008289580
                0x0000000008289580                __DATA_START_LOAD = LOADADDR (.data)
                0x0000000006000060                __DATA_START__ = .
 *(.data)
 .data          0x0000000006000060        0x0 /home/vboxuser/Desktop/topst/cr5-bsp/sources/build/tcc805x/gcc/tcc805x-freertos-debug/obj/main.o
 .data          0x0000000006000060      0x2f4 /home/vboxuser/Desktop/topst/cr5-bsp/sources/build/tcc805x/gcc/tcc805x-freertos-debug/obj/can_demo.o
 .data          0x0000000006000354      0x1a4 /home/vboxuser/Desktop/topst/cr5-bsp/sources/build/tcc805x/gcc/tcc805x-freertos-debug/obj/console.o
 .data          0x00000000060004f8        0x0 /home/vboxuser/Desktop/topst/cr5-bsp/sources/build/tcc805x/gcc/tcc805x-freertos-debug/obj/fwug.o
 .data          0x00000000060004f8       0xf8 /home/vboxuser/Desktop/topst/cr5-bsp/sources/build/tcc805x/gcc/tcc805x-freertos-debug/obj/key_adc.o
 .data          0x00000000060005f0        0x0 /home/vboxuser/Desktop/topst/cr5-bsp/sources/build/tcc805x/gcc/tcc805x-freertos-debug/obj/key_gpio.o
 .data          0x00000000060005f0       0x74 /home/vboxuser/Desktop/topst/cr5-bsp/sources/build/tcc805x/gcc/tcc805x-freertos-debug/obj/key_i2c.o
 .data          0x0000000006000664        0x0 /home/vboxuser/Desktop/topst/cr5-bsp/sources/build/tcc805x/gcc/tcc805x-freertos-debug/obj/key.o
 .data          0x0000000006000664        0x0 /home/vboxuser/Desktop/topst/cr5-bsp/sources/build/tcc805x/gcc/tcc805x-freertos-debug/obj/system_monitoring.o
 .data          0x0000000006000664        0x8 /home/vboxuser/Desktop/topst/cr5-bsp/sources/build/tcc805x/gcc/tcc805x-freertos-debug/obj/bootctrl.o
 .data          0x000000000600066c        0x0 /home/vboxuser/Desktop/topst/cr5-bsp/sources/build/tcc805x/gcc/tcc805x-freertos-debug/obj/reset_demo.o
 .data          0x000000000600066c        0xc /home/vboxuser/Desktop/topst/cr5-bsp/sources/build/tcc805x/gcc/tcc805x-freertos-debug/obj/adc_test.o
 .data          0x0000000006000678        0x0 /home/vboxuser/Desktop/topst/cr5-bsp/sources/build/tcc805x/gcc/tcc805x-freertos-debug/obj/dse_test.o
 .data          0x0000000006000678        0x0 /home/vboxuser/Desktop/topst/cr5-bsp/sources/build/tcc805x/gcc/tcc805x-freertos-debug/obj/fmu_test.o
 .data          0x0000000006000678        0x0 /home/vboxuser/Desktop/topst/cr5-bsp/sources/build/tcc805x/gcc/tcc805x-freertos-debug/obj/gdma_test.o
 .data          0x0000000006000678        0x0 /home/vboxuser/Desktop/topst/cr5-bsp/sources/build/tcc805x/gcc/tcc805x-freertos-debug/obj/gic_test.o
 .data          0x0000000006000678      0x628 /home/vboxuser/Desktop/topst/cr5-bsp/sources/build/tcc805x/gcc/tcc805x-freertos-debug/obj/gpio_test.o
 .data          0x0000000006000ca0        0x0 /home/vboxuser/Desktop/topst/cr5-bsp/sources/build/tcc805x/gcc/tcc805x-freertos-debug/obj/gpsb_test.o
 .data          0x0000000006000ca0      0x430 /home/vboxuser/Desktop/topst/cr5-bsp/sources/build/tcc805x/gcc/tcc805x-freertos-debug/obj/hsm_test.o
 .data          0x00000000060010d0        0x0 /home/vboxuser/Desktop/topst/cr5-bsp/sources/build/tcc805x/gcc/tcc805x-freertos-debug/obj/i2c_test.o
 .data          0x00000000060010d0        0x0 /home/vboxuser/Desktop/topst/cr5-bsp/sources/build/tcc805x/gcc/tcc805x-freertos-debug/obj/ictc_test.o
 .data          0x00000000060010d0        0x0 /home/vboxuser/Desktop/topst/cr5-bsp/sources/build/tcc805x/gcc/tcc805x-freertos-debug/obj/lin_test.o
 .data          0x00000000060010d0        0x0 /home/vboxuser/Desktop/topst/cr5-bsp/sources/build/tcc805x/gcc/tcc805x-freertos-debug/obj/pdm_test.o
 .data          0x00000000060010d0      0x3d4 /home/vboxuser/Desktop/topst/cr5-bsp/sources/build/tcc805x/gcc/tcc805x-freertos-debug/obj/pmio_test.o
 .data          0x00000000060014a4        0x0 /home/vboxuser/Desktop/topst/cr5-bsp/sources/build/tcc805x/gcc/tcc805x-freertos-debug/obj/timer_test.o
 .data          0x00000000060014a4       0x20 /home/vboxuser/Desktop/topst/cr5-bsp/sources/build/tcc805x/gcc/tcc805x-freertos-debug/obj/wdt_test.o
 .data          0x00000000060014c4        0x0 /home/vboxuser/Desktop/topst/cr5-bsp/sources/build/tcc805x/gcc/tcc805x-freertos-debug/obj/pwm_test.o
 .data          0x00000000060014c4        0x0 /home/vboxuser/Desktop/topst/cr5-bsp/sources/build/tcc805x/gcc/tcc805x-freertos-debug/obj/Motor_System.o
 .data          0x00000000060014c4        0x0 /home/vboxuser/Desktop/topst/cr5-bsp/sources/build/tcc805x/gcc/tcc805x-freertos-debug/obj/mptool.o
 .data          0x00000000060014c4        0x0 /home/vboxuser/Desktop/topst/cr5-bsp/sources/build/tcc805x/gcc/tcc805x-freertos-debug/obj/ipc_os.o
 .data          0x00000000060014c4        0x0 /home/vboxuser/Desktop/topst/cr5-bsp/sources/build/tcc805x/gcc/tcc805x-freertos-debug/obj/ipc_buffer.o
 .data          0x00000000060014c4        0x0 /home/vboxuser/Desktop/topst/cr5-bsp/sources/build/tcc805x/gcc/tcc805x-freertos-debug/obj/ipc_cmd.o
 .data          0x00000000060014c4        0x0 /home/vboxuser/Desktop/topst/cr5-bsp/sources/build/tcc805x/gcc/tcc805x-freertos-debug/obj/ipc_ctl.o
 .data          0x00000000060014c4       0x20 /home/vboxuser/Desktop/topst/cr5-bsp/sources/build/tcc805x/gcc/tcc805x-freertos-debug/obj/ipc_parser.o
 .data          0x00000000060014e4        0x0 /home/vboxuser/Desktop/topst/cr5-bsp/sources/build/tcc805x/gcc/tcc805x-freertos-debug/obj/ipc_api.o
 .data          0x00000000060014e4        0x0 /home/vboxuser/Desktop/topst/cr5-bsp/sources/build/tcc805x/gcc/tcc805x-freertos-debug/obj/ipc.o
 .data          0x00000000060014e4        0x0 /home/vboxuser/Desktop/topst/cr5-bsp/sources/build/tcc805x/gcc/tcc805x-freertos-debug/obj/lin.o
 .data          0x00000000060014e4        0x0 /home/vboxuser/Desktop/topst/cr5-bsp/sources/build/tcc805x/gcc/tcc805x-freertos-debug/obj/sdm.o
 .data          0x00000000060014e4        0x0 /home/vboxuser/Desktop/topst/cr5-bsp/sources/build/tcc805x/gcc/tcc805x-freertos-debug/obj/hsm_manager.o
 .data          0x00000000060014e4        0x0 /home/vboxuser/Desktop/topst/cr5-bsp/sources/build/tcc805x/gcc/tcc805x-freertos-debug/obj/adc.o
 .data          0x00000000060014e4        0x0 /home/vboxuser/Desktop/topst/cr5-bsp/sources/build/tcc805x/gcc/tcc805x-freertos-debug/obj/can.o
 .data          0x00000000060014e4        0x0 /home/vboxuser/Desktop/topst/cr5-bsp/sources/build/tcc805x/gcc/tcc805x-freertos-debug/obj/can_drv.o
 .data          0x00000000060014e4        0x0 /home/vboxuser/Desktop/topst/cr5-bsp/sources/build/tcc805x/gcc/tcc805x-freertos-debug/obj/can_msg.o
 .data          0x00000000060014e4      0x234 /home/vboxuser/Desktop/topst/cr5-bsp/sources/build/tcc805x/gcc/tcc805x-freertos-debug/obj/can_par.o
                0x0000000006001694                ArbitrationPhaseTimingPar
                0x00000000060016ac                DataPhaseTimingPar
                0x00000000060016c4                TxBufferInfoPar
                0x00000000060016dc                RxBufferInfoPar
                0x00000000060016e8                RxBufferFIFO0InfoPar
                0x00000000060016f4                RxBufferFIFO1InfoPar
                0x0000000006001700                StandardIDFilterPar
                0x000000000600170c                ExtendedIDFilterPar
 .data          0x0000000006001718        0x0 /home/vboxuser/Desktop/topst/cr5-bsp/sources/build/tcc805x/gcc/tcc805x-freertos-debug/obj/can_porting.o
 .data          0x0000000006001718        0x0 /home/vboxuser/Desktop/topst/cr5-bsp/sources/build/tcc805x/gcc/tcc805x-freertos-debug/obj/clock_dev.o
 .data          0x0000000006001718       0xa0 /home/vboxuser/Desktop/topst/cr5-bsp/sources/build/tcc805x/gcc/tcc805x-freertos-debug/obj/debug.o
                0x0000000006001718                gDebugOption
                0x000000000600171c                dbgTags
 .data          0x00000000060017b8        0x0 /home/vboxuser/Desktop/topst/cr5-bsp/sources/build/tcc805x/gcc/tcc805x-freertos-debug/obj/bsp.o
 .data          0x00000000060017b8        0x0 /home/vboxuser/Desktop/topst/cr5-bsp/sources/build/tcc805x/gcc/tcc805x-freertos-debug/obj/fmu.o
 .data          0x00000000060017b8        0x0 /home/vboxuser/Desktop/topst/cr5-bsp/sources/build/tcc805x/gcc/tcc805x-freertos-debug/obj/gdma.o
 .data          0x00000000060017b8        0x0 /home/vboxuser/Desktop/topst/cr5-bsp/sources/build/tcc805x/gcc/tcc805x-freertos-debug/obj/gic.o
 .data          0x00000000060017b8        0x0 /home/vboxuser/Desktop/topst/cr5-bsp/sources/build/tcc805x/gcc/tcc805x-freertos-debug/obj/gpio.o
 .data          0x00000000060017b8        0x0 /home/vboxuser/Desktop/topst/cr5-bsp/sources/build/tcc805x/gcc/tcc805x-freertos-debug/obj/i2c.o
 .data          0x00000000060017b8       0xe4 /home/vboxuser/Desktop/topst/cr5-bsp/sources/build/tcc805x/gcc/tcc805x-freertos-debug/obj/i2c_reg.o
                0x00000000060017b8                i2c
 .data          0x000000000600189c        0x0 /home/vboxuser/Desktop/topst/cr5-bsp/sources/build/tcc805x/gcc/tcc805x-freertos-debug/obj/ictc.o
 .data          0x000000000600189c      0xc08 /home/vboxuser/Desktop/topst/cr5-bsp/sources/build/tcc805x/gcc/tcc805x-freertos-debug/obj/mbox_phy.o
                0x000000000600189c                mboxInfo
 .data          0x00000000060024a4      0x428 /home/vboxuser/Desktop/topst/cr5-bsp/sources/build/tcc805x/gcc/tcc805x-freertos-debug/obj/mbox_dev.o
 .data          0x00000000060028cc        0x0 /home/vboxuser/Desktop/topst/cr5-bsp/sources/build/tcc805x/gcc/tcc805x-freertos-debug/obj/mbox.o
 .data          0x00000000060028cc        0x0 /home/vboxuser/Desktop/topst/cr5-bsp/sources/build/tcc805x/gcc/tcc805x-freertos-debug/obj/mpu.o
 .data          0x00000000060028cc        0x0 /home/vboxuser/Desktop/topst/cr5-bsp/sources/build/tcc805x/gcc/tcc805x-freertos-debug/obj/pdm.o
 .data          0x00000000060028cc       0x20 /home/vboxuser/Desktop/topst/cr5-bsp/sources/build/tcc805x/gcc/tcc805x-freertos-debug/obj/pmio_dev.o
 .data          0x00000000060028ec        0x0 /home/vboxuser/Desktop/topst/cr5-bsp/sources/build/tcc805x/gcc/tcc805x-freertos-debug/obj/gpsb.o
 .data          0x00000000060028ec      0x228 /home/vboxuser/Desktop/topst/cr5-bsp/sources/build/tcc805x/gcc/tcc805x-freertos-debug/obj/gpsb_reg.o
                0x00000000060028ec                gpsb
 .data          0x0000000006002b14        0x0 /home/vboxuser/Desktop/topst/cr5-bsp/sources/build/tcc805x/gcc/tcc805x-freertos-debug/obj/timer.o
 .data          0x0000000006002b14       0x30 /home/vboxuser/Desktop/topst/cr5-bsp/sources/build/tcc805x/gcc/tcc805x-freertos-debug/obj/uart.o
 .data          0x0000000006002b44       0x48 /home/vboxuser/Desktop/topst/cr5-bsp/sources/build/tcc805x/gcc/tcc805x-freertos-debug/obj/udma.o
 .data          0x0000000006002b8c        0x0 /home/vboxuser/Desktop/topst/cr5-bsp/sources/build/tcc805x/gcc/tcc805x-freertos-debug/obj/wdt.o
 .data          0x0000000006002b8c        0x0 /home/vboxuser/Desktop/topst/cr5-bsp/sources/build/tcc805x/gcc/tcc805x-freertos-debug/obj/dse.o
 .data          0x0000000006002b8c        0x0 /home/vboxuser/Desktop/topst/cr5-bsp/sources/build/tcc805x/gcc/tcc805x-freertos-debug/obj/midf.o
 .data          0x0000000006002b8c        0x0 /home/vboxuser/Desktop/topst/cr5-bsp/sources/build/tcc805x/gcc/tcc805x-freertos-debug/obj/pmu_reset.o
 .data          0x0000000006002b8c        0x0 /home/vboxuser/Desktop/topst/cr5-bsp/sources/build/tcc805x/gcc/tcc805x-freertos-debug/obj/tasks.o
 .data          0x0000000006002b8c        0x0 /home/vboxuser/Desktop/topst/cr5-bsp/sources/build/tcc805x/gcc/tcc805x-freertos-debug/obj/list.o
 .data          0x0000000006002b8c        0x0 /home/vboxuser/Desktop/topst/cr5-bsp/sources/build/tcc805x/gcc/tcc805x-freertos-debug/obj/queue.o
 .data          0x0000000006002b8c        0x0 /home/vboxuser/Desktop/topst/cr5-bsp/sources/build/tcc805x/gcc/tcc805x-freertos-debug/obj/event_groups.o
 .data          0x0000000006002b8c        0x0 /home/vboxuser/Desktop/topst/cr5-bsp/sources/build/tcc805x/gcc/tcc805x-freertos-debug/obj/timers.o
 .data          0x0000000006002b8c        0x0 /home/vboxuser/Desktop/topst/cr5-bsp/sources/build/tcc805x/gcc/tcc805x-freertos-debug/obj/stream_buffer.o
 .data          0x0000000006002b8c        0x4 /home/vboxuser/Desktop/topst/cr5-bsp/sources/build/tcc805x/gcc/tcc805x-freertos-debug/obj/port.o
                0x0000000006002b8c                ulCriticalNesting
 .data          0x0000000006002b90        0x0 /home/vboxuser/Desktop/topst/cr5-bsp/sources/build/tcc805x/gcc/tcc805x-freertos-debug/obj/heap_5.o
 .data          0x0000000006002b90        0x0 /home/vboxuser/Desktop/topst/cr5-bsp/sources/build/tcc805x/gcc/tcc805x-freertos-debug/obj/sal_api.o
 .data          0x0000000006002b90        0x0 /home/vboxuser/Desktop/topst/cr5-bsp/sources/build/tcc805x/gcc/tcc805x-freertos-debug/obj/sal_freertos_impl.o
 .data          0x0000000006002b90        0x0 /home/vboxuser/Desktop/topst/cr5-bsp/sources/build/tcc805x/gcc/tcc805x-freertos-debug/obj/startup.o
 .data          0x0000000006002b90        0x0 /home/vboxuser/Desktop/topst/cr5-bsp/sources/build/tcc805x/gcc/tcc805x-freertos-debug/obj/vector.o
 .data          0x0000000006002b90        0x0 /home/vboxuser/Desktop/topst/cr5-bsp/sources/build/tcc805x/gcc/tcc805x-freertos-debug/obj/vfp_init.o
 .data          0x0000000006002b90        0x0 /home/vboxuser/Desktop/topst/cr5-bsp/sources/build/tcc805x/gcc/tcc805x-freertos-debug/obj/arm_a.o
 .data          0x0000000006002b90        0x0 /home/vboxuser/Desktop/topst/cr5-bsp/sources/build/tcc805x/gcc/tcc805x-freertos-debug/obj/portASM.o
 .data          0x0000000006002b90        0x0 /home/vboxuser/Desktop/topst/cr5-bsp/sources/build/tcc805x/gcc/tcc805x-freertos-debug/obj/freertos.o
 .data          0x0000000006002b90        0x0 /home/vboxuser/Desktop/topst/cr5-bsp/sources/build/tcc805x/gcc/tcc805x-freertos-debug/obj/sal.o
 .data          0x0000000006002b90        0x0 /home/vboxuser/Desktop/topst/buildtools/gcc-linaro-7.2.1-2017.11-x86_64_arm-eabi/arm-eabi/libc/usr/lib/libc.a(lib_a-atoi.o)
 .data          0x0000000006002b90        0x0 /home/vboxuser/Desktop/topst/buildtools/gcc-linaro-7.2.1-2017.11-x86_64_arm-eabi/arm-eabi/libc/usr/lib/libc.a(lib_a-atol.o)
 .data          0x0000000006002b90        0x0 /home/vboxuser/Desktop/topst/buildtools/gcc-linaro-7.2.1-2017.11-x86_64_arm-eabi/arm-eabi/libc/usr/lib/libc.a(lib_a-memcmp.o)
 .data          0x0000000006002b90        0x0 /home/vboxuser/Desktop/topst/buildtools/gcc-linaro-7.2.1-2017.11-x86_64_arm-eabi/arm-eabi/libc/usr/lib/libc.a(lib_a-memcpy-stub.o)
 .data          0x0000000006002b90        0x0 /home/vboxuser/Desktop/topst/buildtools/gcc-linaro-7.2.1-2017.11-x86_64_arm-eabi/arm-eabi/libc/usr/lib/libc.a(lib_a-memset.o)
 .data          0x0000000006002b90        0x0 /home/vboxuser/Desktop/topst/buildtools/gcc-linaro-7.2.1-2017.11-x86_64_arm-eabi/arm-eabi/libc/usr/lib/libc.a(lib_a-snprintf.o)
 .data          0x0000000006002b90        0x0 /home/vboxuser/Desktop/topst/buildtools/gcc-linaro-7.2.1-2017.11-x86_64_arm-eabi/arm-eabi/libc/usr/lib/libc.a(lib_a-strlen-stub.o)
 .data          0x0000000006002b90        0x0 /home/vboxuser/Desktop/topst/buildtools/gcc-linaro-7.2.1-2017.11-x86_64_arm-eabi/arm-eabi/libc/usr/lib/libc.a(lib_a-strncmp.o)
 .data          0x0000000006002b90        0x0 /home/vboxuser/Desktop/topst/buildtools/gcc-linaro-7.2.1-2017.11-x86_64_arm-eabi/arm-eabi/libc/usr/lib/libc.a(lib_a-strncpy.o)
 .data          0x0000000006002b90        0x0 /home/vboxuser/Desktop/topst/buildtools/gcc-linaro-7.2.1-2017.11-x86_64_arm-eabi/arm-eabi/libc/usr/lib/libc.a(lib_a-strnlen.o)
 .data          0x0000000006002b90        0x0 /home/vboxuser/Desktop/topst/buildtools/gcc-linaro-7.2.1-2017.11-x86_64_arm-eabi/arm-eabi/libc/usr/lib/libc.a(lib_a-strtol.o)
 .data          0x0000000006002b90        0x0 /home/vboxuser/Desktop/topst/buildtools/gcc-linaro-7.2.1-2017.11-x86_64_arm-eabi/arm-eabi/libc/usr/lib/libc.a(lib_a-strtoul.o)
 .data          0x0000000006002b90        0x0 /home/vboxuser/Desktop/topst/buildtools/gcc-linaro-7.2.1-2017.11-x86_64_arm-eabi/arm-eabi/libc/usr/lib/libc.a(lib_a-svfprintf.o)
 .data          0x0000000006002b90        0x0 /home/vboxuser/Desktop/topst/buildtools/gcc-linaro-7.2.1-2017.11-x86_64_arm-eabi/arm-eabi/libc/usr/lib/libc.a(lib_a-wcrtomb.o)
 .data          0x0000000006002b90        0x0 /home/vboxuser/Desktop/topst/buildtools/gcc-linaro-7.2.1-2017.11-x86_64_arm-eabi/arm-eabi/libc/usr/lib/libc.a(lib_a-wcsrtombs.o)
 .data          0x0000000006002b90        0x0 /home/vboxuser/Desktop/topst/buildtools/gcc-linaro-7.2.1-2017.11-x86_64_arm-eabi/arm-eabi/libc/usr/lib/libc.a(lib_a-dtoa.o)
 .data          0x0000000006002b90        0x0 /home/vboxuser/Desktop/topst/buildtools/gcc-linaro-7.2.1-2017.11-x86_64_arm-eabi/arm-eabi/libc/usr/lib/libc.a(lib_a-freer.o)
 .data          0x0000000006002b90      0x430 /home/vboxuser/Desktop/topst/buildtools/gcc-linaro-7.2.1-2017.11-x86_64_arm-eabi/arm-eabi/libc/usr/lib/libc.a(lib_a-impure.o)
                0x0000000006002b90                _impure_ptr
 .data          0x0000000006002fc0      0x18c /home/vboxuser/Desktop/topst/buildtools/gcc-linaro-7.2.1-2017.11-x86_64_arm-eabi/arm-eabi/libc/usr/lib/libc.a(lib_a-locale.o)
                0x0000000006002fc0                __global_locale
                0x000000000600312c                __default_locale
 .data          0x000000000600314c        0x0 /home/vboxuser/Desktop/topst/buildtools/gcc-linaro-7.2.1-2017.11-x86_64_arm-eabi/arm-eabi/libc/usr/lib/libc.a(lib_a-localeconv.o)
 .data          0x000000000600314c      0x410 /home/vboxuser/Desktop/topst/buildtools/gcc-linaro-7.2.1-2017.11-x86_64_arm-eabi/arm-eabi/libc/usr/lib/libc.a(lib_a-mallocr.o)
                0x000000000600314c                __malloc_av_
                0x0000000006003554                __malloc_sbrk_base
                0x0000000006003558                __malloc_trim_threshold
 .data          0x000000000600355c        0x0 /home/vboxuser/Desktop/topst/buildtools/gcc-linaro-7.2.1-2017.11-x86_64_arm-eabi/arm-eabi/libc/usr/lib/libc.a(lib_a-mbtowc_r.o)
 .data          0x000000000600355c        0x0 /home/vboxuser/Desktop/topst/buildtools/gcc-linaro-7.2.1-2017.11-x86_64_arm-eabi/arm-eabi/libc/usr/lib/libc.a(lib_a-memchr-stub.o)
 .data          0x000000000600355c        0x0 /home/vboxuser/Desktop/topst/buildtools/gcc-linaro-7.2.1-2017.11-x86_64_arm-eabi/arm-eabi/libc/usr/lib/libc.a(lib_a-mlock.o)
 .data          0x000000000600355c        0x0 /home/vboxuser/Desktop/topst/buildtools/gcc-linaro-7.2.1-2017.11-x86_64_arm-eabi/arm-eabi/libc/usr/lib/libc.a(lib_a-mprec.o)
 .data          0x000000000600355c        0x0 /home/vboxuser/Desktop/topst/buildtools/gcc-linaro-7.2.1-2017.11-x86_64_arm-eabi/arm-eabi/libc/usr/lib/libc.a(lib_a-s_frexp.o)
 .data          0x000000000600355c        0x0 /home/vboxuser/Desktop/topst/buildtools/gcc-linaro-7.2.1-2017.11-x86_64_arm-eabi/arm-eabi/libc/usr/lib/libc.a(lib_a-sbrkr.o)
 .data          0x000000000600355c        0x0 /home/vboxuser/Desktop/topst/buildtools/gcc-linaro-7.2.1-2017.11-x86_64_arm-eabi/arm-eabi/libc/usr/lib/libc.a(lib_a-strcasecmp.o)
 .data          0x000000000600355c        0x0 /home/vboxuser/Desktop/topst/buildtools/gcc-linaro-7.2.1-2017.11-x86_64_arm-eabi/arm-eabi/libc/usr/lib/libc.a(lib_a-strcat.o)
 .data          0x000000000600355c        0x0 /home/vboxuser/Desktop/topst/buildtools/gcc-linaro-7.2.1-2017.11-x86_64_arm-eabi/arm-eabi/libc/usr/lib/libc.a(lib_a-strchr.o)
 .data          0x000000000600355c        0x0 /home/vboxuser/Desktop/topst/buildtools/gcc-linaro-7.2.1-2017.11-x86_64_arm-eabi/arm-eabi/libc/usr/lib/libc.a(lib_a-strcmp.o)
 .data          0x000000000600355c        0x0 /home/vboxuser/Desktop/topst/buildtools/gcc-linaro-7.2.1-2017.11-x86_64_arm-eabi/arm-eabi/libc/usr/lib/libc.a(lib_a-strcpy.o)
 .data          0x000000000600355c        0x0 /home/vboxuser/Desktop/topst/buildtools/gcc-linaro-7.2.1-2017.11-x86_64_arm-eabi/arm-eabi/libc/usr/lib/libc.a(lib_a-strlcpy.o)
 .data          0x000000000600355c        0x0 /home/vboxuser/Desktop/topst/buildtools/gcc-linaro-7.2.1-2017.11-x86_64_arm-eabi/arm-eabi/libc/usr/lib/libc.a(lib_a-strncasecmp.o)
 .data          0x000000000600355c        0x0 /home/vboxuser/Desktop/topst/buildtools/gcc-linaro-7.2.1-2017.11-x86_64_arm-eabi/arm-eabi/libc/usr/lib/libc.a(lib_a-svfiprintf.o)
 .data          0x000000000600355c        0x0 /home/vboxuser/Desktop/topst/buildtools/gcc-linaro-7.2.1-2017.11-x86_64_arm-eabi/arm-eabi/libc/usr/lib/libc.a(lib_a-syscalls.o)
 .data          0x000000000600355c        0x0 /home/vboxuser/Desktop/topst/buildtools/gcc-linaro-7.2.1-2017.11-x86_64_arm-eabi/arm-eabi/libc/usr/lib/libc.a(lib_a-wcsnrtombs.o)
 .data          0x000000000600355c        0x0 /home/vboxuser/Desktop/topst/buildtools/gcc-linaro-7.2.1-2017.11-x86_64_arm-eabi/arm-eabi/libc/usr/lib/libc.a(lib_a-wctomb_r.o)
 .data          0x000000000600355c        0x0 /home/vboxuser/Desktop/topst/buildtools/gcc-linaro-7.2.1-2017.11-x86_64_arm-eabi/arm-eabi/libc/usr/lib/libc.a(lib_a-callocr.o)
 .data          0x000000000600355c        0x0 /home/vboxuser/Desktop/topst/buildtools/gcc-linaro-7.2.1-2017.11-x86_64_arm-eabi/arm-eabi/libc/usr/lib/libc.a(lib_a-ctype_.o)
 .data          0x000000000600355c        0x0 /home/vboxuser/Desktop/topst/buildtools/gcc-linaro-7.2.1-2017.11-x86_64_arm-eabi/arm-eabi/libc/usr/lib/libc.a(lib_a-errno.o)
 .data          0x000000000600355c        0x0 /home/vboxuser/Desktop/topst/buildtools/gcc-linaro-7.2.1-2017.11-x86_64_arm-eabi/arm-eabi/libc/usr/lib/libc.a(lib_a-findfp.o)
 .data          0x000000000600355c        0x0 /home/vboxuser/Desktop/topst/buildtools/gcc-linaro-7.2.1-2017.11-x86_64_arm-eabi/arm-eabi/libc/usr/lib/libc.a(lib_a-fwalk.o)
 .data          0x000000000600355c        0x0 /home/vboxuser/Desktop/topst/buildtools/gcc-linaro-7.2.1-2017.11-x86_64_arm-eabi/arm-eabi/libc/usr/lib/libc.a(lib_a-getenv_r.o)
 .data          0x000000000600355c        0x0 /home/vboxuser/Desktop/topst/buildtools/gcc-linaro-7.2.1-2017.11-x86_64_arm-eabi/arm-eabi/libc/usr/lib/libc.a(lib_a-memmove.o)
 .data          0x000000000600355c        0x0 /home/vboxuser/Desktop/topst/buildtools/gcc-linaro-7.2.1-2017.11-x86_64_arm-eabi/arm-eabi/libc/usr/lib/libc.a(lib_a-reallocr.o)
 .data          0x000000000600355c        0x0 /home/vboxuser/Desktop/topst/buildtools/gcc-linaro-7.2.1-2017.11-x86_64_arm-eabi/arm-eabi/libc/usr/lib/libc.a(lib_a-reent.o)
 .data          0x000000000600355c        0x0 /home/vboxuser/Desktop/topst/buildtools/gcc-linaro-7.2.1-2017.11-x86_64_arm-eabi/arm-eabi/libc/usr/lib/libc.a(lib_a-stdio.o)
 .data          0x000000000600355c        0x0 /home/vboxuser/Desktop/topst/buildtools/gcc-linaro-7.2.1-2017.11-x86_64_arm-eabi/arm-eabi/libc/usr/lib/libc.a(lib_a-writer.o)
 .data          0x000000000600355c        0x0 /home/vboxuser/Desktop/topst/buildtools/gcc-linaro-7.2.1-2017.11-x86_64_arm-eabi/arm-eabi/libc/usr/lib/libc.a(lib_a-closer.o)
 .data          0x000000000600355c        0x4 /home/vboxuser/Desktop/topst/buildtools/gcc-linaro-7.2.1-2017.11-x86_64_arm-eabi/arm-eabi/libc/usr/lib/libc.a(lib_a-environ.o)
                0x000000000600355c                environ
 .data          0x0000000006003560        0x0 /home/vboxuser/Desktop/topst/buildtools/gcc-linaro-7.2.1-2017.11-x86_64_arm-eabi/arm-eabi/libc/usr/lib/libc.a(lib_a-envlock.o)
 .data          0x0000000006003560        0x0 /home/vboxuser/Desktop/topst/buildtools/gcc-linaro-7.2.1-2017.11-x86_64_arm-eabi/arm-eabi/libc/usr/lib/libc.a(lib_a-fclose.o)
 .data          0x0000000006003560        0x0 /home/vboxuser/Desktop/topst/buildtools/gcc-linaro-7.2.1-2017.11-x86_64_arm-eabi/arm-eabi/libc/usr/lib/libc.a(lib_a-fflush.o)
 .data          0x0000000006003560        0x0 /home/vboxuser/Desktop/topst/buildtools/gcc-linaro-7.2.1-2017.11-x86_64_arm-eabi/arm-eabi/libc/usr/lib/libc.a(lib_a-lseekr.o)
 .data          0x0000000006003560        0x0 /home/vboxuser/Desktop/topst/buildtools/gcc-linaro-7.2.1-2017.11-x86_64_arm-eabi/arm-eabi/libc/usr/lib/libc.a(lib_a-readr.o)
 .data          0x0000000006003560        0x0 /home/vboxuser/Desktop/topst/buildtools/gcc-linaro-7.2.1-2017.11-x86_64_arm-eabi/arm-eabi/libc/usr/lib/libgcc.a(_udivsi3.o)
 .data          0x0000000006003560        0x0 /home/vboxuser/Desktop/topst/buildtools/gcc-linaro-7.2.1-2017.11-x86_64_arm-eabi/arm-eabi/libc/usr/lib/libgcc.a(_dvmd_tls.o)
 .data          0x0000000006003560        0x0 /home/vboxuser/Desktop/topst/buildtools/gcc-linaro-7.2.1-2017.11-x86_64_arm-eabi/arm-eabi/libc/usr/lib/libgcc.a(_arm_addsubdf3.o)
 .data          0x0000000006003560        0x0 /home/vboxuser/Desktop/topst/buildtools/gcc-linaro-7.2.1-2017.11-x86_64_arm-eabi/arm-eabi/libc/usr/lib/libgcc.a(_arm_muldivdf3.o)
 .data          0x0000000006003560        0x0 /home/vboxuser/Desktop/topst/buildtools/gcc-linaro-7.2.1-2017.11-x86_64_arm-eabi/arm-eabi/libc/usr/lib/libgcc.a(_arm_cmpdf2.o)
 .data          0x0000000006003560        0x0 /home/vboxuser/Desktop/topst/buildtools/gcc-linaro-7.2.1-2017.11-x86_64_arm-eabi/arm-eabi/libc/usr/lib/libgcc.a(_arm_unorddf2.o)
 .data          0x0000000006003560        0x0 /home/vboxuser/Desktop/topst/buildtools/gcc-linaro-7.2.1-2017.11-x86_64_arm-eabi/arm-eabi/libc/usr/lib/libgcc.a(_arm_fixdfsi.o)
 .data          0x0000000006003560        0x0 /home/vboxuser/Desktop/topst/buildtools/gcc-linaro-7.2.1-2017.11-x86_64_arm-eabi/arm-eabi/libc/usr/lib/libgcc.a(_arm_fixunsdfsi.o)
 .data          0x0000000006003560        0x0 /home/vboxuser/Desktop/topst/buildtools/gcc-linaro-7.2.1-2017.11-x86_64_arm-eabi/arm-eabi/libc/usr/lib/libgcc.a(_arm_addsubsf3.o)
 .data          0x0000000006003560        0x0 /home/vboxuser/Desktop/topst/buildtools/gcc-linaro-7.2.1-2017.11-x86_64_arm-eabi/arm-eabi/libc/usr/lib/libgcc.a(_arm_muldivsf3.o)
 .data          0x0000000006003560        0x0 /home/vboxuser/Desktop/topst/buildtools/gcc-linaro-7.2.1-2017.11-x86_64_arm-eabi/arm-eabi/libc/usr/lib/libgcc.a(_arm_fixunssfsi.o)
 .data          0x0000000006003560        0x0 /home/vboxuser/Desktop/topst/buildtools/gcc-linaro-7.2.1-2017.11-x86_64_arm-eabi/arm-eabi/libc/usr/lib/libgcc.a(_aeabi_uldivmod.o)
 .data          0x0000000006003560        0x0 /home/vboxuser/Desktop/topst/buildtools/gcc-linaro-7.2.1-2017.11-x86_64_arm-eabi/arm-eabi/libc/usr/lib/libgcc.a(_udivmoddi4.o)
 .data          0x0000000006003560        0x0 /home/vboxuser/Desktop/topst/buildtools/gcc-linaro-7.2.1-2017.11-x86_64_arm-eabi/arm-eabi/libc/usr/lib/libgcc.a(_clzdi2.o)
 .data          0x0000000006003560        0x0 /home/vboxuser/Desktop/topst/buildtools/gcc-linaro-7.2.1-2017.11-x86_64_arm-eabi/arm-eabi/libc/usr/lib/libgcc.a(_clzsi2.o)
 *(.data.*)
                0x0000000006003560                . = ALIGN (0x20)
                0x0000000006003560                __DATA_END__ = .

.bss            0x0000000006003560    0x3e964 load address 0x000000000828ca80
                0x0000000006003560                . = ALIGN (0x20)
                0x0000000006003560                __BSS_START__ = .
 *(.bss)
 .bss           0x0000000006003560      0x40c /home/vboxuser/Desktop/topst/cr5-bsp/sources/build/tcc805x/gcc/tcc805x-freertos-debug/obj/main.o
                0x0000000006003560                gALiveMsgOnOff
 .bss           0x000000000600396c     0x201c /home/vboxuser/Desktop/topst/cr5-bsp/sources/build/tcc805x/gcc/tcc805x-freertos-debug/obj/can_demo.o
 .bss           0x0000000006005988      0xad8 /home/vboxuser/Desktop/topst/cr5-bsp/sources/build/tcc805x/gcc/tcc805x-freertos-debug/obj/console.o
 .bss           0x0000000006006460     0x2228 /home/vboxuser/Desktop/topst/cr5-bsp/sources/build/tcc805x/gcc/tcc805x-freertos-debug/obj/fwug.o
 .bss           0x0000000006008688        0xc /home/vboxuser/Desktop/topst/cr5-bsp/sources/build/tcc805x/gcc/tcc805x-freertos-debug/obj/key_adc.o
 .bss           0x0000000006008694       0x1c /home/vboxuser/Desktop/topst/cr5-bsp/sources/build/tcc805x/gcc/tcc805x-freertos-debug/obj/key_gpio.o
 .bss           0x00000000060086b0        0x8 /home/vboxuser/Desktop/topst/cr5-bsp/sources/build/tcc805x/gcc/tcc805x-freertos-debug/obj/key_i2c.o
 .bss           0x00000000060086b8        0x0 /home/vboxuser/Desktop/topst/cr5-bsp/sources/build/tcc805x/gcc/tcc805x-freertos-debug/obj/key.o
 .bss           0x00000000060086b8      0x4a4 /home/vboxuser/Desktop/topst/cr5-bsp/sources/build/tcc805x/gcc/tcc805x-freertos-debug/obj/system_monitoring.o
 .bss           0x0000000006008b5c      0x84a /home/vboxuser/Desktop/topst/cr5-bsp/sources/build/tcc805x/gcc/tcc805x-freertos-debug/obj/bootctrl.o
 .bss           0x00000000060093a6        0x0 /home/vboxuser/Desktop/topst/cr5-bsp/sources/build/tcc805x/gcc/tcc805x-freertos-debug/obj/reset_demo.o
 .bss           0x00000000060093a6        0x4 /home/vboxuser/Desktop/topst/cr5-bsp/sources/build/tcc805x/gcc/tcc805x-freertos-debug/obj/adc_test.o
 *fill*         0x00000000060093aa        0x2 
 .bss           0x00000000060093ac        0x4 /home/vboxuser/Desktop/topst/cr5-bsp/sources/build/tcc805x/gcc/tcc805x-freertos-debug/obj/dse_test.o
 .bss           0x00000000060093b0        0x8 /home/vboxuser/Desktop/topst/cr5-bsp/sources/build/tcc805x/gcc/tcc805x-freertos-debug/obj/fmu_test.o
 .bss           0x00000000060093b8        0x0 /home/vboxuser/Desktop/topst/cr5-bsp/sources/build/tcc805x/gcc/tcc805x-freertos-debug/obj/gdma_test.o
 .bss           0x00000000060093b8        0x4 /home/vboxuser/Desktop/topst/cr5-bsp/sources/build/tcc805x/gcc/tcc805x-freertos-debug/obj/gic_test.o
 .bss           0x00000000060093bc        0x4 /home/vboxuser/Desktop/topst/cr5-bsp/sources/build/tcc805x/gcc/tcc805x-freertos-debug/obj/gpio_test.o
 .bss           0x00000000060093c0       0x20 /home/vboxuser/Desktop/topst/cr5-bsp/sources/build/tcc805x/gcc/tcc805x-freertos-debug/obj/gpsb_test.o
 .bss           0x00000000060093e0        0x0 /home/vboxuser/Desktop/topst/cr5-bsp/sources/build/tcc805x/gcc/tcc805x-freertos-debug/obj/hsm_test.o
 .bss           0x00000000060093e0        0x4 /home/vboxuser/Desktop/topst/cr5-bsp/sources/build/tcc805x/gcc/tcc805x-freertos-debug/obj/i2c_test.o
 .bss           0x00000000060093e4        0x0 /home/vboxuser/Desktop/topst/cr5-bsp/sources/build/tcc805x/gcc/tcc805x-freertos-debug/obj/ictc_test.o
 .bss           0x00000000060093e4        0x0 /home/vboxuser/Desktop/topst/cr5-bsp/sources/build/tcc805x/gcc/tcc805x-freertos-debug/obj/lin_test.o
 .bss           0x00000000060093e4        0x0 /home/vboxuser/Desktop/topst/cr5-bsp/sources/build/tcc805x/gcc/tcc805x-freertos-debug/obj/pdm_test.o
 .bss           0x00000000060093e4        0x0 /home/vboxuser/Desktop/topst/cr5-bsp/sources/build/tcc805x/gcc/tcc805x-freertos-debug/obj/pmio_test.o
 .bss           0x00000000060093e4       0x44 /home/vboxuser/Desktop/topst/cr5-bsp/sources/build/tcc805x/gcc/tcc805x-freertos-debug/obj/timer_test.o
                0x0000000006009424                delay_complete
 .bss           0x0000000006009428        0x8 /home/vboxuser/Desktop/topst/cr5-bsp/sources/build/tcc805x/gcc/tcc805x-freertos-debug/obj/wdt_test.o
 .bss           0x0000000006009430        0x0 /home/vboxuser/Desktop/topst/cr5-bsp/sources/build/tcc805x/gcc/tcc805x-freertos-debug/obj/pwm_test.o
 .bss           0x0000000006009430     0x100c /home/vboxuser/Desktop/topst/cr5-bsp/sources/build/tcc805x/gcc/tcc805x-freertos-debug/obj/Motor_System.o
                0x0000000006009430                Ultravalue
 .bss           0x000000000600a43c     0x2004 /home/vboxuser/Desktop/topst/cr5-bsp/sources/build/tcc805x/gcc/tcc805x-freertos-debug/obj/mptool.o
 .bss           0x000000000600c440       0xd0 /home/vboxuser/Desktop/topst/cr5-bsp/sources/build/tcc805x/gcc/tcc805x-freertos-debug/obj/ipc_os.o
 .bss           0x000000000600c510        0x0 /home/vboxuser/Desktop/topst/cr5-bsp/sources/build/tcc805x/gcc/tcc805x-freertos-debug/obj/ipc_buffer.o
 .bss           0x000000000600c510      0x890 /home/vboxuser/Desktop/topst/cr5-bsp/sources/build/tcc805x/gcc/tcc805x-freertos-debug/obj/ipc_cmd.o
 .bss           0x000000000600cda0     0x3980 /home/vboxuser/Desktop/topst/cr5-bsp/sources/build/tcc805x/gcc/tcc805x-freertos-debug/obj/ipc_ctl.o
                0x000000000600cda0                dev
                0x000000000600d630                gIPCHandler
 .bss           0x0000000006010720     0x1810 /home/vboxuser/Desktop/topst/cr5-bsp/sources/build/tcc805x/gcc/tcc805x-freertos-debug/obj/ipc_parser.o
 .bss           0x0000000006011f30      0x610 /home/vboxuser/Desktop/topst/cr5-bsp/sources/build/tcc805x/gcc/tcc805x-freertos-debug/obj/ipc_api.o
                0x0000000006011f60                cbFunc
 .bss           0x0000000006012540        0x0 /home/vboxuser/Desktop/topst/cr5-bsp/sources/build/tcc805x/gcc/tcc805x-freertos-debug/obj/ipc.o
 .bss           0x0000000006012540        0x0 /home/vboxuser/Desktop/topst/cr5-bsp/sources/build/tcc805x/gcc/tcc805x-freertos-debug/obj/lin.o
 .bss           0x0000000006012540        0x1 /home/vboxuser/Desktop/topst/cr5-bsp/sources/build/tcc805x/gcc/tcc805x-freertos-debug/obj/sdm.o
 *fill*         0x0000000006012541        0x3 
 .bss           0x0000000006012544        0x4 /home/vboxuser/Desktop/topst/cr5-bsp/sources/build/tcc805x/gcc/tcc805x-freertos-debug/obj/hsm_manager.o
 .bss           0x0000000006012548        0x0 /home/vboxuser/Desktop/topst/cr5-bsp/sources/build/tcc805x/gcc/tcc805x-freertos-debug/obj/adc.o
 .bss           0x0000000006012548      0x100 /home/vboxuser/Desktop/topst/cr5-bsp/sources/build/tcc805x/gcc/tcc805x-freertos-debug/obj/can.o
 .bss           0x0000000006012648        0x0 /home/vboxuser/Desktop/topst/cr5-bsp/sources/build/tcc805x/gcc/tcc805x-freertos-debug/obj/can_drv.o
 .bss           0x0000000006012648     0xbd30 /home/vboxuser/Desktop/topst/cr5-bsp/sources/build/tcc805x/gcc/tcc805x-freertos-debug/obj/can_msg.o
 .bss           0x000000000601e378        0xc /home/vboxuser/Desktop/topst/cr5-bsp/sources/build/tcc805x/gcc/tcc805x-freertos-debug/obj/can_par.o
                0x000000000601e378                CANCallbackFunctions
 .bss           0x000000000601e384        0x0 /home/vboxuser/Desktop/topst/cr5-bsp/sources/build/tcc805x/gcc/tcc805x-freertos-debug/obj/can_porting.o
 .bss           0x000000000601e384       0x1c /home/vboxuser/Desktop/topst/cr5-bsp/sources/build/tcc805x/gcc/tcc805x-freertos-debug/obj/clock_dev.o
 .bss           0x000000000601e3a0        0x0 /home/vboxuser/Desktop/topst/cr5-bsp/sources/build/tcc805x/gcc/tcc805x-freertos-debug/obj/debug.o
 .bss           0x000000000601e3a0        0x0 /home/vboxuser/Desktop/topst/cr5-bsp/sources/build/tcc805x/gcc/tcc805x-freertos-debug/obj/bsp.o
 .bss           0x000000000601e3a0      0x300 /home/vboxuser/Desktop/topst/cr5-bsp/sources/build/tcc805x/gcc/tcc805x-freertos-debug/obj/fmu.o
 .bss           0x000000000601e6a0        0x8 /home/vboxuser/Desktop/topst/cr5-bsp/sources/build/tcc805x/gcc/tcc805x-freertos-debug/obj/gdma.o
 .bss           0x000000000601e6a8     0x1800 /home/vboxuser/Desktop/topst/cr5-bsp/sources/build/tcc805x/gcc/tcc805x-freertos-debug/obj/gic.o
 .bss           0x000000000601fea8        0x0 /home/vboxuser/Desktop/topst/cr5-bsp/sources/build/tcc805x/gcc/tcc805x-freertos-debug/obj/gpio.o
 .bss           0x000000000601fea8        0x0 /home/vboxuser/Desktop/topst/cr5-bsp/sources/build/tcc805x/gcc/tcc805x-freertos-debug/obj/i2c.o
 .bss           0x000000000601fea8        0x0 /home/vboxuser/Desktop/topst/cr5-bsp/sources/build/tcc805x/gcc/tcc805x-freertos-debug/obj/i2c_reg.o
 .bss           0x000000000601fea8      0x198 /home/vboxuser/Desktop/topst/cr5-bsp/sources/build/tcc805x/gcc/tcc805x-freertos-debug/obj/ictc.o
 .bss           0x0000000006020040    0x1b32c /home/vboxuser/Desktop/topst/cr5-bsp/sources/build/tcc805x/gcc/tcc805x-freertos-debug/obj/mbox_phy.o
 .bss           0x000000000603b36c      0x334 /home/vboxuser/Desktop/topst/cr5-bsp/sources/build/tcc805x/gcc/tcc805x-freertos-debug/obj/mbox_dev.o
                0x000000000603b36c                spMboxDev
 .bss           0x000000000603b6a0       0x28 /home/vboxuser/Desktop/topst/cr5-bsp/sources/build/tcc805x/gcc/tcc805x-freertos-debug/obj/mbox.o
 .bss           0x000000000603b6c8        0x0 /home/vboxuser/Desktop/topst/cr5-bsp/sources/build/tcc805x/gcc/tcc805x-freertos-debug/obj/mpu.o
 .bss           0x000000000603b6c8      0x5d1 /home/vboxuser/Desktop/topst/cr5-bsp/sources/build/tcc805x/gcc/tcc805x-freertos-debug/obj/pdm.o
 *fill*         0x000000000603bc99        0x3 
 .bss           0x000000000603bc9c      0x460 /home/vboxuser/Desktop/topst/cr5-bsp/sources/build/tcc805x/gcc/tcc805x-freertos-debug/obj/pmio_dev.o
 .bss           0x000000000603c0fc       0x44 /home/vboxuser/Desktop/topst/cr5-bsp/sources/build/tcc805x/gcc/tcc805x-freertos-debug/obj/gpsb.o
 .bss           0x000000000603c140        0x0 /home/vboxuser/Desktop/topst/cr5-bsp/sources/build/tcc805x/gcc/tcc805x-freertos-debug/obj/gpsb_reg.o
 .bss           0x000000000603c140       0x4d /home/vboxuser/Desktop/topst/cr5-bsp/sources/build/tcc805x/gcc/tcc805x-freertos-debug/obj/timer.o
                0x000000000603c18c                delay_completed
 *fill*         0x000000000603c18d        0x3 
 .bss           0x000000000603c190      0xf08 /home/vboxuser/Desktop/topst/cr5-bsp/sources/build/tcc805x/gcc/tcc805x-freertos-debug/obj/uart.o
 .bss           0x000000000603d098        0x0 /home/vboxuser/Desktop/topst/cr5-bsp/sources/build/tcc805x/gcc/tcc805x-freertos-debug/obj/udma.o
 .bss           0x000000000603d098        0x1 /home/vboxuser/Desktop/topst/cr5-bsp/sources/build/tcc805x/gcc/tcc805x-freertos-debug/obj/wdt.o
 *fill*         0x000000000603d099        0x3 
 .bss           0x000000000603d09c        0x8 /home/vboxuser/Desktop/topst/cr5-bsp/sources/build/tcc805x/gcc/tcc805x-freertos-debug/obj/dse.o
                0x000000000603d09c                gWait_irq
 .bss           0x000000000603d0a4        0x1 /home/vboxuser/Desktop/topst/cr5-bsp/sources/build/tcc805x/gcc/tcc805x-freertos-debug/obj/midf.o
 *fill*         0x000000000603d0a5        0x3 
 .bss           0x000000000603d0a8     0x1008 /home/vboxuser/Desktop/topst/cr5-bsp/sources/build/tcc805x/gcc/tcc805x-freertos-debug/obj/pmu_reset.o
 .bss           0x000000000603e0b0      0x1e0 /home/vboxuser/Desktop/topst/cr5-bsp/sources/build/tcc805x/gcc/tcc805x-freertos-debug/obj/tasks.o
                0x000000000603e0b0                pxCurrentTCB
 .bss           0x000000000603e290        0x0 /home/vboxuser/Desktop/topst/cr5-bsp/sources/build/tcc805x/gcc/tcc805x-freertos-debug/obj/list.o
 .bss           0x000000000603e290       0x40 /home/vboxuser/Desktop/topst/cr5-bsp/sources/build/tcc805x/gcc/tcc805x-freertos-debug/obj/queue.o
                0x000000000603e290                xQueueRegistry
 .bss           0x000000000603e2d0        0x0 /home/vboxuser/Desktop/topst/cr5-bsp/sources/build/tcc805x/gcc/tcc805x-freertos-debug/obj/event_groups.o
 .bss           0x000000000603e2d0       0xd8 /home/vboxuser/Desktop/topst/cr5-bsp/sources/build/tcc805x/gcc/tcc805x-freertos-debug/obj/timers.o
 .bss           0x000000000603e3a8        0x0 /home/vboxuser/Desktop/topst/cr5-bsp/sources/build/tcc805x/gcc/tcc805x-freertos-debug/obj/stream_buffer.o
 .bss           0x000000000603e3a8     0x108c /home/vboxuser/Desktop/topst/cr5-bsp/sources/build/tcc805x/gcc/tcc805x-freertos-debug/obj/port.o
                0x000000000603e3a8                ulPortTaskHasFPUContext
                0x000000000603e3ac                ulPortYieldRequired
                0x000000000603e3b0                ulPortInterruptNesting
                0x000000000603e3b4                ucHeap
 .bss           0x000000000603f434       0x20 /home/vboxuser/Desktop/topst/cr5-bsp/sources/build/tcc805x/gcc/tcc805x-freertos-debug/obj/heap_5.o
 .bss           0x000000000603f454      0x144 /home/vboxuser/Desktop/topst/cr5-bsp/sources/build/tcc805x/gcc/tcc805x-freertos-debug/obj/sal_api.o
                0x000000000603f454                gSALCoreTable
                0x000000000603f458                gSALOSRunTable
                0x000000000603f45c                gSALMemoryTable
                0x000000000603f460                gSALFileTable
                0x000000000603f464                gSALDataStructTable
                0x000000000603f468                gSALSyncObjectTable
                0x000000000603f46c                gSALTaskTable
                0x000000000603f470                gSALSocketTable
                0x000000000603f474                gSALTraceTable
                0x000000000603f478                gSALEtcTable
 .bss           0x000000000603f598     0x255c /home/vboxuser/Desktop/topst/cr5-bsp/sources/build/tcc805x/gcc/tcc805x-freertos-debug/obj/sal_freertos_impl.o
 .bss           0x0000000006041af4       0x20 /home/vboxuser/Desktop/topst/cr5-bsp/sources/build/tcc805x/gcc/tcc805x-freertos-debug/obj/startup.o
 .bss           0x0000000006041b14        0x0 /home/vboxuser/Desktop/topst/cr5-bsp/sources/build/tcc805x/gcc/tcc805x-freertos-debug/obj/vector.o
 .bss           0x0000000006041b14        0x0 /home/vboxuser/Desktop/topst/cr5-bsp/sources/build/tcc805x/gcc/tcc805x-freertos-debug/obj/vfp_init.o
 .bss           0x0000000006041b14        0x0 /home/vboxuser/Desktop/topst/cr5-bsp/sources/build/tcc805x/gcc/tcc805x-freertos-debug/obj/arm_a.o
 .bss           0x0000000006041b14        0x0 /home/vboxuser/Desktop/topst/cr5-bsp/sources/build/tcc805x/gcc/tcc805x-freertos-debug/obj/portASM.o
 .bss           0x0000000006041b14        0x0 /home/vboxuser/Desktop/topst/cr5-bsp/sources/build/tcc805x/gcc/tcc805x-freertos-debug/obj/freertos.o
 .bss           0x0000000006041b14        0x0 /home/vboxuser/Desktop/topst/cr5-bsp/sources/build/tcc805x/gcc/tcc805x-freertos-debug/obj/sal.o
 .bss           0x0000000006041b14        0x0 /home/vboxuser/Desktop/topst/buildtools/gcc-linaro-7.2.1-2017.11-x86_64_arm-eabi/arm-eabi/libc/usr/lib/libc.a(lib_a-atoi.o)
 .bss           0x0000000006041b14        0x0 /home/vboxuser/Desktop/topst/buildtools/gcc-linaro-7.2.1-2017.11-x86_64_arm-eabi/arm-eabi/libc/usr/lib/libc.a(lib_a-atol.o)
 .bss           0x0000000006041b14        0x0 /home/vboxuser/Desktop/topst/buildtools/gcc-linaro-7.2.1-2017.11-x86_64_arm-eabi/arm-eabi/libc/usr/lib/libc.a(lib_a-memcmp.o)
 .bss           0x0000000006041b14        0x0 /home/vboxuser/Desktop/topst/buildtools/gcc-linaro-7.2.1-2017.11-x86_64_arm-eabi/arm-eabi/libc/usr/lib/libc.a(lib_a-memcpy-stub.o)
 .bss           0x0000000006041b14        0x0 /home/vboxuser/Desktop/topst/buildtools/gcc-linaro-7.2.1-2017.11-x86_64_arm-eabi/arm-eabi/libc/usr/lib/libc.a(lib_a-memset.o)
 .bss           0x0000000006041b14        0x0 /home/vboxuser/Desktop/topst/buildtools/gcc-linaro-7.2.1-2017.11-x86_64_arm-eabi/arm-eabi/libc/usr/lib/libc.a(lib_a-snprintf.o)
 .bss           0x0000000006041b14        0x0 /home/vboxuser/Desktop/topst/buildtools/gcc-linaro-7.2.1-2017.11-x86_64_arm-eabi/arm-eabi/libc/usr/lib/libc.a(lib_a-strlen-stub.o)
 .bss           0x0000000006041b14        0x0 /home/vboxuser/Desktop/topst/buildtools/gcc-linaro-7.2.1-2017.11-x86_64_arm-eabi/arm-eabi/libc/usr/lib/libc.a(lib_a-strncmp.o)
 .bss           0x0000000006041b14        0x0 /home/vboxuser/Desktop/topst/buildtools/gcc-linaro-7.2.1-2017.11-x86_64_arm-eabi/arm-eabi/libc/usr/lib/libc.a(lib_a-strncpy.o)
 .bss           0x0000000006041b14        0x0 /home/vboxuser/Desktop/topst/buildtools/gcc-linaro-7.2.1-2017.11-x86_64_arm-eabi/arm-eabi/libc/usr/lib/libc.a(lib_a-strnlen.o)
 .bss           0x0000000006041b14        0x0 /home/vboxuser/Desktop/topst/buildtools/gcc-linaro-7.2.1-2017.11-x86_64_arm-eabi/arm-eabi/libc/usr/lib/libc.a(lib_a-strtol.o)
 .bss           0x0000000006041b14        0x0 /home/vboxuser/Desktop/topst/buildtools/gcc-linaro-7.2.1-2017.11-x86_64_arm-eabi/arm-eabi/libc/usr/lib/libc.a(lib_a-strtoul.o)
 .bss           0x0000000006041b14        0x0 /home/vboxuser/Desktop/topst/buildtools/gcc-linaro-7.2.1-2017.11-x86_64_arm-eabi/arm-eabi/libc/usr/lib/libc.a(lib_a-svfprintf.o)
 .bss           0x0000000006041b14        0x0 /home/vboxuser/Desktop/topst/buildtools/gcc-linaro-7.2.1-2017.11-x86_64_arm-eabi/arm-eabi/libc/usr/lib/libc.a(lib_a-wcrtomb.o)
 .bss           0x0000000006041b14        0x0 /home/vboxuser/Desktop/topst/buildtools/gcc-linaro-7.2.1-2017.11-x86_64_arm-eabi/arm-eabi/libc/usr/lib/libc.a(lib_a-wcsrtombs.o)
 .bss           0x0000000006041b14        0x0 /home/vboxuser/Desktop/topst/buildtools/gcc-linaro-7.2.1-2017.11-x86_64_arm-eabi/arm-eabi/libc/usr/lib/libc.a(lib_a-dtoa.o)
 .bss           0x0000000006041b14        0x0 /home/vboxuser/Desktop/topst/buildtools/gcc-linaro-7.2.1-2017.11-x86_64_arm-eabi/arm-eabi/libc/usr/lib/libc.a(lib_a-freer.o)
 .bss           0x0000000006041b14        0x0 /home/vboxuser/Desktop/topst/buildtools/gcc-linaro-7.2.1-2017.11-x86_64_arm-eabi/arm-eabi/libc/usr/lib/libc.a(lib_a-impure.o)
 .bss           0x0000000006041b14      0x2ac /home/vboxuser/Desktop/topst/buildtools/gcc-linaro-7.2.1-2017.11-x86_64_arm-eabi/arm-eabi/libc/usr/lib/libc.a(lib_a-locale.o)
                0x0000000006041dbc                _PathLocale
 .bss           0x0000000006041dc0        0x0 /home/vboxuser/Desktop/topst/buildtools/gcc-linaro-7.2.1-2017.11-x86_64_arm-eabi/arm-eabi/libc/usr/lib/libc.a(lib_a-localeconv.o)
 .bss           0x0000000006041dc0       0x34 /home/vboxuser/Desktop/topst/buildtools/gcc-linaro-7.2.1-2017.11-x86_64_arm-eabi/arm-eabi/libc/usr/lib/libc.a(lib_a-mallocr.o)
                0x0000000006041dc0                __malloc_top_pad
                0x0000000006041dc4                __malloc_current_mallinfo
                0x0000000006041dec                __malloc_max_sbrked_mem
                0x0000000006041df0                __malloc_max_total_mem
 .bss           0x0000000006041df4        0x0 /home/vboxuser/Desktop/topst/buildtools/gcc-linaro-7.2.1-2017.11-x86_64_arm-eabi/arm-eabi/libc/usr/lib/libc.a(lib_a-mbtowc_r.o)
 .bss           0x0000000006041df4        0x0 /home/vboxuser/Desktop/topst/buildtools/gcc-linaro-7.2.1-2017.11-x86_64_arm-eabi/arm-eabi/libc/usr/lib/libc.a(lib_a-memchr-stub.o)
 .bss           0x0000000006041df4        0x0 /home/vboxuser/Desktop/topst/buildtools/gcc-linaro-7.2.1-2017.11-x86_64_arm-eabi/arm-eabi/libc/usr/lib/libc.a(lib_a-mlock.o)
 .bss           0x0000000006041df4        0x0 /home/vboxuser/Desktop/topst/buildtools/gcc-linaro-7.2.1-2017.11-x86_64_arm-eabi/arm-eabi/libc/usr/lib/libc.a(lib_a-mprec.o)
 .bss           0x0000000006041df4        0x0 /home/vboxuser/Desktop/topst/buildtools/gcc-linaro-7.2.1-2017.11-x86_64_arm-eabi/arm-eabi/libc/usr/lib/libc.a(lib_a-s_frexp.o)
 .bss           0x0000000006041df4        0x0 /home/vboxuser/Desktop/topst/buildtools/gcc-linaro-7.2.1-2017.11-x86_64_arm-eabi/arm-eabi/libc/usr/lib/libc.a(lib_a-sbrkr.o)
 .bss           0x0000000006041df4        0x0 /home/vboxuser/Desktop/topst/buildtools/gcc-linaro-7.2.1-2017.11-x86_64_arm-eabi/arm-eabi/libc/usr/lib/libc.a(lib_a-strcasecmp.o)
 .bss           0x0000000006041df4        0x0 /home/vboxuser/Desktop/topst/buildtools/gcc-linaro-7.2.1-2017.11-x86_64_arm-eabi/arm-eabi/libc/usr/lib/libc.a(lib_a-strcat.o)
 .bss           0x0000000006041df4        0x0 /home/vboxuser/Desktop/topst/buildtools/gcc-linaro-7.2.1-2017.11-x86_64_arm-eabi/arm-eabi/libc/usr/lib/libc.a(lib_a-strchr.o)
 .bss           0x0000000006041df4        0x0 /home/vboxuser/Desktop/topst/buildtools/gcc-linaro-7.2.1-2017.11-x86_64_arm-eabi/arm-eabi/libc/usr/lib/libc.a(lib_a-strcmp.o)
 .bss           0x0000000006041df4        0x0 /home/vboxuser/Desktop/topst/buildtools/gcc-linaro-7.2.1-2017.11-x86_64_arm-eabi/arm-eabi/libc/usr/lib/libc.a(lib_a-strcpy.o)
 .bss           0x0000000006041df4        0x0 /home/vboxuser/Desktop/topst/buildtools/gcc-linaro-7.2.1-2017.11-x86_64_arm-eabi/arm-eabi/libc/usr/lib/libc.a(lib_a-strlcpy.o)
 .bss           0x0000000006041df4        0x0 /home/vboxuser/Desktop/topst/buildtools/gcc-linaro-7.2.1-2017.11-x86_64_arm-eabi/arm-eabi/libc/usr/lib/libc.a(lib_a-strncasecmp.o)
 .bss           0x0000000006041df4        0x0 /home/vboxuser/Desktop/topst/buildtools/gcc-linaro-7.2.1-2017.11-x86_64_arm-eabi/arm-eabi/libc/usr/lib/libc.a(lib_a-svfiprintf.o)
 .bss           0x0000000006041df4       0xb0 /home/vboxuser/Desktop/topst/buildtools/gcc-linaro-7.2.1-2017.11-x86_64_arm-eabi/arm-eabi/libc/usr/lib/libc.a(lib_a-syscalls.o)
 .bss           0x0000000006041ea4        0x0 /home/vboxuser/Desktop/topst/buildtools/gcc-linaro-7.2.1-2017.11-x86_64_arm-eabi/arm-eabi/libc/usr/lib/libc.a(lib_a-wcsnrtombs.o)
 .bss           0x0000000006041ea4        0x0 /home/vboxuser/Desktop/topst/buildtools/gcc-linaro-7.2.1-2017.11-x86_64_arm-eabi/arm-eabi/libc/usr/lib/libc.a(lib_a-wctomb_r.o)
 .bss           0x0000000006041ea4        0x0 /home/vboxuser/Desktop/topst/buildtools/gcc-linaro-7.2.1-2017.11-x86_64_arm-eabi/arm-eabi/libc/usr/lib/libc.a(lib_a-callocr.o)
 .bss           0x0000000006041ea4        0x0 /home/vboxuser/Desktop/topst/buildtools/gcc-linaro-7.2.1-2017.11-x86_64_arm-eabi/arm-eabi/libc/usr/lib/libc.a(lib_a-ctype_.o)
 .bss           0x0000000006041ea4        0x0 /home/vboxuser/Desktop/topst/buildtools/gcc-linaro-7.2.1-2017.11-x86_64_arm-eabi/arm-eabi/libc/usr/lib/libc.a(lib_a-errno.o)
 .bss           0x0000000006041ea4        0x0 /home/vboxuser/Desktop/topst/buildtools/gcc-linaro-7.2.1-2017.11-x86_64_arm-eabi/arm-eabi/libc/usr/lib/libc.a(lib_a-findfp.o)
 .bss           0x0000000006041ea4        0x0 /home/vboxuser/Desktop/topst/buildtools/gcc-linaro-7.2.1-2017.11-x86_64_arm-eabi/arm-eabi/libc/usr/lib/libc.a(lib_a-fwalk.o)
 .bss           0x0000000006041ea4        0x0 /home/vboxuser/Desktop/topst/buildtools/gcc-linaro-7.2.1-2017.11-x86_64_arm-eabi/arm-eabi/libc/usr/lib/libc.a(lib_a-getenv_r.o)
 .bss           0x0000000006041ea4        0x0 /home/vboxuser/Desktop/topst/buildtools/gcc-linaro-7.2.1-2017.11-x86_64_arm-eabi/arm-eabi/libc/usr/lib/libc.a(lib_a-memmove.o)
 .bss           0x0000000006041ea4        0x0 /home/vboxuser/Desktop/topst/buildtools/gcc-linaro-7.2.1-2017.11-x86_64_arm-eabi/arm-eabi/libc/usr/lib/libc.a(lib_a-reallocr.o)
 .bss           0x0000000006041ea4        0x0 /home/vboxuser/Desktop/topst/buildtools/gcc-linaro-7.2.1-2017.11-x86_64_arm-eabi/arm-eabi/libc/usr/lib/libc.a(lib_a-reent.o)
 .bss           0x0000000006041ea4        0x0 /home/vboxuser/Desktop/topst/buildtools/gcc-linaro-7.2.1-2017.11-x86_64_arm-eabi/arm-eabi/libc/usr/lib/libc.a(lib_a-stdio.o)
 .bss           0x0000000006041ea4        0x0 /home/vboxuser/Desktop/topst/buildtools/gcc-linaro-7.2.1-2017.11-x86_64_arm-eabi/arm-eabi/libc/usr/lib/libc.a(lib_a-writer.o)
 .bss           0x0000000006041ea4        0x0 /home/vboxuser/Desktop/topst/buildtools/gcc-linaro-7.2.1-2017.11-x86_64_arm-eabi/arm-eabi/libc/usr/lib/libc.a(lib_a-closer.o)
 .bss           0x0000000006041ea4        0x4 /home/vboxuser/Desktop/topst/buildtools/gcc-linaro-7.2.1-2017.11-x86_64_arm-eabi/arm-eabi/libc/usr/lib/libc.a(lib_a-environ.o)
 .bss           0x0000000006041ea8        0x0 /home/vboxuser/Desktop/topst/buildtools/gcc-linaro-7.2.1-2017.11-x86_64_arm-eabi/arm-eabi/libc/usr/lib/libc.a(lib_a-envlock.o)
 .bss           0x0000000006041ea8        0x0 /home/vboxuser/Desktop/topst/buildtools/gcc-linaro-7.2.1-2017.11-x86_64_arm-eabi/arm-eabi/libc/usr/lib/libc.a(lib_a-fclose.o)
 .bss           0x0000000006041ea8        0x0 /home/vboxuser/Desktop/topst/buildtools/gcc-linaro-7.2.1-2017.11-x86_64_arm-eabi/arm-eabi/libc/usr/lib/libc.a(lib_a-fflush.o)
 .bss           0x0000000006041ea8        0x0 /home/vboxuser/Desktop/topst/buildtools/gcc-linaro-7.2.1-2017.11-x86_64_arm-eabi/arm-eabi/libc/usr/lib/libc.a(lib_a-lseekr.o)
 .bss           0x0000000006041ea8        0x0 /home/vboxuser/Desktop/topst/buildtools/gcc-linaro-7.2.1-2017.11-x86_64_arm-eabi/arm-eabi/libc/usr/lib/libc.a(lib_a-readr.o)
 .bss           0x0000000006041ea8        0x0 /home/vboxuser/Desktop/topst/buildtools/gcc-linaro-7.2.1-2017.11-x86_64_arm-eabi/arm-eabi/libc/usr/lib/libgcc.a(_udivsi3.o)
 .bss           0x0000000006041ea8        0x0 /home/vboxuser/Desktop/topst/buildtools/gcc-linaro-7.2.1-2017.11-x86_64_arm-eabi/arm-eabi/libc/usr/lib/libgcc.a(_dvmd_tls.o)
 .bss           0x0000000006041ea8        0x0 /home/vboxuser/Desktop/topst/buildtools/gcc-linaro-7.2.1-2017.11-x86_64_arm-eabi/arm-eabi/libc/usr/lib/libgcc.a(_arm_addsubdf3.o)
 .bss           0x0000000006041ea8        0x0 /home/vboxuser/Desktop/topst/buildtools/gcc-linaro-7.2.1-2017.11-x86_64_arm-eabi/arm-eabi/libc/usr/lib/libgcc.a(_arm_muldivdf3.o)
 .bss           0x0000000006041ea8        0x0 /home/vboxuser/Desktop/topst/buildtools/gcc-linaro-7.2.1-2017.11-x86_64_arm-eabi/arm-eabi/libc/usr/lib/libgcc.a(_arm_cmpdf2.o)
 .bss           0x0000000006041ea8        0x0 /home/vboxuser/Desktop/topst/buildtools/gcc-linaro-7.2.1-2017.11-x86_64_arm-eabi/arm-eabi/libc/usr/lib/libgcc.a(_arm_unorddf2.o)
 .bss           0x0000000006041ea8        0x0 /home/vboxuser/Desktop/topst/buildtools/gcc-linaro-7.2.1-2017.11-x86_64_arm-eabi/arm-eabi/libc/usr/lib/libgcc.a(_arm_fixdfsi.o)
 .bss           0x0000000006041ea8        0x0 /home/vboxuser/Desktop/topst/buildtools/gcc-linaro-7.2.1-2017.11-x86_64_arm-eabi/arm-eabi/libc/usr/lib/libgcc.a(_arm_fixunsdfsi.o)
 .bss           0x0000000006041ea8        0x0 /home/vboxuser/Desktop/topst/buildtools/gcc-linaro-7.2.1-2017.11-x86_64_arm-eabi/arm-eabi/libc/usr/lib/libgcc.a(_arm_addsubsf3.o)
 .bss           0x0000000006041ea8        0x0 /home/vboxuser/Desktop/topst/buildtools/gcc-linaro-7.2.1-2017.11-x86_64_arm-eabi/arm-eabi/libc/usr/lib/libgcc.a(_arm_muldivsf3.o)
 .bss           0x0000000006041ea8        0x0 /home/vboxuser/Desktop/topst/buildtools/gcc-linaro-7.2.1-2017.11-x86_64_arm-eabi/arm-eabi/libc/usr/lib/libgcc.a(_arm_fixunssfsi.o)
 .bss           0x0000000006041ea8        0x0 /home/vboxuser/Desktop/topst/buildtools/gcc-linaro-7.2.1-2017.11-x86_64_arm-eabi/arm-eabi/libc/usr/lib/libgcc.a(_aeabi_uldivmod.o)
 .bss           0x0000000006041ea8        0x0 /home/vboxuser/Desktop/topst/buildtools/gcc-linaro-7.2.1-2017.11-x86_64_arm-eabi/arm-eabi/libc/usr/lib/libgcc.a(_udivmoddi4.o)
 .bss           0x0000000006041ea8        0x0 /home/vboxuser/Desktop/topst/buildtools/gcc-linaro-7.2.1-2017.11-x86_64_arm-eabi/arm-eabi/libc/usr/lib/libgcc.a(_clzdi2.o)
 .bss           0x0000000006041ea8        0x0 /home/vboxuser/Desktop/topst/buildtools/gcc-linaro-7.2.1-2017.11-x86_64_arm-eabi/arm-eabi/libc/usr/lib/libgcc.a(_clzsi2.o)
 *(.bss.*)
                0x0000000006041ec0                . = ALIGN (0x20)
 *fill*         0x0000000006041ea8       0x18 
                0x0000000006041ec0                __BSS_END__ = .
 COMMON         0x0000000006041ec0        0x4 /home/vboxuser/Desktop/topst/buildtools/gcc-linaro-7.2.1-2017.11-x86_64_arm-eabi/arm-eabi/libc/usr/lib/libc.a(lib_a-reent.o)
                0x0000000006041ec0                errno

.arm_stack      0x000000000607b980      0x680
                0x000000000607b980                __stack_start = .
                0x000000000607c000                . = (. + 0x680)
 *fill*         0x000000000607b980      0x680 
                0x000000000607c000                _stack_end = .

.nc_dma         0x00000000c007c000     0x4000 load address 0x0000000006041ec4
                0x00000000c007c000                __nc_dmastart = .
                0x00000000c0080000                . = (. + DMA_NC_SIZE)
 *fill*         0x00000000c007c000     0x4000 
                0x00000000c0080000                _end_of_nc_dma = .
                0x00000000c0080000                _end = .
                0x00000000c0080000                __end = _end
                0x00000000c0080000                PROVIDE (end, .)

/DISCARD/
 *(.ARM.exidx* .ARM.extab* .glue* .vfp11_veneer .v4_bx .iplt .igot.* .rel.*)
LOAD /home/vboxuser/Desktop/topst/cr5-bsp/sources/build/tcc805x/gcc/tcc805x-freertos-debug/obj/main.o
LOAD /home/vboxuser/Desktop/topst/cr5-bsp/sources/build/tcc805x/gcc/tcc805x-freertos-debug/obj/can_demo.o
LOAD /home/vboxuser/Desktop/topst/cr5-bsp/sources/build/tcc805x/gcc/tcc805x-freertos-debug/obj/console.o
LOAD /home/vboxuser/Desktop/topst/cr5-bsp/sources/build/tcc805x/gcc/tcc805x-freertos-debug/obj/fwug.o
LOAD /home/vboxuser/Desktop/topst/cr5-bsp/sources/build/tcc805x/gcc/tcc805x-freertos-debug/obj/key_adc.o
LOAD /home/vboxuser/Desktop/topst/cr5-bsp/sources/build/tcc805x/gcc/tcc805x-freertos-debug/obj/key_gpio.o
LOAD /home/vboxuser/Desktop/topst/cr5-bsp/sources/build/tcc805x/gcc/tcc805x-freertos-debug/obj/key_i2c.o
LOAD /home/vboxuser/Desktop/topst/cr5-bsp/sources/build/tcc805x/gcc/tcc805x-freertos-debug/obj/key.o
LOAD /home/vboxuser/Desktop/topst/cr5-bsp/sources/build/tcc805x/gcc/tcc805x-freertos-debug/obj/system_monitoring.o
LOAD /home/vboxuser/Desktop/topst/cr5-bsp/sources/build/tcc805x/gcc/tcc805x-freertos-debug/obj/bootctrl.o
LOAD /home/vboxuser/Desktop/topst/cr5-bsp/sources/build/tcc805x/gcc/tcc805x-freertos-debug/obj/reset_demo.o
LOAD /home/vboxuser/Desktop/topst/cr5-bsp/sources/build/tcc805x/gcc/tcc805x-freertos-debug/obj/adc_test.o
LOAD /home/vboxuser/Desktop/topst/cr5-bsp/sources/build/tcc805x/gcc/tcc805x-freertos-debug/obj/dse_test.o
LOAD /home/vboxuser/Desktop/topst/cr5-bsp/sources/build/tcc805x/gcc/tcc805x-freertos-debug/obj/fmu_test.o
LOAD /home/vboxuser/Desktop/topst/cr5-bsp/sources/build/tcc805x/gcc/tcc805x-freertos-debug/obj/gdma_test.o
LOAD /home/vboxuser/Desktop/topst/cr5-bsp/sources/build/tcc805x/gcc/tcc805x-freertos-debug/obj/gic_test.o
LOAD /home/vboxuser/Desktop/topst/cr5-bsp/sources/build/tcc805x/gcc/tcc805x-freertos-debug/obj/gpio_test.o
LOAD /home/vboxuser/Desktop/topst/cr5-bsp/sources/build/tcc805x/gcc/tcc805x-freertos-debug/obj/gpsb_test.o
LOAD /home/vboxuser/Desktop/topst/cr5-bsp/sources/build/tcc805x/gcc/tcc805x-freertos-debug/obj/hsm_test.o
LOAD /home/vboxuser/Desktop/topst/cr5-bsp/sources/build/tcc805x/gcc/tcc805x-freertos-debug/obj/i2c_test.o
LOAD /home/vboxuser/Desktop/topst/cr5-bsp/sources/build/tcc805x/gcc/tcc805x-freertos-debug/obj/ictc_test.o
LOAD /home/vboxuser/Desktop/topst/cr5-bsp/sources/build/tcc805x/gcc/tcc805x-freertos-debug/obj/lin_test.o
LOAD /home/vboxuser/Desktop/topst/cr5-bsp/sources/build/tcc805x/gcc/tcc805x-freertos-debug/obj/pdm_test.o
LOAD /home/vboxuser/Desktop/topst/cr5-bsp/sources/build/tcc805x/gcc/tcc805x-freertos-debug/obj/pmio_test.o
LOAD /home/vboxuser/Desktop/topst/cr5-bsp/sources/build/tcc805x/gcc/tcc805x-freertos-debug/obj/timer_test.o
LOAD /home/vboxuser/Desktop/topst/cr5-bsp/sources/build/tcc805x/gcc/tcc805x-freertos-debug/obj/wdt_test.o
LOAD /home/vboxuser/Desktop/topst/cr5-bsp/sources/build/tcc805x/gcc/tcc805x-freertos-debug/obj/pwm_test.o
LOAD /home/vboxuser/Desktop/topst/cr5-bsp/sources/build/tcc805x/gcc/tcc805x-freertos-debug/obj/Motor_System.o
LOAD /home/vboxuser/Desktop/topst/cr5-bsp/sources/build/tcc805x/gcc/tcc805x-freertos-debug/obj/mptool.o
LOAD /home/vboxuser/Desktop/topst/cr5-bsp/sources/build/tcc805x/gcc/tcc805x-freertos-debug/obj/ipc_os.o
LOAD /home/vboxuser/Desktop/topst/cr5-bsp/sources/build/tcc805x/gcc/tcc805x-freertos-debug/obj/ipc_buffer.o
LOAD /home/vboxuser/Desktop/topst/cr5-bsp/sources/build/tcc805x/gcc/tcc805x-freertos-debug/obj/ipc_cmd.o
LOAD /home/vboxuser/Desktop/topst/cr5-bsp/sources/build/tcc805x/gcc/tcc805x-freertos-debug/obj/ipc_ctl.o
LOAD /home/vboxuser/Desktop/topst/cr5-bsp/sources/build/tcc805x/gcc/tcc805x-freertos-debug/obj/ipc_parser.o
LOAD /home/vboxuser/Desktop/topst/cr5-bsp/sources/build/tcc805x/gcc/tcc805x-freertos-debug/obj/ipc_api.o
LOAD /home/vboxuser/Desktop/topst/cr5-bsp/sources/build/tcc805x/gcc/tcc805x-freertos-debug/obj/ipc.o
LOAD /home/vboxuser/Desktop/topst/cr5-bsp/sources/build/tcc805x/gcc/tcc805x-freertos-debug/obj/lin.o
LOAD /home/vboxuser/Desktop/topst/cr5-bsp/sources/build/tcc805x/gcc/tcc805x-freertos-debug/obj/sdm.o
LOAD /home/vboxuser/Desktop/topst/cr5-bsp/sources/build/tcc805x/gcc/tcc805x-freertos-debug/obj/hsm_manager.o
LOAD /home/vboxuser/Desktop/topst/cr5-bsp/sources/build/tcc805x/gcc/tcc805x-freertos-debug/obj/adc.o
LOAD /home/vboxuser/Desktop/topst/cr5-bsp/sources/build/tcc805x/gcc/tcc805x-freertos-debug/obj/can.o
LOAD /home/vboxuser/Desktop/topst/cr5-bsp/sources/build/tcc805x/gcc/tcc805x-freertos-debug/obj/can_drv.o
LOAD /home/vboxuser/Desktop/topst/cr5-bsp/sources/build/tcc805x/gcc/tcc805x-freertos-debug/obj/can_msg.o
LOAD /home/vboxuser/Desktop/topst/cr5-bsp/sources/build/tcc805x/gcc/tcc805x-freertos-debug/obj/can_par.o
LOAD /home/vboxuser/Desktop/topst/cr5-bsp/sources/build/tcc805x/gcc/tcc805x-freertos-debug/obj/can_porting.o
LOAD /home/vboxuser/Desktop/topst/cr5-bsp/sources/build/tcc805x/gcc/tcc805x-freertos-debug/obj/clock_dev.o
LOAD /home/vboxuser/Desktop/topst/cr5-bsp/sources/build/tcc805x/gcc/tcc805x-freertos-debug/obj/debug.o
LOAD /home/vboxuser/Desktop/topst/cr5-bsp/sources/build/tcc805x/gcc/tcc805x-freertos-debug/obj/bsp.o
LOAD /home/vboxuser/Desktop/topst/cr5-bsp/sources/build/tcc805x/gcc/tcc805x-freertos-debug/obj/fmu.o
LOAD /home/vboxuser/Desktop/topst/cr5-bsp/sources/build/tcc805x/gcc/tcc805x-freertos-debug/obj/gdma.o
LOAD /home/vboxuser/Desktop/topst/cr5-bsp/sources/build/tcc805x/gcc/tcc805x-freertos-debug/obj/gic.o
LOAD /home/vboxuser/Desktop/topst/cr5-bsp/sources/build/tcc805x/gcc/tcc805x-freertos-debug/obj/gpio.o
LOAD /home/vboxuser/Desktop/topst/cr5-bsp/sources/build/tcc805x/gcc/tcc805x-freertos-debug/obj/i2c.o
LOAD /home/vboxuser/Desktop/topst/cr5-bsp/sources/build/tcc805x/gcc/tcc805x-freertos-debug/obj/i2c_reg.o
LOAD /home/vboxuser/Desktop/topst/cr5-bsp/sources/build/tcc805x/gcc/tcc805x-freertos-debug/obj/ictc.o
LOAD /home/vboxuser/Desktop/topst/cr5-bsp/sources/build/tcc805x/gcc/tcc805x-freertos-debug/obj/mbox_phy.o
LOAD /home/vboxuser/Desktop/topst/cr5-bsp/sources/build/tcc805x/gcc/tcc805x-freertos-debug/obj/mbox_dev.o
LOAD /home/vboxuser/Desktop/topst/cr5-bsp/sources/build/tcc805x/gcc/tcc805x-freertos-debug/obj/mbox.o
LOAD /home/vboxuser/Desktop/topst/cr5-bsp/sources/build/tcc805x/gcc/tcc805x-freertos-debug/obj/mpu.o
LOAD /home/vboxuser/Desktop/topst/cr5-bsp/sources/build/tcc805x/gcc/tcc805x-freertos-debug/obj/pdm.o
LOAD /home/vboxuser/Desktop/topst/cr5-bsp/sources/build/tcc805x/gcc/tcc805x-freertos-debug/obj/pmio_dev.o
LOAD /home/vboxuser/Desktop/topst/cr5-bsp/sources/build/tcc805x/gcc/tcc805x-freertos-debug/obj/gpsb.o
LOAD /home/vboxuser/Desktop/topst/cr5-bsp/sources/build/tcc805x/gcc/tcc805x-freertos-debug/obj/gpsb_reg.o
LOAD /home/vboxuser/Desktop/topst/cr5-bsp/sources/build/tcc805x/gcc/tcc805x-freertos-debug/obj/timer.o
LOAD /home/vboxuser/Desktop/topst/cr5-bsp/sources/build/tcc805x/gcc/tcc805x-freertos-debug/obj/uart.o
LOAD /home/vboxuser/Desktop/topst/cr5-bsp/sources/build/tcc805x/gcc/tcc805x-freertos-debug/obj/udma.o
LOAD /home/vboxuser/Desktop/topst/cr5-bsp/sources/build/tcc805x/gcc/tcc805x-freertos-debug/obj/wdt.o
LOAD /home/vboxuser/Desktop/topst/cr5-bsp/sources/build/tcc805x/gcc/tcc805x-freertos-debug/obj/dse.o
LOAD /home/vboxuser/Desktop/topst/cr5-bsp/sources/build/tcc805x/gcc/tcc805x-freertos-debug/obj/midf.o
LOAD /home/vboxuser/Desktop/topst/cr5-bsp/sources/build/tcc805x/gcc/tcc805x-freertos-debug/obj/pmu_reset.o
LOAD /home/vboxuser/Desktop/topst/cr5-bsp/sources/build/tcc805x/gcc/tcc805x-freertos-debug/obj/tasks.o
LOAD /home/vboxuser/Desktop/topst/cr5-bsp/sources/build/tcc805x/gcc/tcc805x-freertos-debug/obj/list.o
LOAD /home/vboxuser/Desktop/topst/cr5-bsp/sources/build/tcc805x/gcc/tcc805x-freertos-debug/obj/queue.o
LOAD /home/vboxuser/Desktop/topst/cr5-bsp/sources/build/tcc805x/gcc/tcc805x-freertos-debug/obj/event_groups.o
LOAD /home/vboxuser/Desktop/topst/cr5-bsp/sources/build/tcc805x/gcc/tcc805x-freertos-debug/obj/timers.o
LOAD /home/vboxuser/Desktop/topst/cr5-bsp/sources/build/tcc805x/gcc/tcc805x-freertos-debug/obj/stream_buffer.o
LOAD /home/vboxuser/Desktop/topst/cr5-bsp/sources/build/tcc805x/gcc/tcc805x-freertos-debug/obj/port.o
LOAD /home/vboxuser/Desktop/topst/cr5-bsp/sources/build/tcc805x/gcc/tcc805x-freertos-debug/obj/heap_5.o
LOAD /home/vboxuser/Desktop/topst/cr5-bsp/sources/build/tcc805x/gcc/tcc805x-freertos-debug/obj/sal_api.o
LOAD /home/vboxuser/Desktop/topst/cr5-bsp/sources/build/tcc805x/gcc/tcc805x-freertos-debug/obj/sal_freertos_impl.o
LOAD /home/vboxuser/Desktop/topst/cr5-bsp/sources/build/tcc805x/gcc/tcc805x-freertos-debug/obj/startup.o
LOAD /home/vboxuser/Desktop/topst/cr5-bsp/sources/build/tcc805x/gcc/tcc805x-freertos-debug/obj/vector.o
LOAD /home/vboxuser/Desktop/topst/cr5-bsp/sources/build/tcc805x/gcc/tcc805x-freertos-debug/obj/vfp_init.o
LOAD /home/vboxuser/Desktop/topst/cr5-bsp/sources/build/tcc805x/gcc/tcc805x-freertos-debug/obj/arm_a.o
LOAD /home/vboxuser/Desktop/topst/cr5-bsp/sources/build/tcc805x/gcc/tcc805x-freertos-debug/obj/portASM.o
LOAD /home/vboxuser/Desktop/topst/cr5-bsp/sources/build/tcc805x/gcc/tcc805x-freertos-debug/obj/freertos.o
LOAD /home/vboxuser/Desktop/topst/cr5-bsp/sources/build/tcc805x/gcc/tcc805x-freertos-debug/obj/sal.o
LOAD /home/vboxuser/Desktop/topst/buildtools/gcc-linaro-7.2.1-2017.11-x86_64_arm-eabi/arm-eabi/libc/usr/lib/libc.a
LOAD /home/vboxuser/Desktop/topst/buildtools/gcc-linaro-7.2.1-2017.11-x86_64_arm-eabi/arm-eabi/libc/usr/lib/libm.a
LOAD /home/vboxuser/Desktop/topst/buildtools/gcc-linaro-7.2.1-2017.11-x86_64_arm-eabi/arm-eabi/libc/usr/lib/libgcc.a
OUTPUT(/home/vboxuser/Desktop/topst/cr5-bsp/sources/build/tcc805x/gcc/tcc805x-freertos-debug/boot elf32-littlearm)

.debug_info     0x0000000000000000    0xcf2bc
 .debug_info    0x0000000000000000     0x1faf /home/vboxuser/Desktop/topst/cr5-bsp/sources/build/tcc805x/gcc/tcc805x-freertos-debug/obj/main.o
 .debug_info    0x0000000000001faf     0x1bfe /home/vboxuser/Desktop/topst/cr5-bsp/sources/build/tcc805x/gcc/tcc805x-freertos-debug/obj/can_demo.o
 .debug_info    0x0000000000003bad     0x374f /home/vboxuser/Desktop/topst/cr5-bsp/sources/build/tcc805x/gcc/tcc805x-freertos-debug/obj/console.o
 .debug_info    0x00000000000072fc     0x1b42 /home/vboxuser/Desktop/topst/cr5-bsp/sources/build/tcc805x/gcc/tcc805x-freertos-debug/obj/fwug.o
 .debug_info    0x0000000000008e3e     0x1759 /home/vboxuser/Desktop/topst/cr5-bsp/sources/build/tcc805x/gcc/tcc805x-freertos-debug/obj/key_adc.o
 .debug_info    0x000000000000a597     0x1692 /home/vboxuser/Desktop/topst/cr5-bsp/sources/build/tcc805x/gcc/tcc805x-freertos-debug/obj/key_gpio.o
 .debug_info    0x000000000000bc29     0x1873 /home/vboxuser/Desktop/topst/cr5-bsp/sources/build/tcc805x/gcc/tcc805x-freertos-debug/obj/key_i2c.o
 .debug_info    0x000000000000d49c     0x1777 /home/vboxuser/Desktop/topst/cr5-bsp/sources/build/tcc805x/gcc/tcc805x-freertos-debug/obj/system_monitoring.o
 .debug_info    0x000000000000ec13     0x1807 /home/vboxuser/Desktop/topst/cr5-bsp/sources/build/tcc805x/gcc/tcc805x-freertos-debug/obj/bootctrl.o
 .debug_info    0x000000000001041a     0x145e /home/vboxuser/Desktop/topst/cr5-bsp/sources/build/tcc805x/gcc/tcc805x-freertos-debug/obj/reset_demo.o
 .debug_info    0x0000000000011878     0x2a1a /home/vboxuser/Desktop/topst/cr5-bsp/sources/build/tcc805x/gcc/tcc805x-freertos-debug/obj/adc_test.o
 .debug_info    0x0000000000014292     0x1702 /home/vboxuser/Desktop/topst/cr5-bsp/sources/build/tcc805x/gcc/tcc805x-freertos-debug/obj/dse_test.o
 .debug_info    0x0000000000015994     0x216b /home/vboxuser/Desktop/topst/cr5-bsp/sources/build/tcc805x/gcc/tcc805x-freertos-debug/obj/fmu_test.o
 .debug_info    0x0000000000017aff     0x14de /home/vboxuser/Desktop/topst/cr5-bsp/sources/build/tcc805x/gcc/tcc805x-freertos-debug/obj/gdma_test.o
 .debug_info    0x0000000000018fdd     0x14f0 /home/vboxuser/Desktop/topst/cr5-bsp/sources/build/tcc805x/gcc/tcc805x-freertos-debug/obj/gic_test.o
 .debug_info    0x000000000001a4cd     0x152a /home/vboxuser/Desktop/topst/cr5-bsp/sources/build/tcc805x/gcc/tcc805x-freertos-debug/obj/gpio_test.o
 .debug_info    0x000000000001b9f7     0x20e9 /home/vboxuser/Desktop/topst/cr5-bsp/sources/build/tcc805x/gcc/tcc805x-freertos-debug/obj/gpsb_test.o
 .debug_info    0x000000000001dae0     0x2961 /home/vboxuser/Desktop/topst/cr5-bsp/sources/build/tcc805x/gcc/tcc805x-freertos-debug/obj/hsm_test.o
 .debug_info    0x0000000000020441     0x19c7 /home/vboxuser/Desktop/topst/cr5-bsp/sources/build/tcc805x/gcc/tcc805x-freertos-debug/obj/i2c_test.o
 .debug_info    0x0000000000021e08     0x14db /home/vboxuser/Desktop/topst/cr5-bsp/sources/build/tcc805x/gcc/tcc805x-freertos-debug/obj/ictc_test.o
 .debug_info    0x00000000000232e3     0x1568 /home/vboxuser/Desktop/topst/cr5-bsp/sources/build/tcc805x/gcc/tcc805x-freertos-debug/obj/lin_test.o
 .debug_info    0x000000000002484b     0x1606 /home/vboxuser/Desktop/topst/cr5-bsp/sources/build/tcc805x/gcc/tcc805x-freertos-debug/obj/pdm_test.o
 .debug_info    0x0000000000025e51     0x204a /home/vboxuser/Desktop/topst/cr5-bsp/sources/build/tcc805x/gcc/tcc805x-freertos-debug/obj/pmio_test.o
 .debug_info    0x0000000000027e9b     0x1de6 /home/vboxuser/Desktop/topst/cr5-bsp/sources/build/tcc805x/gcc/tcc805x-freertos-debug/obj/timer_test.o
 .debug_info    0x0000000000029c81     0x1c64 /home/vboxuser/Desktop/topst/cr5-bsp/sources/build/tcc805x/gcc/tcc805x-freertos-debug/obj/wdt_test.o
 .debug_info    0x000000000002b8e5     0x167b /home/vboxuser/Desktop/topst/cr5-bsp/sources/build/tcc805x/gcc/tcc805x-freertos-debug/obj/pwm_test.o
 .debug_info    0x000000000002cf60     0x205a /home/vboxuser/Desktop/topst/cr5-bsp/sources/build/tcc805x/gcc/tcc805x-freertos-debug/obj/Motor_System.o
 .debug_info    0x000000000002efba     0x149f /home/vboxuser/Desktop/topst/cr5-bsp/sources/build/tcc805x/gcc/tcc805x-freertos-debug/obj/mptool.o
 .debug_info    0x0000000000030459     0x1dd9 /home/vboxuser/Desktop/topst/cr5-bsp/sources/build/tcc805x/gcc/tcc805x-freertos-debug/obj/ipc_os.o
 .debug_info    0x0000000000032232     0x1ac7 /home/vboxuser/Desktop/topst/cr5-bsp/sources/build/tcc805x/gcc/tcc805x-freertos-debug/obj/ipc_buffer.o
 .debug_info    0x0000000000033cf9     0x19a5 /home/vboxuser/Desktop/topst/cr5-bsp/sources/build/tcc805x/gcc/tcc805x-freertos-debug/obj/ipc_cmd.o
 .debug_info    0x000000000003569e     0x2216 /home/vboxuser/Desktop/topst/cr5-bsp/sources/build/tcc805x/gcc/tcc805x-freertos-debug/obj/ipc_ctl.o
 .debug_info    0x00000000000378b4     0x174b /home/vboxuser/Desktop/topst/cr5-bsp/sources/build/tcc805x/gcc/tcc805x-freertos-debug/obj/ipc_parser.o
 .debug_info    0x0000000000038fff     0x1d4a /home/vboxuser/Desktop/topst/cr5-bsp/sources/build/tcc805x/gcc/tcc805x-freertos-debug/obj/ipc_api.o
 .debug_info    0x000000000003ad49     0x162a /home/vboxuser/Desktop/topst/cr5-bsp/sources/build/tcc805x/gcc/tcc805x-freertos-debug/obj/ipc.o
 .debug_info    0x000000000003c373     0x1931 /home/vboxuser/Desktop/topst/cr5-bsp/sources/build/tcc805x/gcc/tcc805x-freertos-debug/obj/lin.o
 .debug_info    0x000000000003dca4     0x1a0b /home/vboxuser/Desktop/topst/cr5-bsp/sources/build/tcc805x/gcc/tcc805x-freertos-debug/obj/sdm.o
 .debug_info    0x000000000003f6af     0x2b00 /home/vboxuser/Desktop/topst/cr5-bsp/sources/build/tcc805x/gcc/tcc805x-freertos-debug/obj/hsm_manager.o
 .debug_info    0x00000000000421af     0x1a65 /home/vboxuser/Desktop/topst/cr5-bsp/sources/build/tcc805x/gcc/tcc805x-freertos-debug/obj/adc.o
 .debug_info    0x0000000000043c14     0x48ce /home/vboxuser/Desktop/topst/cr5-bsp/sources/build/tcc805x/gcc/tcc805x-freertos-debug/obj/can.o
 .debug_info    0x00000000000484e2     0x4f78 /home/vboxuser/Desktop/topst/cr5-bsp/sources/build/tcc805x/gcc/tcc805x-freertos-debug/obj/can_drv.o
 .debug_info    0x000000000004d45a     0x4f93 /home/vboxuser/Desktop/topst/cr5-bsp/sources/build/tcc805x/gcc/tcc805x-freertos-debug/obj/can_msg.o
 .debug_info    0x00000000000523ed     0x1a5d /home/vboxuser/Desktop/topst/cr5-bsp/sources/build/tcc805x/gcc/tcc805x-freertos-debug/obj/can_par.o
 .debug_info    0x0000000000053e4a     0x4d84 /home/vboxuser/Desktop/topst/cr5-bsp/sources/build/tcc805x/gcc/tcc805x-freertos-debug/obj/can_porting.o
 .debug_info    0x0000000000058bce     0x2e6a /home/vboxuser/Desktop/topst/cr5-bsp/sources/build/tcc805x/gcc/tcc805x-freertos-debug/obj/clock_dev.o
 .debug_info    0x000000000005ba38     0x17f8 /home/vboxuser/Desktop/topst/cr5-bsp/sources/build/tcc805x/gcc/tcc805x-freertos-debug/obj/debug.o
 .debug_info    0x000000000005d230     0x1653 /home/vboxuser/Desktop/topst/cr5-bsp/sources/build/tcc805x/gcc/tcc805x-freertos-debug/obj/bsp.o
 .debug_info    0x000000000005e883     0x2847 /home/vboxuser/Desktop/topst/cr5-bsp/sources/build/tcc805x/gcc/tcc805x-freertos-debug/obj/fmu.o
 .debug_info    0x00000000000610ca     0x1e66 /home/vboxuser/Desktop/topst/cr5-bsp/sources/build/tcc805x/gcc/tcc805x-freertos-debug/obj/gdma.o
 .debug_info    0x0000000000062f30     0x1fcb /home/vboxuser/Desktop/topst/cr5-bsp/sources/build/tcc805x/gcc/tcc805x-freertos-debug/obj/gic.o
 .debug_info    0x0000000000064efb     0x16dd /home/vboxuser/Desktop/topst/cr5-bsp/sources/build/tcc805x/gcc/tcc805x-freertos-debug/obj/gpio.o
 .debug_info    0x00000000000665d8     0x2445 /home/vboxuser/Desktop/topst/cr5-bsp/sources/build/tcc805x/gcc/tcc805x-freertos-debug/obj/i2c.o
 .debug_info    0x0000000000068a1d     0x18db /home/vboxuser/Desktop/topst/cr5-bsp/sources/build/tcc805x/gcc/tcc805x-freertos-debug/obj/i2c_reg.o
 .debug_info    0x000000000006a2f8     0x208e /home/vboxuser/Desktop/topst/cr5-bsp/sources/build/tcc805x/gcc/tcc805x-freertos-debug/obj/ictc.o
 .debug_info    0x000000000006c386     0x2791 /home/vboxuser/Desktop/topst/cr5-bsp/sources/build/tcc805x/gcc/tcc805x-freertos-debug/obj/mbox_phy.o
 .debug_info    0x000000000006eb17     0x35ce /home/vboxuser/Desktop/topst/cr5-bsp/sources/build/tcc805x/gcc/tcc805x-freertos-debug/obj/mbox_dev.o
 .debug_info    0x00000000000720e5     0x2228 /home/vboxuser/Desktop/topst/cr5-bsp/sources/build/tcc805x/gcc/tcc805x-freertos-debug/obj/mbox.o
 .debug_info    0x000000000007430d     0x15b8 /home/vboxuser/Desktop/topst/cr5-bsp/sources/build/tcc805x/gcc/tcc805x-freertos-debug/obj/mpu.o
 .debug_info    0x00000000000758c5     0x27bf /home/vboxuser/Desktop/topst/cr5-bsp/sources/build/tcc805x/gcc/tcc805x-freertos-debug/obj/pdm.o
 .debug_info    0x0000000000078084     0x2e02 /home/vboxuser/Desktop/topst/cr5-bsp/sources/build/tcc805x/gcc/tcc805x-freertos-debug/obj/pmio_dev.o
 .debug_info    0x000000000007ae86     0x31e6 /home/vboxuser/Desktop/topst/cr5-bsp/sources/build/tcc805x/gcc/tcc805x-freertos-debug/obj/gpsb.o
 .debug_info    0x000000000007e06c     0x1912 /home/vboxuser/Desktop/topst/cr5-bsp/sources/build/tcc805x/gcc/tcc805x-freertos-debug/obj/gpsb_reg.o
 .debug_info    0x000000000007f97e     0x1ed3 /home/vboxuser/Desktop/topst/cr5-bsp/sources/build/tcc805x/gcc/tcc805x-freertos-debug/obj/timer.o
 .debug_info    0x0000000000081851     0x2fe6 /home/vboxuser/Desktop/topst/cr5-bsp/sources/build/tcc805x/gcc/tcc805x-freertos-debug/obj/uart.o
 .debug_info    0x0000000000084837     0x2198 /home/vboxuser/Desktop/topst/cr5-bsp/sources/build/tcc805x/gcc/tcc805x-freertos-debug/obj/udma.o
 .debug_info    0x00000000000869cf     0x1c3b /home/vboxuser/Desktop/topst/cr5-bsp/sources/build/tcc805x/gcc/tcc805x-freertos-debug/obj/wdt.o
 .debug_info    0x000000000008860a     0x194b /home/vboxuser/Desktop/topst/cr5-bsp/sources/build/tcc805x/gcc/tcc805x-freertos-debug/obj/dse.o
 .debug_info    0x0000000000089f55     0x18f2 /home/vboxuser/Desktop/topst/cr5-bsp/sources/build/tcc805x/gcc/tcc805x-freertos-debug/obj/midf.o
 .debug_info    0x000000000008b847     0x1887 /home/vboxuser/Desktop/topst/cr5-bsp/sources/build/tcc805x/gcc/tcc805x-freertos-debug/obj/pmu_reset.o
 .debug_info    0x000000000008d0ce     0x22d6 /home/vboxuser/Desktop/topst/cr5-bsp/sources/build/tcc805x/gcc/tcc805x-freertos-debug/obj/tasks.o
 .debug_info    0x000000000008f3a4      0xbe3 /home/vboxuser/Desktop/topst/cr5-bsp/sources/build/tcc805x/gcc/tcc805x-freertos-debug/obj/list.o
 .debug_info    0x000000000008ff87     0x1ee8 /home/vboxuser/Desktop/topst/cr5-bsp/sources/build/tcc805x/gcc/tcc805x-freertos-debug/obj/queue.o
 .debug_info    0x0000000000091e6f     0x10e3 /home/vboxuser/Desktop/topst/cr5-bsp/sources/build/tcc805x/gcc/tcc805x-freertos-debug/obj/event_groups.o
 .debug_info    0x0000000000092f52     0x1988 /home/vboxuser/Desktop/topst/cr5-bsp/sources/build/tcc805x/gcc/tcc805x-freertos-debug/obj/timers.o
 .debug_info    0x00000000000948da     0x15bb /home/vboxuser/Desktop/topst/cr5-bsp/sources/build/tcc805x/gcc/tcc805x-freertos-debug/obj/stream_buffer.o
 .debug_info    0x0000000000095e95     0x2690 /home/vboxuser/Desktop/topst/cr5-bsp/sources/build/tcc805x/gcc/tcc805x-freertos-debug/obj/port.o
 .debug_info    0x0000000000098525      0xd9d /home/vboxuser/Desktop/topst/cr5-bsp/sources/build/tcc805x/gcc/tcc805x-freertos-debug/obj/heap_5.o
 .debug_info    0x00000000000992c2     0x1543 /home/vboxuser/Desktop/topst/cr5-bsp/sources/build/tcc805x/gcc/tcc805x-freertos-debug/obj/sal_api.o
 .debug_info    0x000000000009a805     0x33e1 /home/vboxuser/Desktop/topst/cr5-bsp/sources/build/tcc805x/gcc/tcc805x-freertos-debug/obj/sal_freertos_impl.o
 .debug_info    0x000000000009dbe6       0xa8 /home/vboxuser/Desktop/topst/cr5-bsp/sources/build/tcc805x/gcc/tcc805x-freertos-debug/obj/startup.o
 .debug_info    0x000000000009dc8e       0xa7 /home/vboxuser/Desktop/topst/cr5-bsp/sources/build/tcc805x/gcc/tcc805x-freertos-debug/obj/vector.o
 .debug_info    0x000000000009dd35       0xa9 /home/vboxuser/Desktop/topst/cr5-bsp/sources/build/tcc805x/gcc/tcc805x-freertos-debug/obj/vfp_init.o
 .debug_info    0x000000000009ddde       0xa6 /home/vboxuser/Desktop/topst/cr5-bsp/sources/build/tcc805x/gcc/tcc805x-freertos-debug/obj/arm_a.o
 .debug_info    0x000000000009de84       0xc0 /home/vboxuser/Desktop/topst/cr5-bsp/sources/build/tcc805x/gcc/tcc805x-freertos-debug/obj/portASM.o
 .debug_info    0x000000000009df44       0xc1 /home/vboxuser/Desktop/topst/cr5-bsp/sources/build/tcc805x/gcc/tcc805x-freertos-debug/obj/freertos.o
 .debug_info    0x000000000009e005       0x9e /home/vboxuser/Desktop/topst/cr5-bsp/sources/build/tcc805x/gcc/tcc805x-freertos-debug/obj/sal.o
 .debug_info    0x000000000009e0a3      0x945 /home/vboxuser/Desktop/topst/buildtools/gcc-linaro-7.2.1-2017.11-x86_64_arm-eabi/arm-eabi/libc/usr/lib/libc.a(lib_a-atoi.o)
 .debug_info    0x000000000009e9e8      0x945 /home/vboxuser/Desktop/topst/buildtools/gcc-linaro-7.2.1-2017.11-x86_64_arm-eabi/arm-eabi/libc/usr/lib/libc.a(lib_a-atol.o)
 .debug_info    0x000000000009f32d      0x91d /home/vboxuser/Desktop/topst/buildtools/gcc-linaro-7.2.1-2017.11-x86_64_arm-eabi/arm-eabi/libc/usr/lib/libc.a(lib_a-memcmp.o)
 .debug_info    0x000000000009fc4a      0x938 /home/vboxuser/Desktop/topst/buildtools/gcc-linaro-7.2.1-2017.11-x86_64_arm-eabi/arm-eabi/libc/usr/lib/libc.a(lib_a-memcpy-stub.o)
 .debug_info    0x00000000000a0582      0xe22 /home/vboxuser/Desktop/topst/buildtools/gcc-linaro-7.2.1-2017.11-x86_64_arm-eabi/arm-eabi/libc/usr/lib/libc.a(lib_a-memset.o)
 .debug_info    0x00000000000a13a4      0xc8f /home/vboxuser/Desktop/topst/buildtools/gcc-linaro-7.2.1-2017.11-x86_64_arm-eabi/arm-eabi/libc/usr/lib/libc.a(lib_a-snprintf.o)
 .debug_info    0x00000000000a2033      0x8ba /home/vboxuser/Desktop/topst/buildtools/gcc-linaro-7.2.1-2017.11-x86_64_arm-eabi/arm-eabi/libc/usr/lib/libc.a(lib_a-strlen-stub.o)
 .debug_info    0x00000000000a28ed      0x8fa /home/vboxuser/Desktop/topst/buildtools/gcc-linaro-7.2.1-2017.11-x86_64_arm-eabi/arm-eabi/libc/usr/lib/libc.a(lib_a-strncmp.o)
 .debug_info    0x00000000000a31e7      0x92d /home/vboxuser/Desktop/topst/buildtools/gcc-linaro-7.2.1-2017.11-x86_64_arm-eabi/arm-eabi/libc/usr/lib/libc.a(lib_a-strncpy.o)
 .debug_info    0x00000000000a3b14      0x8d6 /home/vboxuser/Desktop/topst/buildtools/gcc-linaro-7.2.1-2017.11-x86_64_arm-eabi/arm-eabi/libc/usr/lib/libc.a(lib_a-strnlen.o)
 .debug_info    0x00000000000a43ea     0x10d6 /home/vboxuser/Desktop/topst/buildtools/gcc-linaro-7.2.1-2017.11-x86_64_arm-eabi/arm-eabi/libc/usr/lib/libc.a(lib_a-strtol.o)
 .debug_info    0x00000000000a54c0     0x10d6 /home/vboxuser/Desktop/topst/buildtools/gcc-linaro-7.2.1-2017.11-x86_64_arm-eabi/arm-eabi/libc/usr/lib/libc.a(lib_a-strtoul.o)
 .debug_info    0x00000000000a6596     0x2cb0 /home/vboxuser/Desktop/topst/buildtools/gcc-linaro-7.2.1-2017.11-x86_64_arm-eabi/arm-eabi/libc/usr/lib/libc.a(lib_a-svfprintf.o)
 .debug_info    0x00000000000a9246      0xfe4 /home/vboxuser/Desktop/topst/buildtools/gcc-linaro-7.2.1-2017.11-x86_64_arm-eabi/arm-eabi/libc/usr/lib/libc.a(lib_a-wcrtomb.o)
 .debug_info    0x00000000000aa22a      0x9f6 /home/vboxuser/Desktop/topst/buildtools/gcc-linaro-7.2.1-2017.11-x86_64_arm-eabi/arm-eabi/libc/usr/lib/libc.a(lib_a-wcsrtombs.o)
 .debug_info    0x00000000000aac20     0x1810 /home/vboxuser/Desktop/topst/buildtools/gcc-linaro-7.2.1-2017.11-x86_64_arm-eabi/arm-eabi/libc/usr/lib/libc.a(lib_a-dtoa.o)
 .debug_info    0x00000000000ac430      0xc97 /home/vboxuser/Desktop/topst/buildtools/gcc-linaro-7.2.1-2017.11-x86_64_arm-eabi/arm-eabi/libc/usr/lib/libc.a(lib_a-freer.o)
 .debug_info    0x00000000000ad0c7      0x8a9 /home/vboxuser/Desktop/topst/buildtools/gcc-linaro-7.2.1-2017.11-x86_64_arm-eabi/arm-eabi/libc/usr/lib/libc.a(lib_a-impure.o)
 .debug_info    0x00000000000ad970     0x1b01 /home/vboxuser/Desktop/topst/buildtools/gcc-linaro-7.2.1-2017.11-x86_64_arm-eabi/arm-eabi/libc/usr/lib/libc.a(lib_a-locale.o)
 .debug_info    0x00000000000af471      0xe91 /home/vboxuser/Desktop/topst/buildtools/gcc-linaro-7.2.1-2017.11-x86_64_arm-eabi/arm-eabi/libc/usr/lib/libc.a(lib_a-localeconv.o)
 .debug_info    0x00000000000b0302      0xde0 /home/vboxuser/Desktop/topst/buildtools/gcc-linaro-7.2.1-2017.11-x86_64_arm-eabi/arm-eabi/libc/usr/lib/libc.a(lib_a-mallocr.o)
 .debug_info    0x00000000000b10e2     0x134a /home/vboxuser/Desktop/topst/buildtools/gcc-linaro-7.2.1-2017.11-x86_64_arm-eabi/arm-eabi/libc/usr/lib/libc.a(lib_a-mbtowc_r.o)
 .debug_info    0x00000000000b242c      0x939 /home/vboxuser/Desktop/topst/buildtools/gcc-linaro-7.2.1-2017.11-x86_64_arm-eabi/arm-eabi/libc/usr/lib/libc.a(lib_a-memchr-stub.o)
 .debug_info    0x00000000000b2d65      0x8dc /home/vboxuser/Desktop/topst/buildtools/gcc-linaro-7.2.1-2017.11-x86_64_arm-eabi/arm-eabi/libc/usr/lib/libc.a(lib_a-mlock.o)
 .debug_info    0x00000000000b3641     0x1c56 /home/vboxuser/Desktop/topst/buildtools/gcc-linaro-7.2.1-2017.11-x86_64_arm-eabi/arm-eabi/libc/usr/lib/libc.a(lib_a-mprec.o)
 .debug_info    0x00000000000b5297      0x9f9 /home/vboxuser/Desktop/topst/buildtools/gcc-linaro-7.2.1-2017.11-x86_64_arm-eabi/arm-eabi/libc/usr/lib/libc.a(lib_a-s_frexp.o)
 .debug_info    0x00000000000b5c90      0x95e /home/vboxuser/Desktop/topst/buildtools/gcc-linaro-7.2.1-2017.11-x86_64_arm-eabi/arm-eabi/libc/usr/lib/libc.a(lib_a-sbrkr.o)
 .debug_info    0x00000000000b65ee      0x95e /home/vboxuser/Desktop/topst/buildtools/gcc-linaro-7.2.1-2017.11-x86_64_arm-eabi/arm-eabi/libc/usr/lib/libc.a(lib_a-strcasecmp.o)
 .debug_info    0x00000000000b6f4c      0x90e /home/vboxuser/Desktop/topst/buildtools/gcc-linaro-7.2.1-2017.11-x86_64_arm-eabi/arm-eabi/libc/usr/lib/libc.a(lib_a-strcat.o)
 .debug_info    0x00000000000b785a      0x915 /home/vboxuser/Desktop/topst/buildtools/gcc-linaro-7.2.1-2017.11-x86_64_arm-eabi/arm-eabi/libc/usr/lib/libc.a(lib_a-strchr.o)
 .debug_info    0x00000000000b816f      0x1b4 /home/vboxuser/Desktop/topst/buildtools/gcc-linaro-7.2.1-2017.11-x86_64_arm-eabi/arm-eabi/libc/usr/lib/libc.a(lib_a-strcmp.o)
 .debug_info    0x00000000000b8323      0x8bc /home/vboxuser/Desktop/topst/buildtools/gcc-linaro-7.2.1-2017.11-x86_64_arm-eabi/arm-eabi/libc/usr/lib/libc.a(lib_a-strcpy.o)
 .debug_info    0x00000000000b8bdf      0x8fd /home/vboxuser/Desktop/topst/buildtools/gcc-linaro-7.2.1-2017.11-x86_64_arm-eabi/arm-eabi/libc/usr/lib/libc.a(lib_a-strlcpy.o)
 .debug_info    0x00000000000b94dc      0x97a /home/vboxuser/Desktop/topst/buildtools/gcc-linaro-7.2.1-2017.11-x86_64_arm-eabi/arm-eabi/libc/usr/lib/libc.a(lib_a-strncasecmp.o)
 .debug_info    0x00000000000b9e56     0x263d /home/vboxuser/Desktop/topst/buildtools/gcc-linaro-7.2.1-2017.11-x86_64_arm-eabi/arm-eabi/libc/usr/lib/libc.a(lib_a-svfiprintf.o)
 .debug_info    0x00000000000bc493     0x1f43 /home/vboxuser/Desktop/topst/buildtools/gcc-linaro-7.2.1-2017.11-x86_64_arm-eabi/arm-eabi/libc/usr/lib/libc.a(lib_a-syscalls.o)
 .debug_info    0x00000000000be3d6     0x10b1 /home/vboxuser/Desktop/topst/buildtools/gcc-linaro-7.2.1-2017.11-x86_64_arm-eabi/arm-eabi/libc/usr/lib/libc.a(lib_a-wcsnrtombs.o)
 .debug_info    0x00000000000bf487     0x111b /home/vboxuser/Desktop/topst/buildtools/gcc-linaro-7.2.1-2017.11-x86_64_arm-eabi/arm-eabi/libc/usr/lib/libc.a(lib_a-wctomb_r.o)
 .debug_info    0x00000000000c05a2      0xb61 /home/vboxuser/Desktop/topst/buildtools/gcc-linaro-7.2.1-2017.11-x86_64_arm-eabi/arm-eabi/libc/usr/lib/libc.a(lib_a-callocr.o)
 .debug_info    0x00000000000c1103      0xdfc /home/vboxuser/Desktop/topst/buildtools/gcc-linaro-7.2.1-2017.11-x86_64_arm-eabi/arm-eabi/libc/usr/lib/libc.a(lib_a-ctype_.o)
 .debug_info    0x00000000000c1eff      0x8d0 /home/vboxuser/Desktop/topst/buildtools/gcc-linaro-7.2.1-2017.11-x86_64_arm-eabi/arm-eabi/libc/usr/lib/libc.a(lib_a-errno.o)
 .debug_info    0x00000000000c27cf      0xfa8 /home/vboxuser/Desktop/topst/buildtools/gcc-linaro-7.2.1-2017.11-x86_64_arm-eabi/arm-eabi/libc/usr/lib/libc.a(lib_a-findfp.o)
 .debug_info    0x00000000000c3777      0xbd3 /home/vboxuser/Desktop/topst/buildtools/gcc-linaro-7.2.1-2017.11-x86_64_arm-eabi/arm-eabi/libc/usr/lib/libc.a(lib_a-fwalk.o)
 .debug_info    0x00000000000c434a      0xa04 /home/vboxuser/Desktop/topst/buildtools/gcc-linaro-7.2.1-2017.11-x86_64_arm-eabi/arm-eabi/libc/usr/lib/libc.a(lib_a-getenv_r.o)
 .debug_info    0x00000000000c4d4e      0xe31 /home/vboxuser/Desktop/topst/buildtools/gcc-linaro-7.2.1-2017.11-x86_64_arm-eabi/arm-eabi/libc/usr/lib/libc.a(lib_a-memmove.o)
 .debug_info    0x00000000000c5b7f      0xddc /home/vboxuser/Desktop/topst/buildtools/gcc-linaro-7.2.1-2017.11-x86_64_arm-eabi/arm-eabi/libc/usr/lib/libc.a(lib_a-reallocr.o)
 .debug_info    0x00000000000c695b      0xa13 /home/vboxuser/Desktop/topst/buildtools/gcc-linaro-7.2.1-2017.11-x86_64_arm-eabi/arm-eabi/libc/usr/lib/libc.a(lib_a-reent.o)
 .debug_info    0x00000000000c736e      0xd5c /home/vboxuser/Desktop/topst/buildtools/gcc-linaro-7.2.1-2017.11-x86_64_arm-eabi/arm-eabi/libc/usr/lib/libc.a(lib_a-stdio.o)
 .debug_info    0x00000000000c80ca      0x99d /home/vboxuser/Desktop/topst/buildtools/gcc-linaro-7.2.1-2017.11-x86_64_arm-eabi/arm-eabi/libc/usr/lib/libc.a(lib_a-writer.o)
 .debug_info    0x00000000000c8a67      0x954 /home/vboxuser/Desktop/topst/buildtools/gcc-linaro-7.2.1-2017.11-x86_64_arm-eabi/arm-eabi/libc/usr/lib/libc.a(lib_a-closer.o)
 .debug_info    0x00000000000c93bb       0x6a /home/vboxuser/Desktop/topst/buildtools/gcc-linaro-7.2.1-2017.11-x86_64_arm-eabi/arm-eabi/libc/usr/lib/libc.a(lib_a-environ.o)
 .debug_info    0x00000000000c9425      0x8dc /home/vboxuser/Desktop/topst/buildtools/gcc-linaro-7.2.1-2017.11-x86_64_arm-eabi/arm-eabi/libc/usr/lib/libc.a(lib_a-envlock.o)
 .debug_info    0x00000000000c9d01      0xc13 /home/vboxuser/Desktop/topst/buildtools/gcc-linaro-7.2.1-2017.11-x86_64_arm-eabi/arm-eabi/libc/usr/lib/libc.a(lib_a-fclose.o)
 .debug_info    0x00000000000ca914      0xca3 /home/vboxuser/Desktop/topst/buildtools/gcc-linaro-7.2.1-2017.11-x86_64_arm-eabi/arm-eabi/libc/usr/lib/libc.a(lib_a-fflush.o)
 .debug_info    0x00000000000cb5b7      0x980 /home/vboxuser/Desktop/topst/buildtools/gcc-linaro-7.2.1-2017.11-x86_64_arm-eabi/arm-eabi/libc/usr/lib/libc.a(lib_a-lseekr.o)
 .debug_info    0x00000000000cbf37      0x996 /home/vboxuser/Desktop/topst/buildtools/gcc-linaro-7.2.1-2017.11-x86_64_arm-eabi/arm-eabi/libc/usr/lib/libc.a(lib_a-readr.o)
 .debug_info    0x00000000000cc8cd      0x1a7 /home/vboxuser/Desktop/topst/buildtools/gcc-linaro-7.2.1-2017.11-x86_64_arm-eabi/arm-eabi/libc/usr/lib/libgcc.a(_udivsi3.o)
 .debug_info    0x00000000000cca74      0x1a7 /home/vboxuser/Desktop/topst/buildtools/gcc-linaro-7.2.1-2017.11-x86_64_arm-eabi/arm-eabi/libc/usr/lib/libgcc.a(_dvmd_tls.o)
 .debug_info    0x00000000000ccc1b      0x1a8 /home/vboxuser/Desktop/topst/buildtools/gcc-linaro-7.2.1-2017.11-x86_64_arm-eabi/arm-eabi/libc/usr/lib/libgcc.a(_arm_addsubdf3.o)
 .debug_info    0x00000000000ccdc3      0x1a8 /home/vboxuser/Desktop/topst/buildtools/gcc-linaro-7.2.1-2017.11-x86_64_arm-eabi/arm-eabi/libc/usr/lib/libgcc.a(_arm_muldivdf3.o)
 .debug_info    0x00000000000ccf6b      0x1a8 /home/vboxuser/Desktop/topst/buildtools/gcc-linaro-7.2.1-2017.11-x86_64_arm-eabi/arm-eabi/libc/usr/lib/libgcc.a(_arm_cmpdf2.o)
 .debug_info    0x00000000000cd113      0x1a8 /home/vboxuser/Desktop/topst/buildtools/gcc-linaro-7.2.1-2017.11-x86_64_arm-eabi/arm-eabi/libc/usr/lib/libgcc.a(_arm_unorddf2.o)
 .debug_info    0x00000000000cd2bb      0x1a8 /home/vboxuser/Desktop/topst/buildtools/gcc-linaro-7.2.1-2017.11-x86_64_arm-eabi/arm-eabi/libc/usr/lib/libgcc.a(_arm_fixdfsi.o)
 .debug_info    0x00000000000cd463      0x1a8 /home/vboxuser/Desktop/topst/buildtools/gcc-linaro-7.2.1-2017.11-x86_64_arm-eabi/arm-eabi/libc/usr/lib/libgcc.a(_arm_fixunsdfsi.o)
 .debug_info    0x00000000000cd60b      0x1a8 /home/vboxuser/Desktop/topst/buildtools/gcc-linaro-7.2.1-2017.11-x86_64_arm-eabi/arm-eabi/libc/usr/lib/libgcc.a(_arm_addsubsf3.o)
 .debug_info    0x00000000000cd7b3      0x1a8 /home/vboxuser/Desktop/topst/buildtools/gcc-linaro-7.2.1-2017.11-x86_64_arm-eabi/arm-eabi/libc/usr/lib/libgcc.a(_arm_muldivsf3.o)
 .debug_info    0x00000000000cd95b      0x1a8 /home/vboxuser/Desktop/topst/buildtools/gcc-linaro-7.2.1-2017.11-x86_64_arm-eabi/arm-eabi/libc/usr/lib/libgcc.a(_arm_fixunssfsi.o)
 .debug_info    0x00000000000cdb03      0x1a3 /home/vboxuser/Desktop/topst/buildtools/gcc-linaro-7.2.1-2017.11-x86_64_arm-eabi/arm-eabi/libc/usr/lib/libgcc.a(_aeabi_uldivmod.o)
 .debug_info    0x00000000000cdca6     0x12c8 /home/vboxuser/Desktop/topst/buildtools/gcc-linaro-7.2.1-2017.11-x86_64_arm-eabi/arm-eabi/libc/usr/lib/libgcc.a(_udivmoddi4.o)
 .debug_info    0x00000000000cef6e      0x1a7 /home/vboxuser/Desktop/topst/buildtools/gcc-linaro-7.2.1-2017.11-x86_64_arm-eabi/arm-eabi/libc/usr/lib/libgcc.a(_clzdi2.o)
 .debug_info    0x00000000000cf115      0x1a7 /home/vboxuser/Desktop/topst/buildtools/gcc-linaro-7.2.1-2017.11-x86_64_arm-eabi/arm-eabi/libc/usr/lib/libgcc.a(_clzsi2.o)

.debug_abbrev   0x0000000000000000    0x128f7
 .debug_abbrev  0x0000000000000000      0x24e /home/vboxuser/Desktop/topst/cr5-bsp/sources/build/tcc805x/gcc/tcc805x-freertos-debug/obj/main.o
 .debug_abbrev  0x000000000000024e      0x22a /home/vboxuser/Desktop/topst/cr5-bsp/sources/build/tcc805x/gcc/tcc805x-freertos-debug/obj/can_demo.o
 .debug_abbrev  0x0000000000000478      0x2cb /home/vboxuser/Desktop/topst/cr5-bsp/sources/build/tcc805x/gcc/tcc805x-freertos-debug/obj/console.o
 .debug_abbrev  0x0000000000000743      0x1cb /home/vboxuser/Desktop/topst/cr5-bsp/sources/build/tcc805x/gcc/tcc805x-freertos-debug/obj/fwug.o
 .debug_abbrev  0x000000000000090e      0x1d6 /home/vboxuser/Desktop/topst/cr5-bsp/sources/build/tcc805x/gcc/tcc805x-freertos-debug/obj/key_adc.o
 .debug_abbrev  0x0000000000000ae4      0x1cc /home/vboxuser/Desktop/topst/cr5-bsp/sources/build/tcc805x/gcc/tcc805x-freertos-debug/obj/key_gpio.o
 .debug_abbrev  0x0000000000000cb0      0x20e /home/vboxuser/Desktop/topst/cr5-bsp/sources/build/tcc805x/gcc/tcc805x-freertos-debug/obj/key_i2c.o
 .debug_abbrev  0x0000000000000ebe      0x1bb /home/vboxuser/Desktop/topst/cr5-bsp/sources/build/tcc805x/gcc/tcc805x-freertos-debug/obj/system_monitoring.o
 .debug_abbrev  0x0000000000001079      0x1dc /home/vboxuser/Desktop/topst/cr5-bsp/sources/build/tcc805x/gcc/tcc805x-freertos-debug/obj/bootctrl.o
 .debug_abbrev  0x0000000000001255      0x157 /home/vboxuser/Desktop/topst/cr5-bsp/sources/build/tcc805x/gcc/tcc805x-freertos-debug/obj/reset_demo.o
 .debug_abbrev  0x00000000000013ac      0x270 /home/vboxuser/Desktop/topst/cr5-bsp/sources/build/tcc805x/gcc/tcc805x-freertos-debug/obj/adc_test.o
 .debug_abbrev  0x000000000000161c      0x1a7 /home/vboxuser/Desktop/topst/cr5-bsp/sources/build/tcc805x/gcc/tcc805x-freertos-debug/obj/dse_test.o
 .debug_abbrev  0x00000000000017c3      0x1e8 /home/vboxuser/Desktop/topst/cr5-bsp/sources/build/tcc805x/gcc/tcc805x-freertos-debug/obj/fmu_test.o
 .debug_abbrev  0x00000000000019ab      0x155 /home/vboxuser/Desktop/topst/cr5-bsp/sources/build/tcc805x/gcc/tcc805x-freertos-debug/obj/gdma_test.o
 .debug_abbrev  0x0000000000001b00      0x16d /home/vboxuser/Desktop/topst/cr5-bsp/sources/build/tcc805x/gcc/tcc805x-freertos-debug/obj/gic_test.o
 .debug_abbrev  0x0000000000001c6d      0x19d /home/vboxuser/Desktop/topst/cr5-bsp/sources/build/tcc805x/gcc/tcc805x-freertos-debug/obj/gpio_test.o
 .debug_abbrev  0x0000000000001e0a      0x21c /home/vboxuser/Desktop/topst/cr5-bsp/sources/build/tcc805x/gcc/tcc805x-freertos-debug/obj/gpsb_test.o
 .debug_abbrev  0x0000000000002026      0x282 /home/vboxuser/Desktop/topst/cr5-bsp/sources/build/tcc805x/gcc/tcc805x-freertos-debug/obj/hsm_test.o
 .debug_abbrev  0x00000000000022a8      0x1d6 /home/vboxuser/Desktop/topst/cr5-bsp/sources/build/tcc805x/gcc/tcc805x-freertos-debug/obj/i2c_test.o
 .debug_abbrev  0x000000000000247e      0x18c /home/vboxuser/Desktop/topst/cr5-bsp/sources/build/tcc805x/gcc/tcc805x-freertos-debug/obj/ictc_test.o
 .debug_abbrev  0x000000000000260a      0x181 /home/vboxuser/Desktop/topst/cr5-bsp/sources/build/tcc805x/gcc/tcc805x-freertos-debug/obj/lin_test.o
 .debug_abbrev  0x000000000000278b      0x1d1 /home/vboxuser/Desktop/topst/cr5-bsp/sources/build/tcc805x/gcc/tcc805x-freertos-debug/obj/pdm_test.o
 .debug_abbrev  0x000000000000295c      0x2a1 /home/vboxuser/Desktop/topst/cr5-bsp/sources/build/tcc805x/gcc/tcc805x-freertos-debug/obj/pmio_test.o
 .debug_abbrev  0x0000000000002bfd      0x232 /home/vboxuser/Desktop/topst/cr5-bsp/sources/build/tcc805x/gcc/tcc805x-freertos-debug/obj/timer_test.o
 .debug_abbrev  0x0000000000002e2f      0x23b /home/vboxuser/Desktop/topst/cr5-bsp/sources/build/tcc805x/gcc/tcc805x-freertos-debug/obj/wdt_test.o
 .debug_abbrev  0x000000000000306a      0x178 /home/vboxuser/Desktop/topst/cr5-bsp/sources/build/tcc805x/gcc/tcc805x-freertos-debug/obj/pwm_test.o
 .debug_abbrev  0x00000000000031e2      0x24f /home/vboxuser/Desktop/topst/cr5-bsp/sources/build/tcc805x/gcc/tcc805x-freertos-debug/obj/Motor_System.o
 .debug_abbrev  0x0000000000003431      0x18c /home/vboxuser/Desktop/topst/cr5-bsp/sources/build/tcc805x/gcc/tcc805x-freertos-debug/obj/mptool.o
 .debug_abbrev  0x00000000000035bd      0x23a /home/vboxuser/Desktop/topst/cr5-bsp/sources/build/tcc805x/gcc/tcc805x-freertos-debug/obj/ipc_os.o
 .debug_abbrev  0x00000000000037f7      0x217 /home/vboxuser/Desktop/topst/cr5-bsp/sources/build/tcc805x/gcc/tcc805x-freertos-debug/obj/ipc_buffer.o
 .debug_abbrev  0x0000000000003a0e      0x1a8 /home/vboxuser/Desktop/topst/cr5-bsp/sources/build/tcc805x/gcc/tcc805x-freertos-debug/obj/ipc_cmd.o
 .debug_abbrev  0x0000000000003bb6      0x2d0 /home/vboxuser/Desktop/topst/cr5-bsp/sources/build/tcc805x/gcc/tcc805x-freertos-debug/obj/ipc_ctl.o
 .debug_abbrev  0x0000000000003e86      0x1aa /home/vboxuser/Desktop/topst/cr5-bsp/sources/build/tcc805x/gcc/tcc805x-freertos-debug/obj/ipc_parser.o
 .debug_abbrev  0x0000000000004030      0x229 /home/vboxuser/Desktop/topst/cr5-bsp/sources/build/tcc805x/gcc/tcc805x-freertos-debug/obj/ipc_api.o
 .debug_abbrev  0x0000000000004259      0x17c /home/vboxuser/Desktop/topst/cr5-bsp/sources/build/tcc805x/gcc/tcc805x-freertos-debug/obj/ipc.o
 .debug_abbrev  0x00000000000043d5      0x1dd /home/vboxuser/Desktop/topst/cr5-bsp/sources/build/tcc805x/gcc/tcc805x-freertos-debug/obj/lin.o
 .debug_abbrev  0x00000000000045b2      0x1dd /home/vboxuser/Desktop/topst/cr5-bsp/sources/build/tcc805x/gcc/tcc805x-freertos-debug/obj/sdm.o
 .debug_abbrev  0x000000000000478f      0x273 /home/vboxuser/Desktop/topst/cr5-bsp/sources/build/tcc805x/gcc/tcc805x-freertos-debug/obj/hsm_manager.o
 .debug_abbrev  0x0000000000004a02      0x212 /home/vboxuser/Desktop/topst/cr5-bsp/sources/build/tcc805x/gcc/tcc805x-freertos-debug/obj/adc.o
 .debug_abbrev  0x0000000000004c14      0x252 /home/vboxuser/Desktop/topst/cr5-bsp/sources/build/tcc805x/gcc/tcc805x-freertos-debug/obj/can.o
 .debug_abbrev  0x0000000000004e66      0x2a7 /home/vboxuser/Desktop/topst/cr5-bsp/sources/build/tcc805x/gcc/tcc805x-freertos-debug/obj/can_drv.o
 .debug_abbrev  0x000000000000510d      0x293 /home/vboxuser/Desktop/topst/cr5-bsp/sources/build/tcc805x/gcc/tcc805x-freertos-debug/obj/can_msg.o
 .debug_abbrev  0x00000000000053a0      0x128 /home/vboxuser/Desktop/topst/cr5-bsp/sources/build/tcc805x/gcc/tcc805x-freertos-debug/obj/can_par.o
 .debug_abbrev  0x00000000000054c8      0x26a /home/vboxuser/Desktop/topst/cr5-bsp/sources/build/tcc805x/gcc/tcc805x-freertos-debug/obj/can_porting.o
 .debug_abbrev  0x0000000000005732      0x2dd /home/vboxuser/Desktop/topst/cr5-bsp/sources/build/tcc805x/gcc/tcc805x-freertos-debug/obj/clock_dev.o
 .debug_abbrev  0x0000000000005a0f      0x21e /home/vboxuser/Desktop/topst/cr5-bsp/sources/build/tcc805x/gcc/tcc805x-freertos-debug/obj/debug.o
 .debug_abbrev  0x0000000000005c2d      0x179 /home/vboxuser/Desktop/topst/cr5-bsp/sources/build/tcc805x/gcc/tcc805x-freertos-debug/obj/bsp.o
 .debug_abbrev  0x0000000000005da6      0x25a /home/vboxuser/Desktop/topst/cr5-bsp/sources/build/tcc805x/gcc/tcc805x-freertos-debug/obj/fmu.o
 .debug_abbrev  0x0000000000006000      0x204 /home/vboxuser/Desktop/topst/cr5-bsp/sources/build/tcc805x/gcc/tcc805x-freertos-debug/obj/gdma.o
 .debug_abbrev  0x0000000000006204      0x22b /home/vboxuser/Desktop/topst/cr5-bsp/sources/build/tcc805x/gcc/tcc805x-freertos-debug/obj/gic.o
 .debug_abbrev  0x000000000000642f      0x1c7 /home/vboxuser/Desktop/topst/cr5-bsp/sources/build/tcc805x/gcc/tcc805x-freertos-debug/obj/gpio.o
 .debug_abbrev  0x00000000000065f6      0x288 /home/vboxuser/Desktop/topst/cr5-bsp/sources/build/tcc805x/gcc/tcc805x-freertos-debug/obj/i2c.o
 .debug_abbrev  0x000000000000687e      0x12a /home/vboxuser/Desktop/topst/cr5-bsp/sources/build/tcc805x/gcc/tcc805x-freertos-debug/obj/i2c_reg.o
 .debug_abbrev  0x00000000000069a8      0x270 /home/vboxuser/Desktop/topst/cr5-bsp/sources/build/tcc805x/gcc/tcc805x-freertos-debug/obj/ictc.o
 .debug_abbrev  0x0000000000006c18      0x2e1 /home/vboxuser/Desktop/topst/cr5-bsp/sources/build/tcc805x/gcc/tcc805x-freertos-debug/obj/mbox_phy.o
 .debug_abbrev  0x0000000000006ef9      0x340 /home/vboxuser/Desktop/topst/cr5-bsp/sources/build/tcc805x/gcc/tcc805x-freertos-debug/obj/mbox_dev.o
 .debug_abbrev  0x0000000000007239      0x267 /home/vboxuser/Desktop/topst/cr5-bsp/sources/build/tcc805x/gcc/tcc805x-freertos-debug/obj/mbox.o
 .debug_abbrev  0x00000000000074a0      0x1b4 /home/vboxuser/Desktop/topst/cr5-bsp/sources/build/tcc805x/gcc/tcc805x-freertos-debug/obj/mpu.o
 .debug_abbrev  0x0000000000007654      0x236 /home/vboxuser/Desktop/topst/cr5-bsp/sources/build/tcc805x/gcc/tcc805x-freertos-debug/obj/pdm.o
 .debug_abbrev  0x000000000000788a      0x338 /home/vboxuser/Desktop/topst/cr5-bsp/sources/build/tcc805x/gcc/tcc805x-freertos-debug/obj/pmio_dev.o
 .debug_abbrev  0x0000000000007bc2      0x24a /home/vboxuser/Desktop/topst/cr5-bsp/sources/build/tcc805x/gcc/tcc805x-freertos-debug/obj/gpsb.o
 .debug_abbrev  0x0000000000007e0c      0x119 /home/vboxuser/Desktop/topst/cr5-bsp/sources/build/tcc805x/gcc/tcc805x-freertos-debug/obj/gpsb_reg.o
 .debug_abbrev  0x0000000000007f25      0x265 /home/vboxuser/Desktop/topst/cr5-bsp/sources/build/tcc805x/gcc/tcc805x-freertos-debug/obj/timer.o
 .debug_abbrev  0x000000000000818a      0x249 /home/vboxuser/Desktop/topst/cr5-bsp/sources/build/tcc805x/gcc/tcc805x-freertos-debug/obj/uart.o
 .debug_abbrev  0x00000000000083d3      0x24d /home/vboxuser/Desktop/topst/cr5-bsp/sources/build/tcc805x/gcc/tcc805x-freertos-debug/obj/udma.o
 .debug_abbrev  0x0000000000008620      0x257 /home/vboxuser/Desktop/topst/cr5-bsp/sources/build/tcc805x/gcc/tcc805x-freertos-debug/obj/wdt.o
 .debug_abbrev  0x0000000000008877      0x1fb /home/vboxuser/Desktop/topst/cr5-bsp/sources/build/tcc805x/gcc/tcc805x-freertos-debug/obj/dse.o
 .debug_abbrev  0x0000000000008a72      0x206 /home/vboxuser/Desktop/topst/cr5-bsp/sources/build/tcc805x/gcc/tcc805x-freertos-debug/obj/midf.o
 .debug_abbrev  0x0000000000008c78      0x218 /home/vboxuser/Desktop/topst/cr5-bsp/sources/build/tcc805x/gcc/tcc805x-freertos-debug/obj/pmu_reset.o
 .debug_abbrev  0x0000000000008e90      0x2fe /home/vboxuser/Desktop/topst/cr5-bsp/sources/build/tcc805x/gcc/tcc805x-freertos-debug/obj/tasks.o
 .debug_abbrev  0x000000000000918e      0x1e4 /home/vboxuser/Desktop/topst/cr5-bsp/sources/build/tcc805x/gcc/tcc805x-freertos-debug/obj/list.o
 .debug_abbrev  0x0000000000009372      0x2bf /home/vboxuser/Desktop/topst/cr5-bsp/sources/build/tcc805x/gcc/tcc805x-freertos-debug/obj/queue.o
 .debug_abbrev  0x0000000000009631      0x229 /home/vboxuser/Desktop/topst/cr5-bsp/sources/build/tcc805x/gcc/tcc805x-freertos-debug/obj/event_groups.o
 .debug_abbrev  0x000000000000985a      0x291 /home/vboxuser/Desktop/topst/cr5-bsp/sources/build/tcc805x/gcc/tcc805x-freertos-debug/obj/timers.o
 .debug_abbrev  0x0000000000009aeb      0x294 /home/vboxuser/Desktop/topst/cr5-bsp/sources/build/tcc805x/gcc/tcc805x-freertos-debug/obj/stream_buffer.o
 .debug_abbrev  0x0000000000009d7f      0x303 /home/vboxuser/Desktop/topst/cr5-bsp/sources/build/tcc805x/gcc/tcc805x-freertos-debug/obj/port.o
 .debug_abbrev  0x000000000000a082      0x252 /home/vboxuser/Desktop/topst/cr5-bsp/sources/build/tcc805x/gcc/tcc805x-freertos-debug/obj/heap_5.o
 .debug_abbrev  0x000000000000a2d4      0x154 /home/vboxuser/Desktop/topst/cr5-bsp/sources/build/tcc805x/gcc/tcc805x-freertos-debug/obj/sal_api.o
 .debug_abbrev  0x000000000000a428      0x27f /home/vboxuser/Desktop/topst/cr5-bsp/sources/build/tcc805x/gcc/tcc805x-freertos-debug/obj/sal_freertos_impl.o
 .debug_abbrev  0x000000000000a6a7       0x14 /home/vboxuser/Desktop/topst/cr5-bsp/sources/build/tcc805x/gcc/tcc805x-freertos-debug/obj/startup.o
 .debug_abbrev  0x000000000000a6bb       0x14 /home/vboxuser/Desktop/topst/cr5-bsp/sources/build/tcc805x/gcc/tcc805x-freertos-debug/obj/vector.o
 .debug_abbrev  0x000000000000a6cf       0x14 /home/vboxuser/Desktop/topst/cr5-bsp/sources/build/tcc805x/gcc/tcc805x-freertos-debug/obj/vfp_init.o
 .debug_abbrev  0x000000000000a6e3       0x14 /home/vboxuser/Desktop/topst/cr5-bsp/sources/build/tcc805x/gcc/tcc805x-freertos-debug/obj/arm_a.o
 .debug_abbrev  0x000000000000a6f7       0x14 /home/vboxuser/Desktop/topst/cr5-bsp/sources/build/tcc805x/gcc/tcc805x-freertos-debug/obj/portASM.o
 .debug_abbrev  0x000000000000a70b       0x14 /home/vboxuser/Desktop/topst/cr5-bsp/sources/build/tcc805x/gcc/tcc805x-freertos-debug/obj/freertos.o
 .debug_abbrev  0x000000000000a71f       0x14 /home/vboxuser/Desktop/topst/cr5-bsp/sources/build/tcc805x/gcc/tcc805x-freertos-debug/obj/sal.o
 .debug_abbrev  0x000000000000a733      0x1e2 /home/vboxuser/Desktop/topst/buildtools/gcc-linaro-7.2.1-2017.11-x86_64_arm-eabi/arm-eabi/libc/usr/lib/libc.a(lib_a-atoi.o)
 .debug_abbrev  0x000000000000a915      0x1e2 /home/vboxuser/Desktop/topst/buildtools/gcc-linaro-7.2.1-2017.11-x86_64_arm-eabi/arm-eabi/libc/usr/lib/libc.a(lib_a-atol.o)
 .debug_abbrev  0x000000000000aaf7      0x1bd /home/vboxuser/Desktop/topst/buildtools/gcc-linaro-7.2.1-2017.11-x86_64_arm-eabi/arm-eabi/libc/usr/lib/libc.a(lib_a-memcmp.o)
 .debug_abbrev  0x000000000000acb4      0x1e2 /home/vboxuser/Desktop/topst/buildtools/gcc-linaro-7.2.1-2017.11-x86_64_arm-eabi/arm-eabi/libc/usr/lib/libc.a(lib_a-memcpy-stub.o)
 .debug_abbrev  0x000000000000ae96      0x1de /home/vboxuser/Desktop/topst/buildtools/gcc-linaro-7.2.1-2017.11-x86_64_arm-eabi/arm-eabi/libc/usr/lib/libc.a(lib_a-memset.o)
 .debug_abbrev  0x000000000000b074      0x26c /home/vboxuser/Desktop/topst/buildtools/gcc-linaro-7.2.1-2017.11-x86_64_arm-eabi/arm-eabi/libc/usr/lib/libc.a(lib_a-snprintf.o)
 .debug_abbrev  0x000000000000b2e0      0x1a7 /home/vboxuser/Desktop/topst/buildtools/gcc-linaro-7.2.1-2017.11-x86_64_arm-eabi/arm-eabi/libc/usr/lib/libc.a(lib_a-strlen-stub.o)
 .debug_abbrev  0x000000000000b487      0x1b8 /home/vboxuser/Desktop/topst/buildtools/gcc-linaro-7.2.1-2017.11-x86_64_arm-eabi/arm-eabi/libc/usr/lib/libc.a(lib_a-strncmp.o)
 .debug_abbrev  0x000000000000b63f      0x1ea /home/vboxuser/Desktop/topst/buildtools/gcc-linaro-7.2.1-2017.11-x86_64_arm-eabi/arm-eabi/libc/usr/lib/libc.a(lib_a-strncpy.o)
 .debug_abbrev  0x000000000000b829      0x1b6 /home/vboxuser/Desktop/topst/buildtools/gcc-linaro-7.2.1-2017.11-x86_64_arm-eabi/arm-eabi/libc/usr/lib/libc.a(lib_a-strnlen.o)
 .debug_abbrev  0x000000000000b9df      0x2bb /home/vboxuser/Desktop/topst/buildtools/gcc-linaro-7.2.1-2017.11-x86_64_arm-eabi/arm-eabi/libc/usr/lib/libc.a(lib_a-strtol.o)
 .debug_abbrev  0x000000000000bc9a      0x2bb /home/vboxuser/Desktop/topst/buildtools/gcc-linaro-7.2.1-2017.11-x86_64_arm-eabi/arm-eabi/libc/usr/lib/libc.a(lib_a-strtoul.o)
 .debug_abbrev  0x000000000000bf55      0x40c /home/vboxuser/Desktop/topst/buildtools/gcc-linaro-7.2.1-2017.11-x86_64_arm-eabi/arm-eabi/libc/usr/lib/libc.a(lib_a-svfprintf.o)
 .debug_abbrev  0x000000000000c361      0x23f /home/vboxuser/Desktop/topst/buildtools/gcc-linaro-7.2.1-2017.11-x86_64_arm-eabi/arm-eabi/libc/usr/lib/libc.a(lib_a-wcrtomb.o)
 .debug_abbrev  0x000000000000c5a0      0x1e7 /home/vboxuser/Desktop/topst/buildtools/gcc-linaro-7.2.1-2017.11-x86_64_arm-eabi/arm-eabi/libc/usr/lib/libc.a(lib_a-wcsrtombs.o)
 .debug_abbrev  0x000000000000c787      0x2f2 /home/vboxuser/Desktop/topst/buildtools/gcc-linaro-7.2.1-2017.11-x86_64_arm-eabi/arm-eabi/libc/usr/lib/libc.a(lib_a-dtoa.o)
 .debug_abbrev  0x000000000000ca79      0x273 /home/vboxuser/Desktop/topst/buildtools/gcc-linaro-7.2.1-2017.11-x86_64_arm-eabi/arm-eabi/libc/usr/lib/libc.a(lib_a-freer.o)
 .debug_abbrev  0x000000000000ccec      0x192 /home/vboxuser/Desktop/topst/buildtools/gcc-linaro-7.2.1-2017.11-x86_64_arm-eabi/arm-eabi/libc/usr/lib/libc.a(lib_a-impure.o)
 .debug_abbrev  0x000000000000ce7e      0x39c /home/vboxuser/Desktop/topst/buildtools/gcc-linaro-7.2.1-2017.11-x86_64_arm-eabi/arm-eabi/libc/usr/lib/libc.a(lib_a-locale.o)
 .debug_abbrev  0x000000000000d21a      0x246 /home/vboxuser/Desktop/topst/buildtools/gcc-linaro-7.2.1-2017.11-x86_64_arm-eabi/arm-eabi/libc/usr/lib/libc.a(lib_a-localeconv.o)
 .debug_abbrev  0x000000000000d460      0x2cd /home/vboxuser/Desktop/topst/buildtools/gcc-linaro-7.2.1-2017.11-x86_64_arm-eabi/arm-eabi/libc/usr/lib/libc.a(lib_a-mallocr.o)
 .debug_abbrev  0x000000000000d72d      0x2d8 /home/vboxuser/Desktop/topst/buildtools/gcc-linaro-7.2.1-2017.11-x86_64_arm-eabi/arm-eabi/libc/usr/lib/libc.a(lib_a-mbtowc_r.o)
 .debug_abbrev  0x000000000000da05      0x1db /home/vboxuser/Desktop/topst/buildtools/gcc-linaro-7.2.1-2017.11-x86_64_arm-eabi/arm-eabi/libc/usr/lib/libc.a(lib_a-memchr-stub.o)
 .debug_abbrev  0x000000000000dbe0      0x1d3 /home/vboxuser/Desktop/topst/buildtools/gcc-linaro-7.2.1-2017.11-x86_64_arm-eabi/arm-eabi/libc/usr/lib/libc.a(lib_a-mlock.o)
 .debug_abbrev  0x000000000000ddb3      0x401 /home/vboxuser/Desktop/topst/buildtools/gcc-linaro-7.2.1-2017.11-x86_64_arm-eabi/arm-eabi/libc/usr/lib/libc.a(lib_a-mprec.o)
 .debug_abbrev  0x000000000000e1b4      0x245 /home/vboxuser/Desktop/topst/buildtools/gcc-linaro-7.2.1-2017.11-x86_64_arm-eabi/arm-eabi/libc/usr/lib/libc.a(lib_a-s_frexp.o)
 .debug_abbrev  0x000000000000e3f9      0x215 /home/vboxuser/Desktop/topst/buildtools/gcc-linaro-7.2.1-2017.11-x86_64_arm-eabi/arm-eabi/libc/usr/lib/libc.a(lib_a-sbrkr.o)
 .debug_abbrev  0x000000000000e60e      0x1fc /home/vboxuser/Desktop/topst/buildtools/gcc-linaro-7.2.1-2017.11-x86_64_arm-eabi/arm-eabi/libc/usr/lib/libc.a(lib_a-strcasecmp.o)
 .debug_abbrev  0x000000000000e80a      0x1f5 /home/vboxuser/Desktop/topst/buildtools/gcc-linaro-7.2.1-2017.11-x86_64_arm-eabi/arm-eabi/libc/usr/lib/libc.a(lib_a-strcat.o)
 .debug_abbrev  0x000000000000e9ff      0x1c7 /home/vboxuser/Desktop/topst/buildtools/gcc-linaro-7.2.1-2017.11-x86_64_arm-eabi/arm-eabi/libc/usr/lib/libc.a(lib_a-strchr.o)
 .debug_abbrev  0x000000000000ebc6       0x14 /home/vboxuser/Desktop/topst/buildtools/gcc-linaro-7.2.1-2017.11-x86_64_arm-eabi/arm-eabi/libc/usr/lib/libc.a(lib_a-strcmp.o)
 .debug_abbrev  0x000000000000ebda      0x1b6 /home/vboxuser/Desktop/topst/buildtools/gcc-linaro-7.2.1-2017.11-x86_64_arm-eabi/arm-eabi/libc/usr/lib/libc.a(lib_a-strcpy.o)
 .debug_abbrev  0x000000000000ed90      0x1c5 /home/vboxuser/Desktop/topst/buildtools/gcc-linaro-7.2.1-2017.11-x86_64_arm-eabi/arm-eabi/libc/usr/lib/libc.a(lib_a-strlcpy.o)
 .debug_abbrev  0x000000000000ef55      0x205 /home/vboxuser/Desktop/topst/buildtools/gcc-linaro-7.2.1-2017.11-x86_64_arm-eabi/arm-eabi/libc/usr/lib/libc.a(lib_a-strncasecmp.o)
 .debug_abbrev  0x000000000000f15a      0x37e /home/vboxuser/Desktop/topst/buildtools/gcc-linaro-7.2.1-2017.11-x86_64_arm-eabi/arm-eabi/libc/usr/lib/libc.a(lib_a-svfiprintf.o)
 .debug_abbrev  0x000000000000f4d8      0x518 /home/vboxuser/Desktop/topst/buildtools/gcc-linaro-7.2.1-2017.11-x86_64_arm-eabi/arm-eabi/libc/usr/lib/libc.a(lib_a-syscalls.o)
 .debug_abbrev  0x000000000000f9f0      0x25e /home/vboxuser/Desktop/topst/buildtools/gcc-linaro-7.2.1-2017.11-x86_64_arm-eabi/arm-eabi/libc/usr/lib/libc.a(lib_a-wcsnrtombs.o)
 .debug_abbrev  0x000000000000fc4e      0x270 /home/vboxuser/Desktop/topst/buildtools/gcc-linaro-7.2.1-2017.11-x86_64_arm-eabi/arm-eabi/libc/usr/lib/libc.a(lib_a-wctomb_r.o)
 .debug_abbrev  0x000000000000febe      0x240 /home/vboxuser/Desktop/topst/buildtools/gcc-linaro-7.2.1-2017.11-x86_64_arm-eabi/arm-eabi/libc/usr/lib/libc.a(lib_a-callocr.o)
 .debug_abbrev  0x00000000000100fe      0x1d9 /home/vboxuser/Desktop/topst/buildtools/gcc-linaro-7.2.1-2017.11-x86_64_arm-eabi/arm-eabi/libc/usr/lib/libc.a(lib_a-ctype_.o)
 .debug_abbrev  0x00000000000102d7      0x1ae /home/vboxuser/Desktop/topst/buildtools/gcc-linaro-7.2.1-2017.11-x86_64_arm-eabi/arm-eabi/libc/usr/lib/libc.a(lib_a-errno.o)
 .debug_abbrev  0x0000000000010485      0x3a8 /home/vboxuser/Desktop/topst/buildtools/gcc-linaro-7.2.1-2017.11-x86_64_arm-eabi/arm-eabi/libc/usr/lib/libc.a(lib_a-findfp.o)
 .debug_abbrev  0x000000000001082d      0x215 /home/vboxuser/Desktop/topst/buildtools/gcc-linaro-7.2.1-2017.11-x86_64_arm-eabi/arm-eabi/libc/usr/lib/libc.a(lib_a-fwalk.o)
 .debug_abbrev  0x0000000000010a42      0x21a /home/vboxuser/Desktop/topst/buildtools/gcc-linaro-7.2.1-2017.11-x86_64_arm-eabi/arm-eabi/libc/usr/lib/libc.a(lib_a-getenv_r.o)
 .debug_abbrev  0x0000000000010c5c      0x1e3 /home/vboxuser/Desktop/topst/buildtools/gcc-linaro-7.2.1-2017.11-x86_64_arm-eabi/arm-eabi/libc/usr/lib/libc.a(lib_a-memmove.o)
 .debug_abbrev  0x0000000000010e3f      0x26c /home/vboxuser/Desktop/topst/buildtools/gcc-linaro-7.2.1-2017.11-x86_64_arm-eabi/arm-eabi/libc/usr/lib/libc.a(lib_a-reallocr.o)
 .debug_abbrev  0x00000000000110ab      0x281 /home/vboxuser/Desktop/topst/buildtools/gcc-linaro-7.2.1-2017.11-x86_64_arm-eabi/arm-eabi/libc/usr/lib/libc.a(lib_a-reent.o)
 .debug_abbrev  0x000000000001132c      0x25d /home/vboxuser/Desktop/topst/buildtools/gcc-linaro-7.2.1-2017.11-x86_64_arm-eabi/arm-eabi/libc/usr/lib/libc.a(lib_a-stdio.o)
 .debug_abbrev  0x0000000000011589      0x215 /home/vboxuser/Desktop/topst/buildtools/gcc-linaro-7.2.1-2017.11-x86_64_arm-eabi/arm-eabi/libc/usr/lib/libc.a(lib_a-writer.o)
 .debug_abbrev  0x000000000001179e      0x210 /home/vboxuser/Desktop/topst/buildtools/gcc-linaro-7.2.1-2017.11-x86_64_arm-eabi/arm-eabi/libc/usr/lib/libc.a(lib_a-closer.o)
 .debug_abbrev  0x00000000000119ae       0x56 /home/vboxuser/Desktop/topst/buildtools/gcc-linaro-7.2.1-2017.11-x86_64_arm-eabi/arm-eabi/libc/usr/lib/libc.a(lib_a-environ.o)
 .debug_abbrev  0x0000000000011a04      0x1d7 /home/vboxuser/Desktop/topst/buildtools/gcc-linaro-7.2.1-2017.11-x86_64_arm-eabi/arm-eabi/libc/usr/lib/libc.a(lib_a-envlock.o)
 .debug_abbrev  0x0000000000011bdb      0x2d9 /home/vboxuser/Desktop/topst/buildtools/gcc-linaro-7.2.1-2017.11-x86_64_arm-eabi/arm-eabi/libc/usr/lib/libc.a(lib_a-fclose.o)
 .debug_abbrev  0x0000000000011eb4      0x2e2 /home/vboxuser/Desktop/topst/buildtools/gcc-linaro-7.2.1-2017.11-x86_64_arm-eabi/arm-eabi/libc/usr/lib/libc.a(lib_a-fflush.o)
 .debug_abbrev  0x0000000000012196      0x21f /home/vboxuser/Desktop/topst/buildtools/gcc-linaro-7.2.1-2017.11-x86_64_arm-eabi/arm-eabi/libc/usr/lib/libc.a(lib_a-lseekr.o)
 .debug_abbrev  0x00000000000123b5      0x210 /home/vboxuser/Desktop/topst/buildtools/gcc-linaro-7.2.1-2017.11-x86_64_arm-eabi/arm-eabi/libc/usr/lib/libc.a(lib_a-readr.o)
 .debug_abbrev  0x00000000000125c5       0x14 /home/vboxuser/Desktop/topst/buildtools/gcc-linaro-7.2.1-2017.11-x86_64_arm-eabi/arm-eabi/libc/usr/lib/libgcc.a(_udivsi3.o)
 .debug_abbrev  0x00000000000125d9       0x14 /home/vboxuser/Desktop/topst/buildtools/gcc-linaro-7.2.1-2017.11-x86_64_arm-eabi/arm-eabi/libc/usr/lib/libgcc.a(_dvmd_tls.o)
 .debug_abbrev  0x00000000000125ed       0x14 /home/vboxuser/Desktop/topst/buildtools/gcc-linaro-7.2.1-2017.11-x86_64_arm-eabi/arm-eabi/libc/usr/lib/libgcc.a(_arm_addsubdf3.o)
 .debug_abbrev  0x0000000000012601       0x14 /home/vboxuser/Desktop/topst/buildtools/gcc-linaro-7.2.1-2017.11-x86_64_arm-eabi/arm-eabi/libc/usr/lib/libgcc.a(_arm_muldivdf3.o)
 .debug_abbrev  0x0000000000012615       0x14 /home/vboxuser/Desktop/topst/buildtools/gcc-linaro-7.2.1-2017.11-x86_64_arm-eabi/arm-eabi/libc/usr/lib/libgcc.a(_arm_cmpdf2.o)
 .debug_abbrev  0x0000000000012629       0x14 /home/vboxuser/Desktop/topst/buildtools/gcc-linaro-7.2.1-2017.11-x86_64_arm-eabi/arm-eabi/libc/usr/lib/libgcc.a(_arm_unorddf2.o)
 .debug_abbrev  0x000000000001263d       0x14 /home/vboxuser/Desktop/topst/buildtools/gcc-linaro-7.2.1-2017.11-x86_64_arm-eabi/arm-eabi/libc/usr/lib/libgcc.a(_arm_fixdfsi.o)
 .debug_abbrev  0x0000000000012651       0x14 /home/vboxuser/Desktop/topst/buildtools/gcc-linaro-7.2.1-2017.11-x86_64_arm-eabi/arm-eabi/libc/usr/lib/libgcc.a(_arm_fixunsdfsi.o)
 .debug_abbrev  0x0000000000012665       0x14 /home/vboxuser/Desktop/topst/buildtools/gcc-linaro-7.2.1-2017.11-x86_64_arm-eabi/arm-eabi/libc/usr/lib/libgcc.a(_arm_addsubsf3.o)
 .debug_abbrev  0x0000000000012679       0x14 /home/vboxuser/Desktop/topst/buildtools/gcc-linaro-7.2.1-2017.11-x86_64_arm-eabi/arm-eabi/libc/usr/lib/libgcc.a(_arm_muldivsf3.o)
 .debug_abbrev  0x000000000001268d       0x14 /home/vboxuser/Desktop/topst/buildtools/gcc-linaro-7.2.1-2017.11-x86_64_arm-eabi/arm-eabi/libc/usr/lib/libgcc.a(_arm_fixunssfsi.o)
 .debug_abbrev  0x00000000000126a1       0x14 /home/vboxuser/Desktop/topst/buildtools/gcc-linaro-7.2.1-2017.11-x86_64_arm-eabi/arm-eabi/libc/usr/lib/libgcc.a(_aeabi_uldivmod.o)
 .debug_abbrev  0x00000000000126b5      0x21a /home/vboxuser/Desktop/topst/buildtools/gcc-linaro-7.2.1-2017.11-x86_64_arm-eabi/arm-eabi/libc/usr/lib/libgcc.a(_udivmoddi4.o)
 .debug_abbrev  0x00000000000128cf       0x14 /home/vboxuser/Desktop/topst/buildtools/gcc-linaro-7.2.1-2017.11-x86_64_arm-eabi/arm-eabi/libc/usr/lib/libgcc.a(_clzdi2.o)
 .debug_abbrev  0x00000000000128e3       0x14 /home/vboxuser/Desktop/topst/buildtools/gcc-linaro-7.2.1-2017.11-x86_64_arm-eabi/arm-eabi/libc/usr/lib/libgcc.a(_clzsi2.o)

.debug_loc      0x0000000000000000    0x2d96c
 .debug_loc     0x0000000000000000       0xbc /home/vboxuser/Desktop/topst/cr5-bsp/sources/build/tcc805x/gcc/tcc805x-freertos-debug/obj/main.o
 .debug_loc     0x00000000000000bc      0x268 /home/vboxuser/Desktop/topst/cr5-bsp/sources/build/tcc805x/gcc/tcc805x-freertos-debug/obj/can_demo.o
 .debug_loc     0x0000000000000324      0xb18 /home/vboxuser/Desktop/topst/cr5-bsp/sources/build/tcc805x/gcc/tcc805x-freertos-debug/obj/console.o
 .debug_loc     0x0000000000000e3c       0xd4 /home/vboxuser/Desktop/topst/cr5-bsp/sources/build/tcc805x/gcc/tcc805x-freertos-debug/obj/fwug.o
 .debug_loc     0x0000000000000f10       0xf8 /home/vboxuser/Desktop/topst/cr5-bsp/sources/build/tcc805x/gcc/tcc805x-freertos-debug/obj/key_adc.o
 .debug_loc     0x0000000000001008      0x144 /home/vboxuser/Desktop/topst/cr5-bsp/sources/build/tcc805x/gcc/tcc805x-freertos-debug/obj/key_gpio.o
 .debug_loc     0x000000000000114c      0x168 /home/vboxuser/Desktop/topst/cr5-bsp/sources/build/tcc805x/gcc/tcc805x-freertos-debug/obj/key_i2c.o
 .debug_loc     0x00000000000012b4      0x124 /home/vboxuser/Desktop/topst/cr5-bsp/sources/build/tcc805x/gcc/tcc805x-freertos-debug/obj/system_monitoring.o
 .debug_loc     0x00000000000013d8      0x15c /home/vboxuser/Desktop/topst/cr5-bsp/sources/build/tcc805x/gcc/tcc805x-freertos-debug/obj/bootctrl.o
 .debug_loc     0x0000000000001534       0x38 /home/vboxuser/Desktop/topst/cr5-bsp/sources/build/tcc805x/gcc/tcc805x-freertos-debug/obj/reset_demo.o
 .debug_loc     0x000000000000156c      0x2b8 /home/vboxuser/Desktop/topst/cr5-bsp/sources/build/tcc805x/gcc/tcc805x-freertos-debug/obj/adc_test.o
 .debug_loc     0x0000000000001824       0xa8 /home/vboxuser/Desktop/topst/cr5-bsp/sources/build/tcc805x/gcc/tcc805x-freertos-debug/obj/dse_test.o
 .debug_loc     0x00000000000018cc      0x1a0 /home/vboxuser/Desktop/topst/cr5-bsp/sources/build/tcc805x/gcc/tcc805x-freertos-debug/obj/fmu_test.o
 .debug_loc     0x0000000000001a6c       0x38 /home/vboxuser/Desktop/topst/cr5-bsp/sources/build/tcc805x/gcc/tcc805x-freertos-debug/obj/gdma_test.o
 .debug_loc     0x0000000000001aa4       0xa8 /home/vboxuser/Desktop/topst/cr5-bsp/sources/build/tcc805x/gcc/tcc805x-freertos-debug/obj/gic_test.o
 .debug_loc     0x0000000000001b4c       0xa8 /home/vboxuser/Desktop/topst/cr5-bsp/sources/build/tcc805x/gcc/tcc805x-freertos-debug/obj/gpio_test.o
 .debug_loc     0x0000000000001bf4      0x348 /home/vboxuser/Desktop/topst/cr5-bsp/sources/build/tcc805x/gcc/tcc805x-freertos-debug/obj/gpsb_test.o
 .debug_loc     0x0000000000001f3c      0x3b8 /home/vboxuser/Desktop/topst/cr5-bsp/sources/build/tcc805x/gcc/tcc805x-freertos-debug/obj/hsm_test.o
 .debug_loc     0x00000000000022f4      0x224 /home/vboxuser/Desktop/topst/cr5-bsp/sources/build/tcc805x/gcc/tcc805x-freertos-debug/obj/i2c_test.o
 .debug_loc     0x0000000000002518      0x100 /home/vboxuser/Desktop/topst/cr5-bsp/sources/build/tcc805x/gcc/tcc805x-freertos-debug/obj/ictc_test.o
 .debug_loc     0x0000000000002618       0x64 /home/vboxuser/Desktop/topst/cr5-bsp/sources/build/tcc805x/gcc/tcc805x-freertos-debug/obj/lin_test.o
 .debug_loc     0x000000000000267c      0x144 /home/vboxuser/Desktop/topst/cr5-bsp/sources/build/tcc805x/gcc/tcc805x-freertos-debug/obj/pdm_test.o
 .debug_loc     0x00000000000027c0      0x204 /home/vboxuser/Desktop/topst/cr5-bsp/sources/build/tcc805x/gcc/tcc805x-freertos-debug/obj/pmio_test.o
 .debug_loc     0x00000000000029c4      0x460 /home/vboxuser/Desktop/topst/cr5-bsp/sources/build/tcc805x/gcc/tcc805x-freertos-debug/obj/timer_test.o
 .debug_loc     0x0000000000002e24      0x368 /home/vboxuser/Desktop/topst/cr5-bsp/sources/build/tcc805x/gcc/tcc805x-freertos-debug/obj/wdt_test.o
 .debug_loc     0x000000000000318c      0x158 /home/vboxuser/Desktop/topst/cr5-bsp/sources/build/tcc805x/gcc/tcc805x-freertos-debug/obj/pwm_test.o
 .debug_loc     0x00000000000032e4      0x100 /home/vboxuser/Desktop/topst/cr5-bsp/sources/build/tcc805x/gcc/tcc805x-freertos-debug/obj/Motor_System.o
 .debug_loc     0x00000000000033e4       0x64 /home/vboxuser/Desktop/topst/cr5-bsp/sources/build/tcc805x/gcc/tcc805x-freertos-debug/obj/mptool.o
 .debug_loc     0x0000000000003448      0x868 /home/vboxuser/Desktop/topst/cr5-bsp/sources/build/tcc805x/gcc/tcc805x-freertos-debug/obj/ipc_os.o
 .debug_loc     0x0000000000003cb0      0x36c /home/vboxuser/Desktop/topst/cr5-bsp/sources/build/tcc805x/gcc/tcc805x-freertos-debug/obj/ipc_buffer.o
 .debug_loc     0x000000000000401c      0x150 /home/vboxuser/Desktop/topst/cr5-bsp/sources/build/tcc805x/gcc/tcc805x-freertos-debug/obj/ipc_cmd.o
 .debug_loc     0x000000000000416c      0x46c /home/vboxuser/Desktop/topst/cr5-bsp/sources/build/tcc805x/gcc/tcc805x-freertos-debug/obj/ipc_ctl.o
 .debug_loc     0x00000000000045d8      0x100 /home/vboxuser/Desktop/topst/cr5-bsp/sources/build/tcc805x/gcc/tcc805x-freertos-debug/obj/ipc_parser.o
 .debug_loc     0x00000000000046d8      0x124 /home/vboxuser/Desktop/topst/cr5-bsp/sources/build/tcc805x/gcc/tcc805x-freertos-debug/obj/ipc_api.o
 .debug_loc     0x00000000000047fc       0xe0 /home/vboxuser/Desktop/topst/cr5-bsp/sources/build/tcc805x/gcc/tcc805x-freertos-debug/obj/ipc.o
 .debug_loc     0x00000000000048dc      0x1c0 /home/vboxuser/Desktop/topst/cr5-bsp/sources/build/tcc805x/gcc/tcc805x-freertos-debug/obj/lin.o
 .debug_loc     0x0000000000004a9c      0x188 /home/vboxuser/Desktop/topst/cr5-bsp/sources/build/tcc805x/gcc/tcc805x-freertos-debug/obj/sdm.o
 .debug_loc     0x0000000000004c24      0x310 /home/vboxuser/Desktop/topst/cr5-bsp/sources/build/tcc805x/gcc/tcc805x-freertos-debug/obj/hsm_manager.o
 .debug_loc     0x0000000000004f34      0x204 /home/vboxuser/Desktop/topst/cr5-bsp/sources/build/tcc805x/gcc/tcc805x-freertos-debug/obj/adc.o
 .debug_loc     0x0000000000005138      0x3bc /home/vboxuser/Desktop/topst/cr5-bsp/sources/build/tcc805x/gcc/tcc805x-freertos-debug/obj/can.o
 .debug_loc     0x00000000000054f4      0x6a0 /home/vboxuser/Desktop/topst/cr5-bsp/sources/build/tcc805x/gcc/tcc805x-freertos-debug/obj/can_drv.o
 .debug_loc     0x0000000000005b94      0x34c /home/vboxuser/Desktop/topst/cr5-bsp/sources/build/tcc805x/gcc/tcc805x-freertos-debug/obj/can_msg.o
 .debug_loc     0x0000000000005ee0      0x87c /home/vboxuser/Desktop/topst/cr5-bsp/sources/build/tcc805x/gcc/tcc805x-freertos-debug/obj/can_porting.o
 .debug_loc     0x000000000000675c      0x640 /home/vboxuser/Desktop/topst/cr5-bsp/sources/build/tcc805x/gcc/tcc805x-freertos-debug/obj/clock_dev.o
 .debug_loc     0x0000000000006d9c      0x180 /home/vboxuser/Desktop/topst/cr5-bsp/sources/build/tcc805x/gcc/tcc805x-freertos-debug/obj/debug.o
 .debug_loc     0x0000000000006f1c       0xc8 /home/vboxuser/Desktop/topst/cr5-bsp/sources/build/tcc805x/gcc/tcc805x-freertos-debug/obj/bsp.o
 .debug_loc     0x0000000000006fe4      0x334 /home/vboxuser/Desktop/topst/cr5-bsp/sources/build/tcc805x/gcc/tcc805x-freertos-debug/obj/fmu.o
 .debug_loc     0x0000000000007318      0x338 /home/vboxuser/Desktop/topst/cr5-bsp/sources/build/tcc805x/gcc/tcc805x-freertos-debug/obj/gdma.o
 .debug_loc     0x0000000000007650      0x3b4 /home/vboxuser/Desktop/topst/cr5-bsp/sources/build/tcc805x/gcc/tcc805x-freertos-debug/obj/gic.o
 .debug_loc     0x0000000000007a04      0x124 /home/vboxuser/Desktop/topst/cr5-bsp/sources/build/tcc805x/gcc/tcc805x-freertos-debug/obj/gpio.o
 .debug_loc     0x0000000000007b28      0x65c /home/vboxuser/Desktop/topst/cr5-bsp/sources/build/tcc805x/gcc/tcc805x-freertos-debug/obj/i2c.o
 .debug_loc     0x0000000000008184      0x4f8 /home/vboxuser/Desktop/topst/cr5-bsp/sources/build/tcc805x/gcc/tcc805x-freertos-debug/obj/ictc.o
 .debug_loc     0x000000000000867c      0x714 /home/vboxuser/Desktop/topst/cr5-bsp/sources/build/tcc805x/gcc/tcc805x-freertos-debug/obj/mbox_phy.o
 .debug_loc     0x0000000000008d90      0x7b4 /home/vboxuser/Desktop/topst/cr5-bsp/sources/build/tcc805x/gcc/tcc805x-freertos-debug/obj/mbox_dev.o
 .debug_loc     0x0000000000009544      0x25c /home/vboxuser/Desktop/topst/cr5-bsp/sources/build/tcc805x/gcc/tcc805x-freertos-debug/obj/mbox.o
 .debug_loc     0x00000000000097a0      0x174 /home/vboxuser/Desktop/topst/cr5-bsp/sources/build/tcc805x/gcc/tcc805x-freertos-debug/obj/mpu.o
 .debug_loc     0x0000000000009914      0x614 /home/vboxuser/Desktop/topst/cr5-bsp/sources/build/tcc805x/gcc/tcc805x-freertos-debug/obj/pdm.o
 .debug_loc     0x0000000000009f28      0x754 /home/vboxuser/Desktop/topst/cr5-bsp/sources/build/tcc805x/gcc/tcc805x-freertos-debug/obj/pmio_dev.o
 .debug_loc     0x000000000000a67c      0xf08 /home/vboxuser/Desktop/topst/cr5-bsp/sources/build/tcc805x/gcc/tcc805x-freertos-debug/obj/gpsb.o
 .debug_loc     0x000000000000b584      0x2c4 /home/vboxuser/Desktop/topst/cr5-bsp/sources/build/tcc805x/gcc/tcc805x-freertos-debug/obj/timer.o
 .debug_loc     0x000000000000b848      0x934 /home/vboxuser/Desktop/topst/cr5-bsp/sources/build/tcc805x/gcc/tcc805x-freertos-debug/obj/uart.o
 .debug_loc     0x000000000000c17c      0x440 /home/vboxuser/Desktop/topst/cr5-bsp/sources/build/tcc805x/gcc/tcc805x-freertos-debug/obj/udma.o
 .debug_loc     0x000000000000c5bc      0x264 /home/vboxuser/Desktop/topst/cr5-bsp/sources/build/tcc805x/gcc/tcc805x-freertos-debug/obj/wdt.o
 .debug_loc     0x000000000000c820      0x124 /home/vboxuser/Desktop/topst/cr5-bsp/sources/build/tcc805x/gcc/tcc805x-freertos-debug/obj/dse.o
 .debug_loc     0x000000000000c944      0x1fc /home/vboxuser/Desktop/topst/cr5-bsp/sources/build/tcc805x/gcc/tcc805x-freertos-debug/obj/midf.o
 .debug_loc     0x000000000000cb40      0x1e4 /home/vboxuser/Desktop/topst/cr5-bsp/sources/build/tcc805x/gcc/tcc805x-freertos-debug/obj/pmu_reset.o
 .debug_loc     0x000000000000cd24      0xd28 /home/vboxuser/Desktop/topst/cr5-bsp/sources/build/tcc805x/gcc/tcc805x-freertos-debug/obj/tasks.o
 .debug_loc     0x000000000000da4c      0x154 /home/vboxuser/Desktop/topst/cr5-bsp/sources/build/tcc805x/gcc/tcc805x-freertos-debug/obj/list.o
 .debug_loc     0x000000000000dba0      0x9c8 /home/vboxuser/Desktop/topst/cr5-bsp/sources/build/tcc805x/gcc/tcc805x-freertos-debug/obj/queue.o
 .debug_loc     0x000000000000e568      0x274 /home/vboxuser/Desktop/topst/cr5-bsp/sources/build/tcc805x/gcc/tcc805x-freertos-debug/obj/event_groups.o
 .debug_loc     0x000000000000e7dc      0x5a8 /home/vboxuser/Desktop/topst/cr5-bsp/sources/build/tcc805x/gcc/tcc805x-freertos-debug/obj/timers.o
 .debug_loc     0x000000000000ed84      0x500 /home/vboxuser/Desktop/topst/cr5-bsp/sources/build/tcc805x/gcc/tcc805x-freertos-debug/obj/stream_buffer.o
 .debug_loc     0x000000000000f284      0x4c0 /home/vboxuser/Desktop/topst/cr5-bsp/sources/build/tcc805x/gcc/tcc805x-freertos-debug/obj/port.o
 .debug_loc     0x000000000000f744      0x1b8 /home/vboxuser/Desktop/topst/cr5-bsp/sources/build/tcc805x/gcc/tcc805x-freertos-debug/obj/heap_5.o
 .debug_loc     0x000000000000f8fc       0x44 /home/vboxuser/Desktop/topst/cr5-bsp/sources/build/tcc805x/gcc/tcc805x-freertos-debug/obj/sal_api.o
 .debug_loc     0x000000000000f940      0x648 /home/vboxuser/Desktop/topst/cr5-bsp/sources/build/tcc805x/gcc/tcc805x-freertos-debug/obj/sal_freertos_impl.o
 .debug_loc     0x000000000000ff88       0x63 /home/vboxuser/Desktop/topst/buildtools/gcc-linaro-7.2.1-2017.11-x86_64_arm-eabi/arm-eabi/libc/usr/lib/libc.a(lib_a-atoi.o)
 .debug_loc     0x000000000000ffeb       0x63 /home/vboxuser/Desktop/topst/buildtools/gcc-linaro-7.2.1-2017.11-x86_64_arm-eabi/arm-eabi/libc/usr/lib/libc.a(lib_a-atol.o)
 .debug_loc     0x000000000001004e      0x2b6 /home/vboxuser/Desktop/topst/buildtools/gcc-linaro-7.2.1-2017.11-x86_64_arm-eabi/arm-eabi/libc/usr/lib/libc.a(lib_a-memcmp.o)
 .debug_loc     0x0000000000010304      0x1be /home/vboxuser/Desktop/topst/buildtools/gcc-linaro-7.2.1-2017.11-x86_64_arm-eabi/arm-eabi/libc/usr/lib/libc.a(lib_a-memcpy-stub.o)
 .debug_loc     0x00000000000104c2      0x200 /home/vboxuser/Desktop/topst/buildtools/gcc-linaro-7.2.1-2017.11-x86_64_arm-eabi/arm-eabi/libc/usr/lib/libc.a(lib_a-memset.o)
 .debug_loc     0x00000000000106c2      0x199 /home/vboxuser/Desktop/topst/buildtools/gcc-linaro-7.2.1-2017.11-x86_64_arm-eabi/arm-eabi/libc/usr/lib/libc.a(lib_a-snprintf.o)
 .debug_loc     0x000000000001085b       0x21 /home/vboxuser/Desktop/topst/buildtools/gcc-linaro-7.2.1-2017.11-x86_64_arm-eabi/arm-eabi/libc/usr/lib/libc.a(lib_a-strlen-stub.o)
 .debug_loc     0x000000000001087c      0x150 /home/vboxuser/Desktop/topst/buildtools/gcc-linaro-7.2.1-2017.11-x86_64_arm-eabi/arm-eabi/libc/usr/lib/libc.a(lib_a-strncmp.o)
 .debug_loc     0x00000000000109cc      0x128 /home/vboxuser/Desktop/topst/buildtools/gcc-linaro-7.2.1-2017.11-x86_64_arm-eabi/arm-eabi/libc/usr/lib/libc.a(lib_a-strncpy.o)
 .debug_loc     0x0000000000010af4      0x14f /home/vboxuser/Desktop/topst/buildtools/gcc-linaro-7.2.1-2017.11-x86_64_arm-eabi/arm-eabi/libc/usr/lib/libc.a(lib_a-strnlen.o)
 .debug_loc     0x0000000000010c43      0x49e /home/vboxuser/Desktop/topst/buildtools/gcc-linaro-7.2.1-2017.11-x86_64_arm-eabi/arm-eabi/libc/usr/lib/libc.a(lib_a-strtol.o)
 .debug_loc     0x00000000000110e1      0x496 /home/vboxuser/Desktop/topst/buildtools/gcc-linaro-7.2.1-2017.11-x86_64_arm-eabi/arm-eabi/libc/usr/lib/libc.a(lib_a-strtoul.o)
 .debug_loc     0x0000000000011577     0x8c37 /home/vboxuser/Desktop/topst/buildtools/gcc-linaro-7.2.1-2017.11-x86_64_arm-eabi/arm-eabi/libc/usr/lib/libc.a(lib_a-svfprintf.o)
 .debug_loc     0x000000000001a1ae      0x250 /home/vboxuser/Desktop/topst/buildtools/gcc-linaro-7.2.1-2017.11-x86_64_arm-eabi/arm-eabi/libc/usr/lib/libc.a(lib_a-wcrtomb.o)
 .debug_loc     0x000000000001a3fe      0x142 /home/vboxuser/Desktop/topst/buildtools/gcc-linaro-7.2.1-2017.11-x86_64_arm-eabi/arm-eabi/libc/usr/lib/libc.a(lib_a-wcsrtombs.o)
 .debug_loc     0x000000000001a540     0x26a5 /home/vboxuser/Desktop/topst/buildtools/gcc-linaro-7.2.1-2017.11-x86_64_arm-eabi/arm-eabi/libc/usr/lib/libc.a(lib_a-dtoa.o)
 .debug_loc     0x000000000001cbe5      0x4b2 /home/vboxuser/Desktop/topst/buildtools/gcc-linaro-7.2.1-2017.11-x86_64_arm-eabi/arm-eabi/libc/usr/lib/libc.a(lib_a-freer.o)
 .debug_loc     0x000000000001d097      0x9e8 /home/vboxuser/Desktop/topst/buildtools/gcc-linaro-7.2.1-2017.11-x86_64_arm-eabi/arm-eabi/libc/usr/lib/libc.a(lib_a-locale.o)
 .debug_loc     0x000000000001da7f       0x63 /home/vboxuser/Desktop/topst/buildtools/gcc-linaro-7.2.1-2017.11-x86_64_arm-eabi/arm-eabi/libc/usr/lib/libc.a(lib_a-localeconv.o)
 .debug_loc     0x000000000001dae2      0xb21 /home/vboxuser/Desktop/topst/buildtools/gcc-linaro-7.2.1-2017.11-x86_64_arm-eabi/arm-eabi/libc/usr/lib/libc.a(lib_a-mallocr.o)
 .debug_loc     0x000000000001e603      0xc4f /home/vboxuser/Desktop/topst/buildtools/gcc-linaro-7.2.1-2017.11-x86_64_arm-eabi/arm-eabi/libc/usr/lib/libc.a(lib_a-mbtowc_r.o)
 .debug_loc     0x000000000001f252      0x1cd /home/vboxuser/Desktop/topst/buildtools/gcc-linaro-7.2.1-2017.11-x86_64_arm-eabi/arm-eabi/libc/usr/lib/libc.a(lib_a-memchr-stub.o)
 .debug_loc     0x000000000001f41f     0x2457 /home/vboxuser/Desktop/topst/buildtools/gcc-linaro-7.2.1-2017.11-x86_64_arm-eabi/arm-eabi/libc/usr/lib/libc.a(lib_a-mprec.o)
 .debug_loc     0x0000000000021876       0xe4 /home/vboxuser/Desktop/topst/buildtools/gcc-linaro-7.2.1-2017.11-x86_64_arm-eabi/arm-eabi/libc/usr/lib/libc.a(lib_a-s_frexp.o)
 .debug_loc     0x000000000002195a       0x4d /home/vboxuser/Desktop/topst/buildtools/gcc-linaro-7.2.1-2017.11-x86_64_arm-eabi/arm-eabi/libc/usr/lib/libc.a(lib_a-sbrkr.o)
 .debug_loc     0x00000000000219a7      0x130 /home/vboxuser/Desktop/topst/buildtools/gcc-linaro-7.2.1-2017.11-x86_64_arm-eabi/arm-eabi/libc/usr/lib/libc.a(lib_a-strcasecmp.o)
 .debug_loc     0x0000000000021ad7       0xa0 /home/vboxuser/Desktop/topst/buildtools/gcc-linaro-7.2.1-2017.11-x86_64_arm-eabi/arm-eabi/libc/usr/lib/libc.a(lib_a-strcat.o)
 .debug_loc     0x0000000000021b77      0x21f /home/vboxuser/Desktop/topst/buildtools/gcc-linaro-7.2.1-2017.11-x86_64_arm-eabi/arm-eabi/libc/usr/lib/libc.a(lib_a-strchr.o)
 .debug_loc     0x0000000000021d96       0x21 /home/vboxuser/Desktop/topst/buildtools/gcc-linaro-7.2.1-2017.11-x86_64_arm-eabi/arm-eabi/libc/usr/lib/libc.a(lib_a-strcpy.o)
 .debug_loc     0x0000000000021db7      0x10b /home/vboxuser/Desktop/topst/buildtools/gcc-linaro-7.2.1-2017.11-x86_64_arm-eabi/arm-eabi/libc/usr/lib/libc.a(lib_a-strlcpy.o)
 .debug_loc     0x0000000000021ec2      0x196 /home/vboxuser/Desktop/topst/buildtools/gcc-linaro-7.2.1-2017.11-x86_64_arm-eabi/arm-eabi/libc/usr/lib/libc.a(lib_a-strncasecmp.o)
 .debug_loc     0x0000000000022058     0x751b /home/vboxuser/Desktop/topst/buildtools/gcc-linaro-7.2.1-2017.11-x86_64_arm-eabi/arm-eabi/libc/usr/lib/libc.a(lib_a-svfiprintf.o)
 .debug_loc     0x0000000000029573     0x125f /home/vboxuser/Desktop/topst/buildtools/gcc-linaro-7.2.1-2017.11-x86_64_arm-eabi/arm-eabi/libc/usr/lib/libc.a(lib_a-syscalls.o)
 .debug_loc     0x000000000002a7d2      0x5d8 /home/vboxuser/Desktop/topst/buildtools/gcc-linaro-7.2.1-2017.11-x86_64_arm-eabi/arm-eabi/libc/usr/lib/libc.a(lib_a-wcsnrtombs.o)
 .debug_loc     0x000000000002adaa      0x86a /home/vboxuser/Desktop/topst/buildtools/gcc-linaro-7.2.1-2017.11-x86_64_arm-eabi/arm-eabi/libc/usr/lib/libc.a(lib_a-wctomb_r.o)
 .debug_loc     0x000000000002b614      0x201 /home/vboxuser/Desktop/topst/buildtools/gcc-linaro-7.2.1-2017.11-x86_64_arm-eabi/arm-eabi/libc/usr/lib/libc.a(lib_a-callocr.o)
 .debug_loc     0x000000000002b815      0x331 /home/vboxuser/Desktop/topst/buildtools/gcc-linaro-7.2.1-2017.11-x86_64_arm-eabi/arm-eabi/libc/usr/lib/libc.a(lib_a-findfp.o)
 .debug_loc     0x000000000002bb46      0x1c1 /home/vboxuser/Desktop/topst/buildtools/gcc-linaro-7.2.1-2017.11-x86_64_arm-eabi/arm-eabi/libc/usr/lib/libc.a(lib_a-fwalk.o)
 .debug_loc     0x000000000002bd07      0x1a6 /home/vboxuser/Desktop/topst/buildtools/gcc-linaro-7.2.1-2017.11-x86_64_arm-eabi/arm-eabi/libc/usr/lib/libc.a(lib_a-getenv_r.o)
 .debug_loc     0x000000000002bead      0x223 /home/vboxuser/Desktop/topst/buildtools/gcc-linaro-7.2.1-2017.11-x86_64_arm-eabi/arm-eabi/libc/usr/lib/libc.a(lib_a-memmove.o)
 .debug_loc     0x000000000002c0d0      0xbe9 /home/vboxuser/Desktop/topst/buildtools/gcc-linaro-7.2.1-2017.11-x86_64_arm-eabi/arm-eabi/libc/usr/lib/libc.a(lib_a-reallocr.o)
 .debug_loc     0x000000000002ccb9      0x136 /home/vboxuser/Desktop/topst/buildtools/gcc-linaro-7.2.1-2017.11-x86_64_arm-eabi/arm-eabi/libc/usr/lib/libc.a(lib_a-reent.o)
 .debug_loc     0x000000000002cdef      0x2d6 /home/vboxuser/Desktop/topst/buildtools/gcc-linaro-7.2.1-2017.11-x86_64_arm-eabi/arm-eabi/libc/usr/lib/libc.a(lib_a-stdio.o)
 .debug_loc     0x000000000002d0c5       0xa5 /home/vboxuser/Desktop/topst/buildtools/gcc-linaro-7.2.1-2017.11-x86_64_arm-eabi/arm-eabi/libc/usr/lib/libc.a(lib_a-writer.o)
 .debug_loc     0x000000000002d16a       0x4d /home/vboxuser/Desktop/topst/buildtools/gcc-linaro-7.2.1-2017.11-x86_64_arm-eabi/arm-eabi/libc/usr/lib/libc.a(lib_a-closer.o)
 .debug_loc     0x000000000002d1b7      0x17e /home/vboxuser/Desktop/topst/buildtools/gcc-linaro-7.2.1-2017.11-x86_64_arm-eabi/arm-eabi/libc/usr/lib/libc.a(lib_a-fclose.o)
 .debug_loc     0x000000000002d335      0x342 /home/vboxuser/Desktop/topst/buildtools/gcc-linaro-7.2.1-2017.11-x86_64_arm-eabi/arm-eabi/libc/usr/lib/libc.a(lib_a-fflush.o)
 .debug_loc     0x000000000002d677       0xa5 /home/vboxuser/Desktop/topst/buildtools/gcc-linaro-7.2.1-2017.11-x86_64_arm-eabi/arm-eabi/libc/usr/lib/libc.a(lib_a-lseekr.o)
 .debug_loc     0x000000000002d71c       0xa5 /home/vboxuser/Desktop/topst/buildtools/gcc-linaro-7.2.1-2017.11-x86_64_arm-eabi/arm-eabi/libc/usr/lib/libc.a(lib_a-readr.o)
 .debug_loc     0x000000000002d7c1      0x1ab /home/vboxuser/Desktop/topst/buildtools/gcc-linaro-7.2.1-2017.11-x86_64_arm-eabi/arm-eabi/libc/usr/lib/libgcc.a(_udivmoddi4.o)

.debug_aranges  0x0000000000000000     0x1378
 .debug_aranges
                0x0000000000000000       0x20 /home/vboxuser/Desktop/topst/cr5-bsp/sources/build/tcc805x/gcc/tcc805x-freertos-debug/obj/main.o
 .debug_aranges
                0x0000000000000020       0x20 /home/vboxuser/Desktop/topst/cr5-bsp/sources/build/tcc805x/gcc/tcc805x-freertos-debug/obj/can_demo.o
 .debug_aranges
                0x0000000000000040       0x20 /home/vboxuser/Desktop/topst/cr5-bsp/sources/build/tcc805x/gcc/tcc805x-freertos-debug/obj/console.o
 .debug_aranges
                0x0000000000000060       0x20 /home/vboxuser/Desktop/topst/cr5-bsp/sources/build/tcc805x/gcc/tcc805x-freertos-debug/obj/fwug.o
 .debug_aranges
                0x0000000000000080       0x20 /home/vboxuser/Desktop/topst/cr5-bsp/sources/build/tcc805x/gcc/tcc805x-freertos-debug/obj/key_adc.o
 .debug_aranges
                0x00000000000000a0       0x20 /home/vboxuser/Desktop/topst/cr5-bsp/sources/build/tcc805x/gcc/tcc805x-freertos-debug/obj/key_gpio.o
 .debug_aranges
                0x00000000000000c0       0x20 /home/vboxuser/Desktop/topst/cr5-bsp/sources/build/tcc805x/gcc/tcc805x-freertos-debug/obj/key_i2c.o
 .debug_aranges
                0x00000000000000e0       0x20 /home/vboxuser/Desktop/topst/cr5-bsp/sources/build/tcc805x/gcc/tcc805x-freertos-debug/obj/system_monitoring.o
 .debug_aranges
                0x0000000000000100       0x20 /home/vboxuser/Desktop/topst/cr5-bsp/sources/build/tcc805x/gcc/tcc805x-freertos-debug/obj/bootctrl.o
 .debug_aranges
                0x0000000000000120       0x20 /home/vboxuser/Desktop/topst/cr5-bsp/sources/build/tcc805x/gcc/tcc805x-freertos-debug/obj/reset_demo.o
 .debug_aranges
                0x0000000000000140       0x20 /home/vboxuser/Desktop/topst/cr5-bsp/sources/build/tcc805x/gcc/tcc805x-freertos-debug/obj/adc_test.o
 .debug_aranges
                0x0000000000000160       0x20 /home/vboxuser/Desktop/topst/cr5-bsp/sources/build/tcc805x/gcc/tcc805x-freertos-debug/obj/dse_test.o
 .debug_aranges
                0x0000000000000180       0x20 /home/vboxuser/Desktop/topst/cr5-bsp/sources/build/tcc805x/gcc/tcc805x-freertos-debug/obj/fmu_test.o
 .debug_aranges
                0x00000000000001a0       0x20 /home/vboxuser/Desktop/topst/cr5-bsp/sources/build/tcc805x/gcc/tcc805x-freertos-debug/obj/gdma_test.o
 .debug_aranges
                0x00000000000001c0       0x20 /home/vboxuser/Desktop/topst/cr5-bsp/sources/build/tcc805x/gcc/tcc805x-freertos-debug/obj/gic_test.o
 .debug_aranges
                0x00000000000001e0       0x20 /home/vboxuser/Desktop/topst/cr5-bsp/sources/build/tcc805x/gcc/tcc805x-freertos-debug/obj/gpio_test.o
 .debug_aranges
                0x0000000000000200       0x20 /home/vboxuser/Desktop/topst/cr5-bsp/sources/build/tcc805x/gcc/tcc805x-freertos-debug/obj/gpsb_test.o
 .debug_aranges
                0x0000000000000220       0x20 /home/vboxuser/Desktop/topst/cr5-bsp/sources/build/tcc805x/gcc/tcc805x-freertos-debug/obj/hsm_test.o
 .debug_aranges
                0x0000000000000240       0x20 /home/vboxuser/Desktop/topst/cr5-bsp/sources/build/tcc805x/gcc/tcc805x-freertos-debug/obj/i2c_test.o
 .debug_aranges
                0x0000000000000260       0x20 /home/vboxuser/Desktop/topst/cr5-bsp/sources/build/tcc805x/gcc/tcc805x-freertos-debug/obj/ictc_test.o
 .debug_aranges
                0x0000000000000280       0x20 /home/vboxuser/Desktop/topst/cr5-bsp/sources/build/tcc805x/gcc/tcc805x-freertos-debug/obj/lin_test.o
 .debug_aranges
                0x00000000000002a0       0x20 /home/vboxuser/Desktop/topst/cr5-bsp/sources/build/tcc805x/gcc/tcc805x-freertos-debug/obj/pdm_test.o
 .debug_aranges
                0x00000000000002c0       0x20 /home/vboxuser/Desktop/topst/cr5-bsp/sources/build/tcc805x/gcc/tcc805x-freertos-debug/obj/pmio_test.o
 .debug_aranges
                0x00000000000002e0       0x20 /home/vboxuser/Desktop/topst/cr5-bsp/sources/build/tcc805x/gcc/tcc805x-freertos-debug/obj/timer_test.o
 .debug_aranges
                0x0000000000000300       0x20 /home/vboxuser/Desktop/topst/cr5-bsp/sources/build/tcc805x/gcc/tcc805x-freertos-debug/obj/wdt_test.o
 .debug_aranges
                0x0000000000000320       0x20 /home/vboxuser/Desktop/topst/cr5-bsp/sources/build/tcc805x/gcc/tcc805x-freertos-debug/obj/pwm_test.o
 .debug_aranges
                0x0000000000000340       0x20 /home/vboxuser/Desktop/topst/cr5-bsp/sources/build/tcc805x/gcc/tcc805x-freertos-debug/obj/Motor_System.o
 .debug_aranges
                0x0000000000000360       0x20 /home/vboxuser/Desktop/topst/cr5-bsp/sources/build/tcc805x/gcc/tcc805x-freertos-debug/obj/mptool.o
 .debug_aranges
                0x0000000000000380       0x20 /home/vboxuser/Desktop/topst/cr5-bsp/sources/build/tcc805x/gcc/tcc805x-freertos-debug/obj/ipc_os.o
 .debug_aranges
                0x00000000000003a0       0x20 /home/vboxuser/Desktop/topst/cr5-bsp/sources/build/tcc805x/gcc/tcc805x-freertos-debug/obj/ipc_buffer.o
 .debug_aranges
                0x00000000000003c0       0x20 /home/vboxuser/Desktop/topst/cr5-bsp/sources/build/tcc805x/gcc/tcc805x-freertos-debug/obj/ipc_cmd.o
 .debug_aranges
                0x00000000000003e0       0x20 /home/vboxuser/Desktop/topst/cr5-bsp/sources/build/tcc805x/gcc/tcc805x-freertos-debug/obj/ipc_ctl.o
 .debug_aranges
                0x0000000000000400       0x20 /home/vboxuser/Desktop/topst/cr5-bsp/sources/build/tcc805x/gcc/tcc805x-freertos-debug/obj/ipc_parser.o
 .debug_aranges
                0x0000000000000420       0x20 /home/vboxuser/Desktop/topst/cr5-bsp/sources/build/tcc805x/gcc/tcc805x-freertos-debug/obj/ipc_api.o
 .debug_aranges
                0x0000000000000440       0x20 /home/vboxuser/Desktop/topst/cr5-bsp/sources/build/tcc805x/gcc/tcc805x-freertos-debug/obj/ipc.o
 .debug_aranges
                0x0000000000000460       0x20 /home/vboxuser/Desktop/topst/cr5-bsp/sources/build/tcc805x/gcc/tcc805x-freertos-debug/obj/lin.o
 .debug_aranges
                0x0000000000000480       0x20 /home/vboxuser/Desktop/topst/cr5-bsp/sources/build/tcc805x/gcc/tcc805x-freertos-debug/obj/sdm.o
 .debug_aranges
                0x00000000000004a0       0x20 /home/vboxuser/Desktop/topst/cr5-bsp/sources/build/tcc805x/gcc/tcc805x-freertos-debug/obj/hsm_manager.o
 .debug_aranges
                0x00000000000004c0       0x20 /home/vboxuser/Desktop/topst/cr5-bsp/sources/build/tcc805x/gcc/tcc805x-freertos-debug/obj/adc.o
 .debug_aranges
                0x00000000000004e0       0x20 /home/vboxuser/Desktop/topst/cr5-bsp/sources/build/tcc805x/gcc/tcc805x-freertos-debug/obj/can.o
 .debug_aranges
                0x0000000000000500       0x20 /home/vboxuser/Desktop/topst/cr5-bsp/sources/build/tcc805x/gcc/tcc805x-freertos-debug/obj/can_drv.o
 .debug_aranges
                0x0000000000000520       0x20 /home/vboxuser/Desktop/topst/cr5-bsp/sources/build/tcc805x/gcc/tcc805x-freertos-debug/obj/can_msg.o
 .debug_aranges
                0x0000000000000540       0x18 /home/vboxuser/Desktop/topst/cr5-bsp/sources/build/tcc805x/gcc/tcc805x-freertos-debug/obj/can_par.o
 .debug_aranges
                0x0000000000000558       0x20 /home/vboxuser/Desktop/topst/cr5-bsp/sources/build/tcc805x/gcc/tcc805x-freertos-debug/obj/can_porting.o
 .debug_aranges
                0x0000000000000578       0x20 /home/vboxuser/Desktop/topst/cr5-bsp/sources/build/tcc805x/gcc/tcc805x-freertos-debug/obj/clock_dev.o
 .debug_aranges
                0x0000000000000598       0x20 /home/vboxuser/Desktop/topst/cr5-bsp/sources/build/tcc805x/gcc/tcc805x-freertos-debug/obj/debug.o
 .debug_aranges
                0x00000000000005b8       0x20 /home/vboxuser/Desktop/topst/cr5-bsp/sources/build/tcc805x/gcc/tcc805x-freertos-debug/obj/bsp.o
 .debug_aranges
                0x00000000000005d8       0x20 /home/vboxuser/Desktop/topst/cr5-bsp/sources/build/tcc805x/gcc/tcc805x-freertos-debug/obj/fmu.o
 .debug_aranges
                0x00000000000005f8       0x20 /home/vboxuser/Desktop/topst/cr5-bsp/sources/build/tcc805x/gcc/tcc805x-freertos-debug/obj/gdma.o
 .debug_aranges
                0x0000000000000618       0x20 /home/vboxuser/Desktop/topst/cr5-bsp/sources/build/tcc805x/gcc/tcc805x-freertos-debug/obj/gic.o
 .debug_aranges
                0x0000000000000638       0x20 /home/vboxuser/Desktop/topst/cr5-bsp/sources/build/tcc805x/gcc/tcc805x-freertos-debug/obj/gpio.o
 .debug_aranges
                0x0000000000000658       0x20 /home/vboxuser/Desktop/topst/cr5-bsp/sources/build/tcc805x/gcc/tcc805x-freertos-debug/obj/i2c.o
 .debug_aranges
                0x0000000000000678       0x18 /home/vboxuser/Desktop/topst/cr5-bsp/sources/build/tcc805x/gcc/tcc805x-freertos-debug/obj/i2c_reg.o
 .debug_aranges
                0x0000000000000690       0x20 /home/vboxuser/Desktop/topst/cr5-bsp/sources/build/tcc805x/gcc/tcc805x-freertos-debug/obj/ictc.o
 .debug_aranges
                0x00000000000006b0       0x20 /home/vboxuser/Desktop/topst/cr5-bsp/sources/build/tcc805x/gcc/tcc805x-freertos-debug/obj/mbox_phy.o
 .debug_aranges
                0x00000000000006d0       0x20 /home/vboxuser/Desktop/topst/cr5-bsp/sources/build/tcc805x/gcc/tcc805x-freertos-debug/obj/mbox_dev.o
 .debug_aranges
                0x00000000000006f0       0x20 /home/vboxuser/Desktop/topst/cr5-bsp/sources/build/tcc805x/gcc/tcc805x-freertos-debug/obj/mbox.o
 .debug_aranges
                0x0000000000000710       0x20 /home/vboxuser/Desktop/topst/cr5-bsp/sources/build/tcc805x/gcc/tcc805x-freertos-debug/obj/mpu.o
 .debug_aranges
                0x0000000000000730       0x20 /home/vboxuser/Desktop/topst/cr5-bsp/sources/build/tcc805x/gcc/tcc805x-freertos-debug/obj/pdm.o
 .debug_aranges
                0x0000000000000750       0x20 /home/vboxuser/Desktop/topst/cr5-bsp/sources/build/tcc805x/gcc/tcc805x-freertos-debug/obj/pmio_dev.o
 .debug_aranges
                0x0000000000000770       0x20 /home/vboxuser/Desktop/topst/cr5-bsp/sources/build/tcc805x/gcc/tcc805x-freertos-debug/obj/gpsb.o
 .debug_aranges
                0x0000000000000790       0x18 /home/vboxuser/Desktop/topst/cr5-bsp/sources/build/tcc805x/gcc/tcc805x-freertos-debug/obj/gpsb_reg.o
 .debug_aranges
                0x00000000000007a8       0x20 /home/vboxuser/Desktop/topst/cr5-bsp/sources/build/tcc805x/gcc/tcc805x-freertos-debug/obj/timer.o
 .debug_aranges
                0x00000000000007c8       0x20 /home/vboxuser/Desktop/topst/cr5-bsp/sources/build/tcc805x/gcc/tcc805x-freertos-debug/obj/uart.o
 .debug_aranges
                0x00000000000007e8       0x20 /home/vboxuser/Desktop/topst/cr5-bsp/sources/build/tcc805x/gcc/tcc805x-freertos-debug/obj/udma.o
 .debug_aranges
                0x0000000000000808       0x20 /home/vboxuser/Desktop/topst/cr5-bsp/sources/build/tcc805x/gcc/tcc805x-freertos-debug/obj/wdt.o
 .debug_aranges
                0x0000000000000828       0x20 /home/vboxuser/Desktop/topst/cr5-bsp/sources/build/tcc805x/gcc/tcc805x-freertos-debug/obj/dse.o
 .debug_aranges
                0x0000000000000848       0x20 /home/vboxuser/Desktop/topst/cr5-bsp/sources/build/tcc805x/gcc/tcc805x-freertos-debug/obj/midf.o
 .debug_aranges
                0x0000000000000868       0x20 /home/vboxuser/Desktop/topst/cr5-bsp/sources/build/tcc805x/gcc/tcc805x-freertos-debug/obj/pmu_reset.o
 .debug_aranges
                0x0000000000000888       0x20 /home/vboxuser/Desktop/topst/cr5-bsp/sources/build/tcc805x/gcc/tcc805x-freertos-debug/obj/tasks.o
 .debug_aranges
                0x00000000000008a8       0x20 /home/vboxuser/Desktop/topst/cr5-bsp/sources/build/tcc805x/gcc/tcc805x-freertos-debug/obj/list.o
 .debug_aranges
                0x00000000000008c8       0x20 /home/vboxuser/Desktop/topst/cr5-bsp/sources/build/tcc805x/gcc/tcc805x-freertos-debug/obj/queue.o
 .debug_aranges
                0x00000000000008e8       0x20 /home/vboxuser/Desktop/topst/cr5-bsp/sources/build/tcc805x/gcc/tcc805x-freertos-debug/obj/event_groups.o
 .debug_aranges
                0x0000000000000908       0x20 /home/vboxuser/Desktop/topst/cr5-bsp/sources/build/tcc805x/gcc/tcc805x-freertos-debug/obj/timers.o
 .debug_aranges
                0x0000000000000928       0x20 /home/vboxuser/Desktop/topst/cr5-bsp/sources/build/tcc805x/gcc/tcc805x-freertos-debug/obj/stream_buffer.o
 .debug_aranges
                0x0000000000000948       0x20 /home/vboxuser/Desktop/topst/cr5-bsp/sources/build/tcc805x/gcc/tcc805x-freertos-debug/obj/port.o
 .debug_aranges
                0x0000000000000968       0x20 /home/vboxuser/Desktop/topst/cr5-bsp/sources/build/tcc805x/gcc/tcc805x-freertos-debug/obj/heap_5.o
 .debug_aranges
                0x0000000000000988       0x20 /home/vboxuser/Desktop/topst/cr5-bsp/sources/build/tcc805x/gcc/tcc805x-freertos-debug/obj/sal_api.o
 .debug_aranges
                0x00000000000009a8       0x20 /home/vboxuser/Desktop/topst/cr5-bsp/sources/build/tcc805x/gcc/tcc805x-freertos-debug/obj/sal_freertos_impl.o
 .debug_aranges
                0x00000000000009c8       0x20 /home/vboxuser/Desktop/topst/cr5-bsp/sources/build/tcc805x/gcc/tcc805x-freertos-debug/obj/startup.o
 .debug_aranges
                0x00000000000009e8       0x20 /home/vboxuser/Desktop/topst/cr5-bsp/sources/build/tcc805x/gcc/tcc805x-freertos-debug/obj/vector.o
 .debug_aranges
                0x0000000000000a08       0x20 /home/vboxuser/Desktop/topst/cr5-bsp/sources/build/tcc805x/gcc/tcc805x-freertos-debug/obj/vfp_init.o
 .debug_aranges
                0x0000000000000a28       0x20 /home/vboxuser/Desktop/topst/cr5-bsp/sources/build/tcc805x/gcc/tcc805x-freertos-debug/obj/arm_a.o
 .debug_aranges
                0x0000000000000a48       0x20 /home/vboxuser/Desktop/topst/cr5-bsp/sources/build/tcc805x/gcc/tcc805x-freertos-debug/obj/portASM.o
 .debug_aranges
                0x0000000000000a68       0x20 /home/vboxuser/Desktop/topst/cr5-bsp/sources/build/tcc805x/gcc/tcc805x-freertos-debug/obj/freertos.o
 .debug_aranges
                0x0000000000000a88       0x20 /home/vboxuser/Desktop/topst/cr5-bsp/sources/build/tcc805x/gcc/tcc805x-freertos-debug/obj/sal.o
 .debug_aranges
                0x0000000000000aa8       0x20 /home/vboxuser/Desktop/topst/buildtools/gcc-linaro-7.2.1-2017.11-x86_64_arm-eabi/arm-eabi/libc/usr/lib/libc.a(lib_a-atoi.o)
 .debug_aranges
                0x0000000000000ac8       0x20 /home/vboxuser/Desktop/topst/buildtools/gcc-linaro-7.2.1-2017.11-x86_64_arm-eabi/arm-eabi/libc/usr/lib/libc.a(lib_a-atol.o)
 .debug_aranges
                0x0000000000000ae8       0x20 /home/vboxuser/Desktop/topst/buildtools/gcc-linaro-7.2.1-2017.11-x86_64_arm-eabi/arm-eabi/libc/usr/lib/libc.a(lib_a-memcmp.o)
 .debug_aranges
                0x0000000000000b08       0x20 /home/vboxuser/Desktop/topst/buildtools/gcc-linaro-7.2.1-2017.11-x86_64_arm-eabi/arm-eabi/libc/usr/lib/libc.a(lib_a-memcpy-stub.o)
 .debug_aranges
                0x0000000000000b28       0x20 /home/vboxuser/Desktop/topst/buildtools/gcc-linaro-7.2.1-2017.11-x86_64_arm-eabi/arm-eabi/libc/usr/lib/libc.a(lib_a-memset.o)
 .debug_aranges
                0x0000000000000b48       0x20 /home/vboxuser/Desktop/topst/buildtools/gcc-linaro-7.2.1-2017.11-x86_64_arm-eabi/arm-eabi/libc/usr/lib/libc.a(lib_a-snprintf.o)
 .debug_aranges
                0x0000000000000b68       0x20 /home/vboxuser/Desktop/topst/buildtools/gcc-linaro-7.2.1-2017.11-x86_64_arm-eabi/arm-eabi/libc/usr/lib/libc.a(lib_a-strlen-stub.o)
 .debug_aranges
                0x0000000000000b88       0x20 /home/vboxuser/Desktop/topst/buildtools/gcc-linaro-7.2.1-2017.11-x86_64_arm-eabi/arm-eabi/libc/usr/lib/libc.a(lib_a-strncmp.o)
 .debug_aranges
                0x0000000000000ba8       0x20 /home/vboxuser/Desktop/topst/buildtools/gcc-linaro-7.2.1-2017.11-x86_64_arm-eabi/arm-eabi/libc/usr/lib/libc.a(lib_a-strncpy.o)
 .debug_aranges
                0x0000000000000bc8       0x20 /home/vboxuser/Desktop/topst/buildtools/gcc-linaro-7.2.1-2017.11-x86_64_arm-eabi/arm-eabi/libc/usr/lib/libc.a(lib_a-strnlen.o)
 .debug_aranges
                0x0000000000000be8       0x20 /home/vboxuser/Desktop/topst/buildtools/gcc-linaro-7.2.1-2017.11-x86_64_arm-eabi/arm-eabi/libc/usr/lib/libc.a(lib_a-strtol.o)
 .debug_aranges
                0x0000000000000c08       0x20 /home/vboxuser/Desktop/topst/buildtools/gcc-linaro-7.2.1-2017.11-x86_64_arm-eabi/arm-eabi/libc/usr/lib/libc.a(lib_a-strtoul.o)
 .debug_aranges
                0x0000000000000c28       0x20 /home/vboxuser/Desktop/topst/buildtools/gcc-linaro-7.2.1-2017.11-x86_64_arm-eabi/arm-eabi/libc/usr/lib/libc.a(lib_a-svfprintf.o)
 .debug_aranges
                0x0000000000000c48       0x20 /home/vboxuser/Desktop/topst/buildtools/gcc-linaro-7.2.1-2017.11-x86_64_arm-eabi/arm-eabi/libc/usr/lib/libc.a(lib_a-wcrtomb.o)
 .debug_aranges
                0x0000000000000c68       0x20 /home/vboxuser/Desktop/topst/buildtools/gcc-linaro-7.2.1-2017.11-x86_64_arm-eabi/arm-eabi/libc/usr/lib/libc.a(lib_a-wcsrtombs.o)
 .debug_aranges
                0x0000000000000c88       0x20 /home/vboxuser/Desktop/topst/buildtools/gcc-linaro-7.2.1-2017.11-x86_64_arm-eabi/arm-eabi/libc/usr/lib/libc.a(lib_a-dtoa.o)
 .debug_aranges
                0x0000000000000ca8       0x20 /home/vboxuser/Desktop/topst/buildtools/gcc-linaro-7.2.1-2017.11-x86_64_arm-eabi/arm-eabi/libc/usr/lib/libc.a(lib_a-freer.o)
 .debug_aranges
                0x0000000000000cc8       0x18 /home/vboxuser/Desktop/topst/buildtools/gcc-linaro-7.2.1-2017.11-x86_64_arm-eabi/arm-eabi/libc/usr/lib/libc.a(lib_a-impure.o)
 .debug_aranges
                0x0000000000000ce0       0x20 /home/vboxuser/Desktop/topst/buildtools/gcc-linaro-7.2.1-2017.11-x86_64_arm-eabi/arm-eabi/libc/usr/lib/libc.a(lib_a-locale.o)
 .debug_aranges
                0x0000000000000d00       0x20 /home/vboxuser/Desktop/topst/buildtools/gcc-linaro-7.2.1-2017.11-x86_64_arm-eabi/arm-eabi/libc/usr/lib/libc.a(lib_a-localeconv.o)
 .debug_aranges
                0x0000000000000d20       0x20 /home/vboxuser/Desktop/topst/buildtools/gcc-linaro-7.2.1-2017.11-x86_64_arm-eabi/arm-eabi/libc/usr/lib/libc.a(lib_a-mallocr.o)
 .debug_aranges
                0x0000000000000d40       0x20 /home/vboxuser/Desktop/topst/buildtools/gcc-linaro-7.2.1-2017.11-x86_64_arm-eabi/arm-eabi/libc/usr/lib/libc.a(lib_a-mbtowc_r.o)
 .debug_aranges
                0x0000000000000d60       0x20 /home/vboxuser/Desktop/topst/buildtools/gcc-linaro-7.2.1-2017.11-x86_64_arm-eabi/arm-eabi/libc/usr/lib/libc.a(lib_a-memchr-stub.o)
 .debug_aranges
                0x0000000000000d80       0x20 /home/vboxuser/Desktop/topst/buildtools/gcc-linaro-7.2.1-2017.11-x86_64_arm-eabi/arm-eabi/libc/usr/lib/libc.a(lib_a-mlock.o)
 .debug_aranges
                0x0000000000000da0       0x20 /home/vboxuser/Desktop/topst/buildtools/gcc-linaro-7.2.1-2017.11-x86_64_arm-eabi/arm-eabi/libc/usr/lib/libc.a(lib_a-mprec.o)
 .debug_aranges
                0x0000000000000dc0       0x20 /home/vboxuser/Desktop/topst/buildtools/gcc-linaro-7.2.1-2017.11-x86_64_arm-eabi/arm-eabi/libc/usr/lib/libc.a(lib_a-s_frexp.o)
 .debug_aranges
                0x0000000000000de0       0x20 /home/vboxuser/Desktop/topst/buildtools/gcc-linaro-7.2.1-2017.11-x86_64_arm-eabi/arm-eabi/libc/usr/lib/libc.a(lib_a-sbrkr.o)
 .debug_aranges
                0x0000000000000e00       0x20 /home/vboxuser/Desktop/topst/buildtools/gcc-linaro-7.2.1-2017.11-x86_64_arm-eabi/arm-eabi/libc/usr/lib/libc.a(lib_a-strcasecmp.o)
 .debug_aranges
                0x0000000000000e20       0x20 /home/vboxuser/Desktop/topst/buildtools/gcc-linaro-7.2.1-2017.11-x86_64_arm-eabi/arm-eabi/libc/usr/lib/libc.a(lib_a-strcat.o)
 .debug_aranges
                0x0000000000000e40       0x20 /home/vboxuser/Desktop/topst/buildtools/gcc-linaro-7.2.1-2017.11-x86_64_arm-eabi/arm-eabi/libc/usr/lib/libc.a(lib_a-strchr.o)
 .debug_aranges
                0x0000000000000e60       0x20 /home/vboxuser/Desktop/topst/buildtools/gcc-linaro-7.2.1-2017.11-x86_64_arm-eabi/arm-eabi/libc/usr/lib/libc.a(lib_a-strcmp.o)
 .debug_aranges
                0x0000000000000e80       0x20 /home/vboxuser/Desktop/topst/buildtools/gcc-linaro-7.2.1-2017.11-x86_64_arm-eabi/arm-eabi/libc/usr/lib/libc.a(lib_a-strcpy.o)
 .debug_aranges
                0x0000000000000ea0       0x20 /home/vboxuser/Desktop/topst/buildtools/gcc-linaro-7.2.1-2017.11-x86_64_arm-eabi/arm-eabi/libc/usr/lib/libc.a(lib_a-strlcpy.o)
 .debug_aranges
                0x0000000000000ec0       0x20 /home/vboxuser/Desktop/topst/buildtools/gcc-linaro-7.2.1-2017.11-x86_64_arm-eabi/arm-eabi/libc/usr/lib/libc.a(lib_a-strncasecmp.o)
 .debug_aranges
                0x0000000000000ee0       0x20 /home/vboxuser/Desktop/topst/buildtools/gcc-linaro-7.2.1-2017.11-x86_64_arm-eabi/arm-eabi/libc/usr/lib/libc.a(lib_a-svfiprintf.o)
 .debug_aranges
                0x0000000000000f00       0x20 /home/vboxuser/Desktop/topst/buildtools/gcc-linaro-7.2.1-2017.11-x86_64_arm-eabi/arm-eabi/libc/usr/lib/libc.a(lib_a-syscalls.o)
 .debug_aranges
                0x0000000000000f20       0x20 /home/vboxuser/Desktop/topst/buildtools/gcc-linaro-7.2.1-2017.11-x86_64_arm-eabi/arm-eabi/libc/usr/lib/libc.a(lib_a-wcsnrtombs.o)
 .debug_aranges
                0x0000000000000f40       0x20 /home/vboxuser/Desktop/topst/buildtools/gcc-linaro-7.2.1-2017.11-x86_64_arm-eabi/arm-eabi/libc/usr/lib/libc.a(lib_a-wctomb_r.o)
 .debug_aranges
                0x0000000000000f60       0x20 /home/vboxuser/Desktop/topst/buildtools/gcc-linaro-7.2.1-2017.11-x86_64_arm-eabi/arm-eabi/libc/usr/lib/libc.a(lib_a-callocr.o)
 .debug_aranges
                0x0000000000000f80       0x20 /home/vboxuser/Desktop/topst/buildtools/gcc-linaro-7.2.1-2017.11-x86_64_arm-eabi/arm-eabi/libc/usr/lib/libc.a(lib_a-ctype_.o)
 .debug_aranges
                0x0000000000000fa0       0x20 /home/vboxuser/Desktop/topst/buildtools/gcc-linaro-7.2.1-2017.11-x86_64_arm-eabi/arm-eabi/libc/usr/lib/libc.a(lib_a-errno.o)
 .debug_aranges
                0x0000000000000fc0       0x20 /home/vboxuser/Desktop/topst/buildtools/gcc-linaro-7.2.1-2017.11-x86_64_arm-eabi/arm-eabi/libc/usr/lib/libc.a(lib_a-findfp.o)
 .debug_aranges
                0x0000000000000fe0       0x20 /home/vboxuser/Desktop/topst/buildtools/gcc-linaro-7.2.1-2017.11-x86_64_arm-eabi/arm-eabi/libc/usr/lib/libc.a(lib_a-fwalk.o)
 .debug_aranges
                0x0000000000001000       0x20 /home/vboxuser/Desktop/topst/buildtools/gcc-linaro-7.2.1-2017.11-x86_64_arm-eabi/arm-eabi/libc/usr/lib/libc.a(lib_a-getenv_r.o)
 .debug_aranges
                0x0000000000001020       0x20 /home/vboxuser/Desktop/topst/buildtools/gcc-linaro-7.2.1-2017.11-x86_64_arm-eabi/arm-eabi/libc/usr/lib/libc.a(lib_a-memmove.o)
 .debug_aranges
                0x0000000000001040       0x20 /home/vboxuser/Desktop/topst/buildtools/gcc-linaro-7.2.1-2017.11-x86_64_arm-eabi/arm-eabi/libc/usr/lib/libc.a(lib_a-reallocr.o)
 .debug_aranges
                0x0000000000001060       0x20 /home/vboxuser/Desktop/topst/buildtools/gcc-linaro-7.2.1-2017.11-x86_64_arm-eabi/arm-eabi/libc/usr/lib/libc.a(lib_a-reent.o)
 .debug_aranges
                0x0000000000001080       0x20 /home/vboxuser/Desktop/topst/buildtools/gcc-linaro-7.2.1-2017.11-x86_64_arm-eabi/arm-eabi/libc/usr/lib/libc.a(lib_a-stdio.o)
 .debug_aranges
                0x00000000000010a0       0x20 /home/vboxuser/Desktop/topst/buildtools/gcc-linaro-7.2.1-2017.11-x86_64_arm-eabi/arm-eabi/libc/usr/lib/libc.a(lib_a-writer.o)
 .debug_aranges
                0x00000000000010c0       0x20 /home/vboxuser/Desktop/topst/buildtools/gcc-linaro-7.2.1-2017.11-x86_64_arm-eabi/arm-eabi/libc/usr/lib/libc.a(lib_a-closer.o)
 .debug_aranges
                0x00000000000010e0       0x18 /home/vboxuser/Desktop/topst/buildtools/gcc-linaro-7.2.1-2017.11-x86_64_arm-eabi/arm-eabi/libc/usr/lib/libc.a(lib_a-environ.o)
 .debug_aranges
                0x00000000000010f8       0x20 /home/vboxuser/Desktop/topst/buildtools/gcc-linaro-7.2.1-2017.11-x86_64_arm-eabi/arm-eabi/libc/usr/lib/libc.a(lib_a-envlock.o)
 .debug_aranges
                0x0000000000001118       0x20 /home/vboxuser/Desktop/topst/buildtools/gcc-linaro-7.2.1-2017.11-x86_64_arm-eabi/arm-eabi/libc/usr/lib/libc.a(lib_a-fclose.o)
 .debug_aranges
                0x0000000000001138       0x20 /home/vboxuser/Desktop/topst/buildtools/gcc-linaro-7.2.1-2017.11-x86_64_arm-eabi/arm-eabi/libc/usr/lib/libc.a(lib_a-fflush.o)
 .debug_aranges
                0x0000000000001158       0x20 /home/vboxuser/Desktop/topst/buildtools/gcc-linaro-7.2.1-2017.11-x86_64_arm-eabi/arm-eabi/libc/usr/lib/libc.a(lib_a-lseekr.o)
 .debug_aranges
                0x0000000000001178       0x20 /home/vboxuser/Desktop/topst/buildtools/gcc-linaro-7.2.1-2017.11-x86_64_arm-eabi/arm-eabi/libc/usr/lib/libc.a(lib_a-readr.o)
 .debug_aranges
                0x0000000000001198       0x20 /home/vboxuser/Desktop/topst/buildtools/gcc-linaro-7.2.1-2017.11-x86_64_arm-eabi/arm-eabi/libc/usr/lib/libgcc.a(_udivsi3.o)
 .debug_aranges
                0x00000000000011b8       0x20 /home/vboxuser/Desktop/topst/buildtools/gcc-linaro-7.2.1-2017.11-x86_64_arm-eabi/arm-eabi/libc/usr/lib/libgcc.a(_dvmd_tls.o)
 .debug_aranges
                0x00000000000011d8       0x20 /home/vboxuser/Desktop/topst/buildtools/gcc-linaro-7.2.1-2017.11-x86_64_arm-eabi/arm-eabi/libc/usr/lib/libgcc.a(_arm_addsubdf3.o)
 .debug_aranges
                0x00000000000011f8       0x20 /home/vboxuser/Desktop/topst/buildtools/gcc-linaro-7.2.1-2017.11-x86_64_arm-eabi/arm-eabi/libc/usr/lib/libgcc.a(_arm_muldivdf3.o)
 .debug_aranges
                0x0000000000001218       0x20 /home/vboxuser/Desktop/topst/buildtools/gcc-linaro-7.2.1-2017.11-x86_64_arm-eabi/arm-eabi/libc/usr/lib/libgcc.a(_arm_cmpdf2.o)
 .debug_aranges
                0x0000000000001238       0x20 /home/vboxuser/Desktop/topst/buildtools/gcc-linaro-7.2.1-2017.11-x86_64_arm-eabi/arm-eabi/libc/usr/lib/libgcc.a(_arm_unorddf2.o)
 .debug_aranges
                0x0000000000001258       0x20 /home/vboxuser/Desktop/topst/buildtools/gcc-linaro-7.2.1-2017.11-x86_64_arm-eabi/arm-eabi/libc/usr/lib/libgcc.a(_arm_fixdfsi.o)
 .debug_aranges
                0x0000000000001278       0x20 /home/vboxuser/Desktop/topst/buildtools/gcc-linaro-7.2.1-2017.11-x86_64_arm-eabi/arm-eabi/libc/usr/lib/libgcc.a(_arm_fixunsdfsi.o)
 .debug_aranges
                0x0000000000001298       0x20 /home/vboxuser/Desktop/topst/buildtools/gcc-linaro-7.2.1-2017.11-x86_64_arm-eabi/arm-eabi/libc/usr/lib/libgcc.a(_arm_addsubsf3.o)
 .debug_aranges
                0x00000000000012b8       0x20 /home/vboxuser/Desktop/topst/buildtools/gcc-linaro-7.2.1-2017.11-x86_64_arm-eabi/arm-eabi/libc/usr/lib/libgcc.a(_arm_muldivsf3.o)
 .debug_aranges
                0x00000000000012d8       0x20 /home/vboxuser/Desktop/topst/buildtools/gcc-linaro-7.2.1-2017.11-x86_64_arm-eabi/arm-eabi/libc/usr/lib/libgcc.a(_arm_fixunssfsi.o)
 .debug_aranges
                0x00000000000012f8       0x20 /home/vboxuser/Desktop/topst/buildtools/gcc-linaro-7.2.1-2017.11-x86_64_arm-eabi/arm-eabi/libc/usr/lib/libgcc.a(_aeabi_uldivmod.o)
 .debug_aranges
                0x0000000000001318       0x20 /home/vboxuser/Desktop/topst/buildtools/gcc-linaro-7.2.1-2017.11-x86_64_arm-eabi/arm-eabi/libc/usr/lib/libgcc.a(_udivmoddi4.o)
 .debug_aranges
                0x0000000000001338       0x20 /home/vboxuser/Desktop/topst/buildtools/gcc-linaro-7.2.1-2017.11-x86_64_arm-eabi/arm-eabi/libc/usr/lib/libgcc.a(_clzdi2.o)
 .debug_aranges
                0x0000000000001358       0x20 /home/vboxuser/Desktop/topst/buildtools/gcc-linaro-7.2.1-2017.11-x86_64_arm-eabi/arm-eabi/libc/usr/lib/libgcc.a(_clzsi2.o)

.debug_line     0x0000000000000000    0x2699d
 .debug_line    0x0000000000000000      0x355 /home/vboxuser/Desktop/topst/cr5-bsp/sources/build/tcc805x/gcc/tcc805x-freertos-debug/obj/main.o
 .debug_line    0x0000000000000355      0x4fa /home/vboxuser/Desktop/topst/cr5-bsp/sources/build/tcc805x/gcc/tcc805x-freertos-debug/obj/can_demo.o
 .debug_line    0x000000000000084f      0xa25 /home/vboxuser/Desktop/topst/cr5-bsp/sources/build/tcc805x/gcc/tcc805x-freertos-debug/obj/console.o
 .debug_line    0x0000000000001274      0x2ae /home/vboxuser/Desktop/topst/cr5-bsp/sources/build/tcc805x/gcc/tcc805x-freertos-debug/obj/fwug.o
 .debug_line    0x0000000000001522      0x2cf /home/vboxuser/Desktop/topst/cr5-bsp/sources/build/tcc805x/gcc/tcc805x-freertos-debug/obj/key_adc.o
 .debug_line    0x00000000000017f1      0x1c0 /home/vboxuser/Desktop/topst/cr5-bsp/sources/build/tcc805x/gcc/tcc805x-freertos-debug/obj/key_gpio.o
 .debug_line    0x00000000000019b1      0x259 /home/vboxuser/Desktop/topst/cr5-bsp/sources/build/tcc805x/gcc/tcc805x-freertos-debug/obj/key_i2c.o
 .debug_line    0x0000000000001c0a        0x0 /home/vboxuser/Desktop/topst/cr5-bsp/sources/build/tcc805x/gcc/tcc805x-freertos-debug/obj/key.o
 .debug_line    0x0000000000001c0a      0x2f8 /home/vboxuser/Desktop/topst/cr5-bsp/sources/build/tcc805x/gcc/tcc805x-freertos-debug/obj/system_monitoring.o
 .debug_line    0x0000000000001f02      0x1dd /home/vboxuser/Desktop/topst/cr5-bsp/sources/build/tcc805x/gcc/tcc805x-freertos-debug/obj/bootctrl.o
 .debug_line    0x00000000000020df      0x16b /home/vboxuser/Desktop/topst/cr5-bsp/sources/build/tcc805x/gcc/tcc805x-freertos-debug/obj/reset_demo.o
 .debug_line    0x000000000000224a      0x533 /home/vboxuser/Desktop/topst/cr5-bsp/sources/build/tcc805x/gcc/tcc805x-freertos-debug/obj/adc_test.o
 .debug_line    0x000000000000277d      0x27d /home/vboxuser/Desktop/topst/cr5-bsp/sources/build/tcc805x/gcc/tcc805x-freertos-debug/obj/dse_test.o
 .debug_line    0x00000000000029fa      0x209 /home/vboxuser/Desktop/topst/cr5-bsp/sources/build/tcc805x/gcc/tcc805x-freertos-debug/obj/fmu_test.o
 .debug_line    0x0000000000002c03      0x1ec /home/vboxuser/Desktop/topst/cr5-bsp/sources/build/tcc805x/gcc/tcc805x-freertos-debug/obj/gdma_test.o
 .debug_line    0x0000000000002def      0x205 /home/vboxuser/Desktop/topst/cr5-bsp/sources/build/tcc805x/gcc/tcc805x-freertos-debug/obj/gic_test.o
 .debug_line    0x0000000000002ff4      0x34a /home/vboxuser/Desktop/topst/cr5-bsp/sources/build/tcc805x/gcc/tcc805x-freertos-debug/obj/gpio_test.o
 .debug_line    0x000000000000333e      0x63d /home/vboxuser/Desktop/topst/cr5-bsp/sources/build/tcc805x/gcc/tcc805x-freertos-debug/obj/gpsb_test.o
 .debug_line    0x000000000000397b      0x84e /home/vboxuser/Desktop/topst/cr5-bsp/sources/build/tcc805x/gcc/tcc805x-freertos-debug/obj/hsm_test.o
 .debug_line    0x00000000000041c9      0x290 /home/vboxuser/Desktop/topst/cr5-bsp/sources/build/tcc805x/gcc/tcc805x-freertos-debug/obj/i2c_test.o
 .debug_line    0x0000000000004459      0x1b1 /home/vboxuser/Desktop/topst/cr5-bsp/sources/build/tcc805x/gcc/tcc805x-freertos-debug/obj/ictc_test.o
 .debug_line    0x000000000000460a      0x1d4 /home/vboxuser/Desktop/topst/cr5-bsp/sources/build/tcc805x/gcc/tcc805x-freertos-debug/obj/lin_test.o
 .debug_line    0x00000000000047de      0x1f4 /home/vboxuser/Desktop/topst/cr5-bsp/sources/build/tcc805x/gcc/tcc805x-freertos-debug/obj/pdm_test.o
 .debug_line    0x00000000000049d2      0x386 /home/vboxuser/Desktop/topst/cr5-bsp/sources/build/tcc805x/gcc/tcc805x-freertos-debug/obj/pmio_test.o
 .debug_line    0x0000000000004d58      0x46a /home/vboxuser/Desktop/topst/cr5-bsp/sources/build/tcc805x/gcc/tcc805x-freertos-debug/obj/timer_test.o
 .debug_line    0x00000000000051c2      0x350 /home/vboxuser/Desktop/topst/cr5-bsp/sources/build/tcc805x/gcc/tcc805x-freertos-debug/obj/wdt_test.o
 .debug_line    0x0000000000005512      0x204 /home/vboxuser/Desktop/topst/cr5-bsp/sources/build/tcc805x/gcc/tcc805x-freertos-debug/obj/pwm_test.o
 .debug_line    0x0000000000005716      0x45e /home/vboxuser/Desktop/topst/cr5-bsp/sources/build/tcc805x/gcc/tcc805x-freertos-debug/obj/Motor_System.o
 .debug_line    0x0000000000005b74      0x15b /home/vboxuser/Desktop/topst/cr5-bsp/sources/build/tcc805x/gcc/tcc805x-freertos-debug/obj/mptool.o
 .debug_line    0x0000000000005ccf      0x4b7 /home/vboxuser/Desktop/topst/cr5-bsp/sources/build/tcc805x/gcc/tcc805x-freertos-debug/obj/ipc_os.o
 .debug_line    0x0000000000006186      0x313 /home/vboxuser/Desktop/topst/cr5-bsp/sources/build/tcc805x/gcc/tcc805x-freertos-debug/obj/ipc_buffer.o
 .debug_line    0x0000000000006499      0x270 /home/vboxuser/Desktop/topst/cr5-bsp/sources/build/tcc805x/gcc/tcc805x-freertos-debug/obj/ipc_cmd.o
 .debug_line    0x0000000000006709      0x450 /home/vboxuser/Desktop/topst/cr5-bsp/sources/build/tcc805x/gcc/tcc805x-freertos-debug/obj/ipc_ctl.o
 .debug_line    0x0000000000006b59      0x214 /home/vboxuser/Desktop/topst/cr5-bsp/sources/build/tcc805x/gcc/tcc805x-freertos-debug/obj/ipc_parser.o
 .debug_line    0x0000000000006d6d      0x3c8 /home/vboxuser/Desktop/topst/cr5-bsp/sources/build/tcc805x/gcc/tcc805x-freertos-debug/obj/ipc_api.o
 .debug_line    0x0000000000007135      0x17f /home/vboxuser/Desktop/topst/cr5-bsp/sources/build/tcc805x/gcc/tcc805x-freertos-debug/obj/ipc.o
 .debug_line    0x00000000000072b4      0x2ee /home/vboxuser/Desktop/topst/cr5-bsp/sources/build/tcc805x/gcc/tcc805x-freertos-debug/obj/lin.o
 .debug_line    0x00000000000075a2      0x2e2 /home/vboxuser/Desktop/topst/cr5-bsp/sources/build/tcc805x/gcc/tcc805x-freertos-debug/obj/sdm.o
 .debug_line    0x0000000000007884      0x716 /home/vboxuser/Desktop/topst/cr5-bsp/sources/build/tcc805x/gcc/tcc805x-freertos-debug/obj/hsm_manager.o
 .debug_line    0x0000000000007f9a      0x325 /home/vboxuser/Desktop/topst/cr5-bsp/sources/build/tcc805x/gcc/tcc805x-freertos-debug/obj/adc.o
 .debug_line    0x00000000000082bf      0x2e1 /home/vboxuser/Desktop/topst/cr5-bsp/sources/build/tcc805x/gcc/tcc805x-freertos-debug/obj/can.o
 .debug_line    0x00000000000085a0      0x5a1 /home/vboxuser/Desktop/topst/cr5-bsp/sources/build/tcc805x/gcc/tcc805x-freertos-debug/obj/can_drv.o
 .debug_line    0x0000000000008b41      0x3fa /home/vboxuser/Desktop/topst/cr5-bsp/sources/build/tcc805x/gcc/tcc805x-freertos-debug/obj/can_msg.o
 .debug_line    0x0000000000008f3b      0x113 /home/vboxuser/Desktop/topst/cr5-bsp/sources/build/tcc805x/gcc/tcc805x-freertos-debug/obj/can_par.o
 .debug_line    0x000000000000904e      0x388 /home/vboxuser/Desktop/topst/cr5-bsp/sources/build/tcc805x/gcc/tcc805x-freertos-debug/obj/can_porting.o
 .debug_line    0x00000000000093d6      0x5de /home/vboxuser/Desktop/topst/cr5-bsp/sources/build/tcc805x/gcc/tcc805x-freertos-debug/obj/clock_dev.o
 .debug_line    0x00000000000099b4      0x2bf /home/vboxuser/Desktop/topst/cr5-bsp/sources/build/tcc805x/gcc/tcc805x-freertos-debug/obj/debug.o
 .debug_line    0x0000000000009c73      0x182 /home/vboxuser/Desktop/topst/cr5-bsp/sources/build/tcc805x/gcc/tcc805x-freertos-debug/obj/bsp.o
 .debug_line    0x0000000000009df5      0x41a /home/vboxuser/Desktop/topst/cr5-bsp/sources/build/tcc805x/gcc/tcc805x-freertos-debug/obj/fmu.o
 .debug_line    0x000000000000a20f      0x3dc /home/vboxuser/Desktop/topst/cr5-bsp/sources/build/tcc805x/gcc/tcc805x-freertos-debug/obj/gdma.o
 .debug_line    0x000000000000a5eb      0x2fd /home/vboxuser/Desktop/topst/cr5-bsp/sources/build/tcc805x/gcc/tcc805x-freertos-debug/obj/gic.o
 .debug_line    0x000000000000a8e8      0x281 /home/vboxuser/Desktop/topst/cr5-bsp/sources/build/tcc805x/gcc/tcc805x-freertos-debug/obj/gpio.o
 .debug_line    0x000000000000ab69      0x8c0 /home/vboxuser/Desktop/topst/cr5-bsp/sources/build/tcc805x/gcc/tcc805x-freertos-debug/obj/i2c.o
 .debug_line    0x000000000000b429      0x1ae /home/vboxuser/Desktop/topst/cr5-bsp/sources/build/tcc805x/gcc/tcc805x-freertos-debug/obj/i2c_reg.o
 .debug_line    0x000000000000b5d7      0x429 /home/vboxuser/Desktop/topst/cr5-bsp/sources/build/tcc805x/gcc/tcc805x-freertos-debug/obj/ictc.o
 .debug_line    0x000000000000ba00      0x303 /home/vboxuser/Desktop/topst/cr5-bsp/sources/build/tcc805x/gcc/tcc805x-freertos-debug/obj/mbox_phy.o
 .debug_line    0x000000000000bd03      0xa6e /home/vboxuser/Desktop/topst/cr5-bsp/sources/build/tcc805x/gcc/tcc805x-freertos-debug/obj/mbox_dev.o
 .debug_line    0x000000000000c771      0x370 /home/vboxuser/Desktop/topst/cr5-bsp/sources/build/tcc805x/gcc/tcc805x-freertos-debug/obj/mbox.o
 .debug_line    0x000000000000cae1      0x19c /home/vboxuser/Desktop/topst/cr5-bsp/sources/build/tcc805x/gcc/tcc805x-freertos-debug/obj/mpu.o
 .debug_line    0x000000000000cc7d      0x6ca /home/vboxuser/Desktop/topst/cr5-bsp/sources/build/tcc805x/gcc/tcc805x-freertos-debug/obj/pdm.o
 .debug_line    0x000000000000d347      0x66a /home/vboxuser/Desktop/topst/cr5-bsp/sources/build/tcc805x/gcc/tcc805x-freertos-debug/obj/pmio_dev.o
 .debug_line    0x000000000000d9b1      0xb5d /home/vboxuser/Desktop/topst/cr5-bsp/sources/build/tcc805x/gcc/tcc805x-freertos-debug/obj/gpsb.o
 .debug_line    0x000000000000e50e      0x1b3 /home/vboxuser/Desktop/topst/cr5-bsp/sources/build/tcc805x/gcc/tcc805x-freertos-debug/obj/gpsb_reg.o
 .debug_line    0x000000000000e6c1      0x627 /home/vboxuser/Desktop/topst/cr5-bsp/sources/build/tcc805x/gcc/tcc805x-freertos-debug/obj/timer.o
 .debug_line    0x000000000000ece8      0x7c7 /home/vboxuser/Desktop/topst/cr5-bsp/sources/build/tcc805x/gcc/tcc805x-freertos-debug/obj/uart.o
 .debug_line    0x000000000000f4af      0x3e1 /home/vboxuser/Desktop/topst/cr5-bsp/sources/build/tcc805x/gcc/tcc805x-freertos-debug/obj/udma.o
 .debug_line    0x000000000000f890      0x2ed /home/vboxuser/Desktop/topst/cr5-bsp/sources/build/tcc805x/gcc/tcc805x-freertos-debug/obj/wdt.o
 .debug_line    0x000000000000fb7d      0x25a /home/vboxuser/Desktop/topst/cr5-bsp/sources/build/tcc805x/gcc/tcc805x-freertos-debug/obj/dse.o
 .debug_line    0x000000000000fdd7      0x271 /home/vboxuser/Desktop/topst/cr5-bsp/sources/build/tcc805x/gcc/tcc805x-freertos-debug/obj/midf.o
 .debug_line    0x0000000000010048      0x2c2 /home/vboxuser/Desktop/topst/cr5-bsp/sources/build/tcc805x/gcc/tcc805x-freertos-debug/obj/pmu_reset.o
 .debug_line    0x000000000001030a      0xb55 /home/vboxuser/Desktop/topst/cr5-bsp/sources/build/tcc805x/gcc/tcc805x-freertos-debug/obj/tasks.o
 .debug_line    0x0000000000010e5f      0x37a /home/vboxuser/Desktop/topst/cr5-bsp/sources/build/tcc805x/gcc/tcc805x-freertos-debug/obj/list.o
 .debug_line    0x00000000000111d9      0x97a /home/vboxuser/Desktop/topst/cr5-bsp/sources/build/tcc805x/gcc/tcc805x-freertos-debug/obj/queue.o
 .debug_line    0x0000000000011b53      0x4b9 /home/vboxuser/Desktop/topst/cr5-bsp/sources/build/tcc805x/gcc/tcc805x-freertos-debug/obj/event_groups.o
 .debug_line    0x000000000001200c      0x597 /home/vboxuser/Desktop/topst/cr5-bsp/sources/build/tcc805x/gcc/tcc805x-freertos-debug/obj/timers.o
 .debug_line    0x00000000000125a3      0x57b /home/vboxuser/Desktop/topst/cr5-bsp/sources/build/tcc805x/gcc/tcc805x-freertos-debug/obj/stream_buffer.o
 .debug_line    0x0000000000012b1e      0x593 /home/vboxuser/Desktop/topst/cr5-bsp/sources/build/tcc805x/gcc/tcc805x-freertos-debug/obj/port.o
 .debug_line    0x00000000000130b1      0x43e /home/vboxuser/Desktop/topst/cr5-bsp/sources/build/tcc805x/gcc/tcc805x-freertos-debug/obj/heap_5.o
 .debug_line    0x00000000000134ef       0xb7 /home/vboxuser/Desktop/topst/cr5-bsp/sources/build/tcc805x/gcc/tcc805x-freertos-debug/obj/sal_api.o
 .debug_line    0x00000000000135a6      0x7cd /home/vboxuser/Desktop/topst/cr5-bsp/sources/build/tcc805x/gcc/tcc805x-freertos-debug/obj/sal_freertos_impl.o
 .debug_line    0x0000000000013d73       0xfa /home/vboxuser/Desktop/topst/cr5-bsp/sources/build/tcc805x/gcc/tcc805x-freertos-debug/obj/startup.o
 .debug_line    0x0000000000013e6d       0x84 /home/vboxuser/Desktop/topst/cr5-bsp/sources/build/tcc805x/gcc/tcc805x-freertos-debug/obj/vector.o
 .debug_line    0x0000000000013ef1       0x72 /home/vboxuser/Desktop/topst/cr5-bsp/sources/build/tcc805x/gcc/tcc805x-freertos-debug/obj/vfp_init.o
 .debug_line    0x0000000000013f63       0x70 /home/vboxuser/Desktop/topst/cr5-bsp/sources/build/tcc805x/gcc/tcc805x-freertos-debug/obj/arm_a.o
 .debug_line    0x0000000000013fd3       0xda /home/vboxuser/Desktop/topst/cr5-bsp/sources/build/tcc805x/gcc/tcc805x-freertos-debug/obj/portASM.o
 .debug_line    0x00000000000140ad       0xc9 /home/vboxuser/Desktop/topst/cr5-bsp/sources/build/tcc805x/gcc/tcc805x-freertos-debug/obj/freertos.o
 .debug_line    0x0000000000014176       0x75 /home/vboxuser/Desktop/topst/cr5-bsp/sources/build/tcc805x/gcc/tcc805x-freertos-debug/obj/sal.o
 .debug_line    0x00000000000141eb      0x31c /home/vboxuser/Desktop/topst/buildtools/gcc-linaro-7.2.1-2017.11-x86_64_arm-eabi/arm-eabi/libc/usr/lib/libc.a(lib_a-atoi.o)
 .debug_line    0x0000000000014507      0x31b /home/vboxuser/Desktop/topst/buildtools/gcc-linaro-7.2.1-2017.11-x86_64_arm-eabi/arm-eabi/libc/usr/lib/libc.a(lib_a-atol.o)
 .debug_line    0x0000000000014822      0x345 /home/vboxuser/Desktop/topst/buildtools/gcc-linaro-7.2.1-2017.11-x86_64_arm-eabi/arm-eabi/libc/usr/lib/libc.a(lib_a-memcmp.o)
 .debug_line    0x0000000000014b67      0x36d /home/vboxuser/Desktop/topst/buildtools/gcc-linaro-7.2.1-2017.11-x86_64_arm-eabi/arm-eabi/libc/usr/lib/libc.a(lib_a-memcpy-stub.o)
 .debug_line    0x0000000000014ed4      0x433 /home/vboxuser/Desktop/topst/buildtools/gcc-linaro-7.2.1-2017.11-x86_64_arm-eabi/arm-eabi/libc/usr/lib/libc.a(lib_a-memset.o)
 .debug_line    0x0000000000015307      0x41b /home/vboxuser/Desktop/topst/buildtools/gcc-linaro-7.2.1-2017.11-x86_64_arm-eabi/arm-eabi/libc/usr/lib/libc.a(lib_a-snprintf.o)
 .debug_line    0x0000000000015722      0x323 /home/vboxuser/Desktop/topst/buildtools/gcc-linaro-7.2.1-2017.11-x86_64_arm-eabi/arm-eabi/libc/usr/lib/libc.a(lib_a-strlen-stub.o)
 .debug_line    0x0000000000015a45      0x370 /home/vboxuser/Desktop/topst/buildtools/gcc-linaro-7.2.1-2017.11-x86_64_arm-eabi/arm-eabi/libc/usr/lib/libc.a(lib_a-strncmp.o)
 .debug_line    0x0000000000015db5      0x345 /home/vboxuser/Desktop/topst/buildtools/gcc-linaro-7.2.1-2017.11-x86_64_arm-eabi/arm-eabi/libc/usr/lib/libc.a(lib_a-strncpy.o)
 .debug_line    0x00000000000160fa      0x324 /home/vboxuser/Desktop/topst/buildtools/gcc-linaro-7.2.1-2017.11-x86_64_arm-eabi/arm-eabi/libc/usr/lib/libc.a(lib_a-strnlen.o)
 .debug_line    0x000000000001641e      0x47c /home/vboxuser/Desktop/topst/buildtools/gcc-linaro-7.2.1-2017.11-x86_64_arm-eabi/arm-eabi/libc/usr/lib/libc.a(lib_a-strtol.o)
 .debug_line    0x000000000001689a      0x47b /home/vboxuser/Desktop/topst/buildtools/gcc-linaro-7.2.1-2017.11-x86_64_arm-eabi/arm-eabi/libc/usr/lib/libc.a(lib_a-strtoul.o)
 .debug_line    0x0000000000016d15     0x23c8 /home/vboxuser/Desktop/topst/buildtools/gcc-linaro-7.2.1-2017.11-x86_64_arm-eabi/arm-eabi/libc/usr/lib/libc.a(lib_a-svfprintf.o)
 .debug_line    0x00000000000190dd      0x45e /home/vboxuser/Desktop/topst/buildtools/gcc-linaro-7.2.1-2017.11-x86_64_arm-eabi/arm-eabi/libc/usr/lib/libc.a(lib_a-wcrtomb.o)
 .debug_line    0x000000000001953b      0x324 /home/vboxuser/Desktop/topst/buildtools/gcc-linaro-7.2.1-2017.11-x86_64_arm-eabi/arm-eabi/libc/usr/lib/libc.a(lib_a-wcsrtombs.o)
 .debug_line    0x000000000001985f      0x950 /home/vboxuser/Desktop/topst/buildtools/gcc-linaro-7.2.1-2017.11-x86_64_arm-eabi/arm-eabi/libc/usr/lib/libc.a(lib_a-dtoa.o)
 .debug_line    0x000000000001a1af      0x417 /home/vboxuser/Desktop/topst/buildtools/gcc-linaro-7.2.1-2017.11-x86_64_arm-eabi/arm-eabi/libc/usr/lib/libc.a(lib_a-freer.o)
 .debug_line    0x000000000001a5c6      0x259 /home/vboxuser/Desktop/topst/buildtools/gcc-linaro-7.2.1-2017.11-x86_64_arm-eabi/arm-eabi/libc/usr/lib/libc.a(lib_a-impure.o)
 .debug_line    0x000000000001a81f      0x61c /home/vboxuser/Desktop/topst/buildtools/gcc-linaro-7.2.1-2017.11-x86_64_arm-eabi/arm-eabi/libc/usr/lib/libc.a(lib_a-locale.o)
 .debug_line    0x000000000001ae3b      0x35d /home/vboxuser/Desktop/topst/buildtools/gcc-linaro-7.2.1-2017.11-x86_64_arm-eabi/arm-eabi/libc/usr/lib/libc.a(lib_a-localeconv.o)
 .debug_line    0x000000000001b198      0x536 /home/vboxuser/Desktop/topst/buildtools/gcc-linaro-7.2.1-2017.11-x86_64_arm-eabi/arm-eabi/libc/usr/lib/libc.a(lib_a-mallocr.o)
 .debug_line    0x000000000001b6ce      0x61e /home/vboxuser/Desktop/topst/buildtools/gcc-linaro-7.2.1-2017.11-x86_64_arm-eabi/arm-eabi/libc/usr/lib/libc.a(lib_a-mbtowc_r.o)
 .debug_line    0x000000000001bcec      0x35d /home/vboxuser/Desktop/topst/buildtools/gcc-linaro-7.2.1-2017.11-x86_64_arm-eabi/arm-eabi/libc/usr/lib/libc.a(lib_a-memchr-stub.o)
 .debug_line    0x000000000001c049      0x269 /home/vboxuser/Desktop/topst/buildtools/gcc-linaro-7.2.1-2017.11-x86_64_arm-eabi/arm-eabi/libc/usr/lib/libc.a(lib_a-mlock.o)
 .debug_line    0x000000000001c2b2      0x8d4 /home/vboxuser/Desktop/topst/buildtools/gcc-linaro-7.2.1-2017.11-x86_64_arm-eabi/arm-eabi/libc/usr/lib/libc.a(lib_a-mprec.o)
 .debug_line    0x000000000001cb86      0x4ac /home/vboxuser/Desktop/topst/buildtools/gcc-linaro-7.2.1-2017.11-x86_64_arm-eabi/arm-eabi/libc/usr/lib/libc.a(lib_a-s_frexp.o)
 .debug_line    0x000000000001d032      0x335 /home/vboxuser/Desktop/topst/buildtools/gcc-linaro-7.2.1-2017.11-x86_64_arm-eabi/arm-eabi/libc/usr/lib/libc.a(lib_a-sbrkr.o)
 .debug_line    0x000000000001d367      0x342 /home/vboxuser/Desktop/topst/buildtools/gcc-linaro-7.2.1-2017.11-x86_64_arm-eabi/arm-eabi/libc/usr/lib/libc.a(lib_a-strcasecmp.o)
 .debug_line    0x000000000001d6a9      0x32a /home/vboxuser/Desktop/topst/buildtools/gcc-linaro-7.2.1-2017.11-x86_64_arm-eabi/arm-eabi/libc/usr/lib/libc.a(lib_a-strcat.o)
 .debug_line    0x000000000001d9d3      0x357 /home/vboxuser/Desktop/topst/buildtools/gcc-linaro-7.2.1-2017.11-x86_64_arm-eabi/arm-eabi/libc/usr/lib/libc.a(lib_a-strchr.o)
 .debug_line    0x000000000001dd2a      0x176 /home/vboxuser/Desktop/topst/buildtools/gcc-linaro-7.2.1-2017.11-x86_64_arm-eabi/arm-eabi/libc/usr/lib/libc.a(lib_a-strcmp.o)
 .debug_line    0x000000000001dea0      0x31e /home/vboxuser/Desktop/topst/buildtools/gcc-linaro-7.2.1-2017.11-x86_64_arm-eabi/arm-eabi/libc/usr/lib/libc.a(lib_a-strcpy.o)
 .debug_line    0x000000000001e1be      0x332 /home/vboxuser/Desktop/topst/buildtools/gcc-linaro-7.2.1-2017.11-x86_64_arm-eabi/arm-eabi/libc/usr/lib/libc.a(lib_a-strlcpy.o)
 .debug_line    0x000000000001e4f0      0x353 /home/vboxuser/Desktop/topst/buildtools/gcc-linaro-7.2.1-2017.11-x86_64_arm-eabi/arm-eabi/libc/usr/lib/libc.a(lib_a-strncasecmp.o)
 .debug_line    0x000000000001e843     0x1f1b /home/vboxuser/Desktop/topst/buildtools/gcc-linaro-7.2.1-2017.11-x86_64_arm-eabi/arm-eabi/libc/usr/lib/libc.a(lib_a-svfiprintf.o)
 .debug_line    0x000000000002075e      0x79c /home/vboxuser/Desktop/topst/buildtools/gcc-linaro-7.2.1-2017.11-x86_64_arm-eabi/arm-eabi/libc/usr/lib/libc.a(lib_a-syscalls.o)
 .debug_line    0x0000000000020efa      0x480 /home/vboxuser/Desktop/topst/buildtools/gcc-linaro-7.2.1-2017.11-x86_64_arm-eabi/arm-eabi/libc/usr/lib/libc.a(lib_a-wcsnrtombs.o)
 .debug_line    0x000000000002137a      0x50b /home/vboxuser/Desktop/topst/buildtools/gcc-linaro-7.2.1-2017.11-x86_64_arm-eabi/arm-eabi/libc/usr/lib/libc.a(lib_a-wctomb_r.o)
 .debug_line    0x0000000000021885      0x2ad /home/vboxuser/Desktop/topst/buildtools/gcc-linaro-7.2.1-2017.11-x86_64_arm-eabi/arm-eabi/libc/usr/lib/libc.a(lib_a-callocr.o)
 .debug_line    0x0000000000021b32      0x3f8 /home/vboxuser/Desktop/topst/buildtools/gcc-linaro-7.2.1-2017.11-x86_64_arm-eabi/arm-eabi/libc/usr/lib/libc.a(lib_a-ctype_.o)
 .debug_line    0x0000000000021f2a      0x274 /home/vboxuser/Desktop/topst/buildtools/gcc-linaro-7.2.1-2017.11-x86_64_arm-eabi/arm-eabi/libc/usr/lib/libc.a(lib_a-errno.o)
 .debug_line    0x000000000002219e      0x44f /home/vboxuser/Desktop/topst/buildtools/gcc-linaro-7.2.1-2017.11-x86_64_arm-eabi/arm-eabi/libc/usr/lib/libc.a(lib_a-findfp.o)
 .debug_line    0x00000000000225ed      0x38e /home/vboxuser/Desktop/topst/buildtools/gcc-linaro-7.2.1-2017.11-x86_64_arm-eabi/arm-eabi/libc/usr/lib/libc.a(lib_a-fwalk.o)
 .debug_line    0x000000000002297b      0x363 /home/vboxuser/Desktop/topst/buildtools/gcc-linaro-7.2.1-2017.11-x86_64_arm-eabi/arm-eabi/libc/usr/lib/libc.a(lib_a-getenv_r.o)
 .debug_line    0x0000000000022cde      0x440 /home/vboxuser/Desktop/topst/buildtools/gcc-linaro-7.2.1-2017.11-x86_64_arm-eabi/arm-eabi/libc/usr/lib/libc.a(lib_a-memmove.o)
 .debug_line    0x000000000002311e      0x3a8 /home/vboxuser/Desktop/topst/buildtools/gcc-linaro-7.2.1-2017.11-x86_64_arm-eabi/arm-eabi/libc/usr/lib/libc.a(lib_a-reallocr.o)
 .debug_line    0x00000000000234c6      0x34d /home/vboxuser/Desktop/topst/buildtools/gcc-linaro-7.2.1-2017.11-x86_64_arm-eabi/arm-eabi/libc/usr/lib/libc.a(lib_a-reent.o)
 .debug_line    0x0000000000023813      0x382 /home/vboxuser/Desktop/topst/buildtools/gcc-linaro-7.2.1-2017.11-x86_64_arm-eabi/arm-eabi/libc/usr/lib/libc.a(lib_a-stdio.o)
 .debug_line    0x0000000000023b95      0x336 /home/vboxuser/Desktop/topst/buildtools/gcc-linaro-7.2.1-2017.11-x86_64_arm-eabi/arm-eabi/libc/usr/lib/libc.a(lib_a-writer.o)
 .debug_line    0x0000000000023ecb      0x336 /home/vboxuser/Desktop/topst/buildtools/gcc-linaro-7.2.1-2017.11-x86_64_arm-eabi/arm-eabi/libc/usr/lib/libc.a(lib_a-closer.o)
 .debug_line    0x0000000000024201       0xcc /home/vboxuser/Desktop/topst/buildtools/gcc-linaro-7.2.1-2017.11-x86_64_arm-eabi/arm-eabi/libc/usr/lib/libc.a(lib_a-environ.o)
 .debug_line    0x00000000000242cd      0x31b /home/vboxuser/Desktop/topst/buildtools/gcc-linaro-7.2.1-2017.11-x86_64_arm-eabi/arm-eabi/libc/usr/lib/libc.a(lib_a-envlock.o)
 .debug_line    0x00000000000245e8      0x371 /home/vboxuser/Desktop/topst/buildtools/gcc-linaro-7.2.1-2017.11-x86_64_arm-eabi/arm-eabi/libc/usr/lib/libc.a(lib_a-fclose.o)
 .debug_line    0x0000000000024959      0x41e /home/vboxuser/Desktop/topst/buildtools/gcc-linaro-7.2.1-2017.11-x86_64_arm-eabi/arm-eabi/libc/usr/lib/libc.a(lib_a-fflush.o)
 .debug_line    0x0000000000024d77      0x336 /home/vboxuser/Desktop/topst/buildtools/gcc-linaro-7.2.1-2017.11-x86_64_arm-eabi/arm-eabi/libc/usr/lib/libc.a(lib_a-lseekr.o)
 .debug_line    0x00000000000250ad      0x335 /home/vboxuser/Desktop/topst/buildtools/gcc-linaro-7.2.1-2017.11-x86_64_arm-eabi/arm-eabi/libc/usr/lib/libc.a(lib_a-readr.o)
 .debug_line    0x00000000000253e2       0xfd /home/vboxuser/Desktop/topst/buildtools/gcc-linaro-7.2.1-2017.11-x86_64_arm-eabi/arm-eabi/libc/usr/lib/libgcc.a(_udivsi3.o)
 .debug_line    0x00000000000254df       0xe0 /home/vboxuser/Desktop/topst/buildtools/gcc-linaro-7.2.1-2017.11-x86_64_arm-eabi/arm-eabi/libc/usr/lib/libgcc.a(_dvmd_tls.o)
 .debug_line    0x00000000000255bf      0x1ef /home/vboxuser/Desktop/topst/buildtools/gcc-linaro-7.2.1-2017.11-x86_64_arm-eabi/arm-eabi/libc/usr/lib/libgcc.a(_arm_addsubdf3.o)
 .debug_line    0x00000000000257ae      0x201 /home/vboxuser/Desktop/topst/buildtools/gcc-linaro-7.2.1-2017.11-x86_64_arm-eabi/arm-eabi/libc/usr/lib/libgcc.a(_arm_muldivdf3.o)
 .debug_line    0x00000000000259af      0x131 /home/vboxuser/Desktop/topst/buildtools/gcc-linaro-7.2.1-2017.11-x86_64_arm-eabi/arm-eabi/libc/usr/lib/libgcc.a(_arm_cmpdf2.o)
 .debug_line    0x0000000000025ae0       0xee /home/vboxuser/Desktop/topst/buildtools/gcc-linaro-7.2.1-2017.11-x86_64_arm-eabi/arm-eabi/libc/usr/lib/libgcc.a(_arm_unorddf2.o)
 .debug_line    0x0000000000025bce       0xf7 /home/vboxuser/Desktop/topst/buildtools/gcc-linaro-7.2.1-2017.11-x86_64_arm-eabi/arm-eabi/libc/usr/lib/libgcc.a(_arm_fixdfsi.o)
 .debug_line    0x0000000000025cc5       0xf5 /home/vboxuser/Desktop/topst/buildtools/gcc-linaro-7.2.1-2017.11-x86_64_arm-eabi/arm-eabi/libc/usr/lib/libgcc.a(_arm_fixunsdfsi.o)
 .debug_line    0x0000000000025dba      0x196 /home/vboxuser/Desktop/topst/buildtools/gcc-linaro-7.2.1-2017.11-x86_64_arm-eabi/arm-eabi/libc/usr/lib/libgcc.a(_arm_addsubsf3.o)
 .debug_line    0x0000000000025f50      0x1a2 /home/vboxuser/Desktop/topst/buildtools/gcc-linaro-7.2.1-2017.11-x86_64_arm-eabi/arm-eabi/libc/usr/lib/libgcc.a(_arm_muldivsf3.o)
 .debug_line    0x00000000000260f2       0xf5 /home/vboxuser/Desktop/topst/buildtools/gcc-linaro-7.2.1-2017.11-x86_64_arm-eabi/arm-eabi/libc/usr/lib/libgcc.a(_arm_fixunssfsi.o)
 .debug_line    0x00000000000261e7       0xe0 /home/vboxuser/Desktop/topst/buildtools/gcc-linaro-7.2.1-2017.11-x86_64_arm-eabi/arm-eabi/libc/usr/lib/libgcc.a(_aeabi_uldivmod.o)
 .debug_line    0x00000000000262c7      0x4ff /home/vboxuser/Desktop/topst/buildtools/gcc-linaro-7.2.1-2017.11-x86_64_arm-eabi/arm-eabi/libc/usr/lib/libgcc.a(_udivmoddi4.o)
 .debug_line    0x00000000000267c6       0xea /home/vboxuser/Desktop/topst/buildtools/gcc-linaro-7.2.1-2017.11-x86_64_arm-eabi/arm-eabi/libc/usr/lib/libgcc.a(_clzdi2.o)
 .debug_line    0x00000000000268b0       0xed /home/vboxuser/Desktop/topst/buildtools/gcc-linaro-7.2.1-2017.11-x86_64_arm-eabi/arm-eabi/libc/usr/lib/libgcc.a(_clzsi2.o)

.debug_str      0x0000000000000000    0x19be4
 .debug_str     0x0000000000000000     0x170b /home/vboxuser/Desktop/topst/cr5-bsp/sources/build/tcc805x/gcc/tcc805x-freertos-debug/obj/main.o
                                       0x1858 (size before relaxing)
 .debug_str     0x000000000000170b      0x7a8 /home/vboxuser/Desktop/topst/cr5-bsp/sources/build/tcc805x/gcc/tcc805x-freertos-debug/obj/can_demo.o
                                       0x1a07 (size before relaxing)
 .debug_str     0x0000000000001eb3      0x9a8 /home/vboxuser/Desktop/topst/cr5-bsp/sources/build/tcc805x/gcc/tcc805x-freertos-debug/obj/console.o
                                       0x21bc (size before relaxing)
 .debug_str     0x000000000000285b      0x71d /home/vboxuser/Desktop/topst/cr5-bsp/sources/build/tcc805x/gcc/tcc805x-freertos-debug/obj/fwug.o
                                       0x1ae2 (size before relaxing)
 .debug_str     0x0000000000002f78      0x2e1 /home/vboxuser/Desktop/topst/cr5-bsp/sources/build/tcc805x/gcc/tcc805x-freertos-debug/obj/key_adc.o
                                       0x1526 (size before relaxing)
 .debug_str     0x0000000000003259      0x2a8 /home/vboxuser/Desktop/topst/cr5-bsp/sources/build/tcc805x/gcc/tcc805x-freertos-debug/obj/key_gpio.o
                                       0x1502 (size before relaxing)
 .debug_str     0x0000000000003501      0x267 /home/vboxuser/Desktop/topst/cr5-bsp/sources/build/tcc805x/gcc/tcc805x-freertos-debug/obj/key_i2c.o
                                       0x14eb (size before relaxing)
 .debug_str     0x0000000000003768       0x46 /home/vboxuser/Desktop/topst/cr5-bsp/sources/build/tcc805x/gcc/tcc805x-freertos-debug/obj/key.o
                                        0x115 (size before relaxing)
 .debug_str     0x00000000000037ae      0x3a5 /home/vboxuser/Desktop/topst/cr5-bsp/sources/build/tcc805x/gcc/tcc805x-freertos-debug/obj/system_monitoring.o
                                       0x15f4 (size before relaxing)
 .debug_str     0x0000000000003b53      0x14b /home/vboxuser/Desktop/topst/cr5-bsp/sources/build/tcc805x/gcc/tcc805x-freertos-debug/obj/bootctrl.o
                                       0x14f6 (size before relaxing)
 .debug_str     0x0000000000003c9e       0x6a /home/vboxuser/Desktop/topst/cr5-bsp/sources/build/tcc805x/gcc/tcc805x-freertos-debug/obj/reset_demo.o
                                       0x12b0 (size before relaxing)
 .debug_str     0x0000000000003d08      0xe51 /home/vboxuser/Desktop/topst/cr5-bsp/sources/build/tcc805x/gcc/tcc805x-freertos-debug/obj/adc_test.o
                                       0x25ee (size before relaxing)
 .debug_str     0x0000000000004b59      0x134 /home/vboxuser/Desktop/topst/cr5-bsp/sources/build/tcc805x/gcc/tcc805x-freertos-debug/obj/dse_test.o
                                       0x16a8 (size before relaxing)
 .debug_str     0x0000000000004c8d      0x7d1 /home/vboxuser/Desktop/topst/cr5-bsp/sources/build/tcc805x/gcc/tcc805x-freertos-debug/obj/fmu_test.o
                                       0x1d67 (size before relaxing)
 .debug_str     0x000000000000545e       0xde /home/vboxuser/Desktop/topst/cr5-bsp/sources/build/tcc805x/gcc/tcc805x-freertos-debug/obj/gdma_test.o
                                       0x1318 (size before relaxing)
 .debug_str     0x000000000000553c       0x99 /home/vboxuser/Desktop/topst/cr5-bsp/sources/build/tcc805x/gcc/tcc805x-freertos-debug/obj/gic_test.o
                                       0x12f0 (size before relaxing)
 .debug_str     0x00000000000055d5       0xcb /home/vboxuser/Desktop/topst/cr5-bsp/sources/build/tcc805x/gcc/tcc805x-freertos-debug/obj/gpio_test.o
                                       0x1313 (size before relaxing)
 .debug_str     0x00000000000056a0      0x374 /home/vboxuser/Desktop/topst/cr5-bsp/sources/build/tcc805x/gcc/tcc805x-freertos-debug/obj/gpsb_test.o
                                       0x1a9d (size before relaxing)
 .debug_str     0x0000000000005a14      0x328 /home/vboxuser/Desktop/topst/cr5-bsp/sources/build/tcc805x/gcc/tcc805x-freertos-debug/obj/hsm_test.o
                                       0x19a4 (size before relaxing)
 .debug_str     0x0000000000005d3c      0x166 /home/vboxuser/Desktop/topst/cr5-bsp/sources/build/tcc805x/gcc/tcc805x-freertos-debug/obj/i2c_test.o
                                       0x1589 (size before relaxing)
 .debug_str     0x0000000000005ea2       0xf2 /home/vboxuser/Desktop/topst/cr5-bsp/sources/build/tcc805x/gcc/tcc805x-freertos-debug/obj/ictc_test.o
                                       0x132d (size before relaxing)
 .debug_str     0x0000000000005f94       0xf9 /home/vboxuser/Desktop/topst/cr5-bsp/sources/build/tcc805x/gcc/tcc805x-freertos-debug/obj/lin_test.o
                                       0x133e (size before relaxing)
 .debug_str     0x000000000000608d      0x1f2 /home/vboxuser/Desktop/topst/cr5-bsp/sources/build/tcc805x/gcc/tcc805x-freertos-debug/obj/pdm_test.o
                                       0x1434 (size before relaxing)
 .debug_str     0x000000000000627f      0x1b1 /home/vboxuser/Desktop/topst/cr5-bsp/sources/build/tcc805x/gcc/tcc805x-freertos-debug/obj/pmio_test.o
                                       0x17e8 (size before relaxing)
 .debug_str     0x0000000000006430      0x5cf /home/vboxuser/Desktop/topst/cr5-bsp/sources/build/tcc805x/gcc/tcc805x-freertos-debug/obj/timer_test.o
                                       0x1d77 (size before relaxing)
 .debug_str     0x00000000000069ff      0x239 /home/vboxuser/Desktop/topst/cr5-bsp/sources/build/tcc805x/gcc/tcc805x-freertos-debug/obj/wdt_test.o
                                       0x1b09 (size before relaxing)
 .debug_str     0x0000000000006c38      0x124 /home/vboxuser/Desktop/topst/cr5-bsp/sources/build/tcc805x/gcc/tcc805x-freertos-debug/obj/pwm_test.o
                                       0x148e (size before relaxing)
 .debug_str     0x0000000000006d5c      0x15b /home/vboxuser/Desktop/topst/cr5-bsp/sources/build/tcc805x/gcc/tcc805x-freertos-debug/obj/Motor_System.o
                                       0x1958 (size before relaxing)
 .debug_str     0x0000000000006eb7       0x8e /home/vboxuser/Desktop/topst/cr5-bsp/sources/build/tcc805x/gcc/tcc805x-freertos-debug/obj/mptool.o
                                       0x12cd (size before relaxing)
 .debug_str     0x0000000000006f45      0x4b9 /home/vboxuser/Desktop/topst/cr5-bsp/sources/build/tcc805x/gcc/tcc805x-freertos-debug/obj/ipc_os.o
                                       0x1796 (size before relaxing)
 .debug_str     0x00000000000073fe      0x215 /home/vboxuser/Desktop/topst/cr5-bsp/sources/build/tcc805x/gcc/tcc805x-freertos-debug/obj/ipc_buffer.o
                                       0x14b1 (size before relaxing)
 .debug_str     0x0000000000007613      0x164 /home/vboxuser/Desktop/topst/cr5-bsp/sources/build/tcc805x/gcc/tcc805x-freertos-debug/obj/ipc_cmd.o
                                       0x163d (size before relaxing)
 .debug_str     0x0000000000007777      0x4df /home/vboxuser/Desktop/topst/cr5-bsp/sources/build/tcc805x/gcc/tcc805x-freertos-debug/obj/ipc_ctl.o
                                       0x1aca (size before relaxing)
 .debug_str     0x0000000000007c56      0x1e9 /home/vboxuser/Desktop/topst/cr5-bsp/sources/build/tcc805x/gcc/tcc805x-freertos-debug/obj/ipc_parser.o
                                       0x14fa (size before relaxing)
 .debug_str     0x0000000000007e3f      0x158 /home/vboxuser/Desktop/topst/cr5-bsp/sources/build/tcc805x/gcc/tcc805x-freertos-debug/obj/ipc_api.o
                                       0x1996 (size before relaxing)
 .debug_str     0x0000000000007f97       0x98 /home/vboxuser/Desktop/topst/cr5-bsp/sources/build/tcc805x/gcc/tcc805x-freertos-debug/obj/ipc.o
                                       0x144c (size before relaxing)
 .debug_str     0x000000000000802f      0x1b9 /home/vboxuser/Desktop/topst/cr5-bsp/sources/build/tcc805x/gcc/tcc805x-freertos-debug/obj/lin.o
                                       0x144e (size before relaxing)
 .debug_str     0x00000000000081e8      0x16b /home/vboxuser/Desktop/topst/cr5-bsp/sources/build/tcc805x/gcc/tcc805x-freertos-debug/obj/sdm.o
                                       0x1590 (size before relaxing)
 .debug_str     0x0000000000008353      0x239 /home/vboxuser/Desktop/topst/cr5-bsp/sources/build/tcc805x/gcc/tcc805x-freertos-debug/obj/hsm_manager.o
                                       0x1a04 (size before relaxing)
 .debug_str     0x000000000000858c      0x34a /home/vboxuser/Desktop/topst/cr5-bsp/sources/build/tcc805x/gcc/tcc805x-freertos-debug/obj/adc.o
                                       0x1bd8 (size before relaxing)
 .debug_str     0x00000000000088d6     0x2059 /home/vboxuser/Desktop/topst/cr5-bsp/sources/build/tcc805x/gcc/tcc805x-freertos-debug/obj/can.o
                                       0x37a7 (size before relaxing)
 .debug_str     0x000000000000a92f      0x819 /home/vboxuser/Desktop/topst/cr5-bsp/sources/build/tcc805x/gcc/tcc805x-freertos-debug/obj/can_drv.o
                                       0x3c7c (size before relaxing)
 .debug_str     0x000000000000b148      0x7ee /home/vboxuser/Desktop/topst/cr5-bsp/sources/build/tcc805x/gcc/tcc805x-freertos-debug/obj/can_msg.o
                                       0x3d80 (size before relaxing)
 .debug_str     0x000000000000b936       0xd7 /home/vboxuser/Desktop/topst/cr5-bsp/sources/build/tcc805x/gcc/tcc805x-freertos-debug/obj/can_par.o
                                       0x1d36 (size before relaxing)
 .debug_str     0x000000000000ba0d      0x4ba /home/vboxuser/Desktop/topst/cr5-bsp/sources/build/tcc805x/gcc/tcc805x-freertos-debug/obj/can_porting.o
                                       0x4085 (size before relaxing)
 .debug_str     0x000000000000bec7      0xe7b /home/vboxuser/Desktop/topst/cr5-bsp/sources/build/tcc805x/gcc/tcc805x-freertos-debug/obj/clock_dev.o
                                       0x2723 (size before relaxing)
 .debug_str     0x000000000000cd42      0x10e /home/vboxuser/Desktop/topst/cr5-bsp/sources/build/tcc805x/gcc/tcc805x-freertos-debug/obj/debug.o
                                       0x135c (size before relaxing)
 .debug_str     0x000000000000ce50       0xab /home/vboxuser/Desktop/topst/cr5-bsp/sources/build/tcc805x/gcc/tcc805x-freertos-debug/obj/bsp.o
                                       0x1448 (size before relaxing)
 .debug_str     0x000000000000cefb      0x3b2 /home/vboxuser/Desktop/topst/cr5-bsp/sources/build/tcc805x/gcc/tcc805x-freertos-debug/obj/fmu.o
                                       0x243d (size before relaxing)
 .debug_str     0x000000000000d2ad      0x280 /home/vboxuser/Desktop/topst/cr5-bsp/sources/build/tcc805x/gcc/tcc805x-freertos-debug/obj/gdma.o
                                       0x204f (size before relaxing)
 .debug_str     0x000000000000d52d      0x40f /home/vboxuser/Desktop/topst/cr5-bsp/sources/build/tcc805x/gcc/tcc805x-freertos-debug/obj/gic.o
                                       0x1bae (size before relaxing)
 .debug_str     0x000000000000d93c      0x121 /home/vboxuser/Desktop/topst/cr5-bsp/sources/build/tcc805x/gcc/tcc805x-freertos-debug/obj/gpio.o
                                       0x1379 (size before relaxing)
 .debug_str     0x000000000000da5d      0x28b /home/vboxuser/Desktop/topst/cr5-bsp/sources/build/tcc805x/gcc/tcc805x-freertos-debug/obj/i2c.o
                                       0x1bfc (size before relaxing)
 .debug_str     0x000000000000dce8       0x4f /home/vboxuser/Desktop/topst/cr5-bsp/sources/build/tcc805x/gcc/tcc805x-freertos-debug/obj/i2c_reg.o
                                       0x1c3b (size before relaxing)
 .debug_str     0x000000000000dd37      0x39a /home/vboxuser/Desktop/topst/cr5-bsp/sources/build/tcc805x/gcc/tcc805x-freertos-debug/obj/ictc.o
                                       0x1dba (size before relaxing)
 .debug_str     0x000000000000e0d1      0x74b /home/vboxuser/Desktop/topst/cr5-bsp/sources/build/tcc805x/gcc/tcc805x-freertos-debug/obj/mbox_phy.o
                                       0x204b (size before relaxing)
 .debug_str     0x000000000000e81c      0x443 /home/vboxuser/Desktop/topst/cr5-bsp/sources/build/tcc805x/gcc/tcc805x-freertos-debug/obj/mbox_dev.o
                                       0x20ef (size before relaxing)
 .debug_str     0x000000000000ec5f       0xde /home/vboxuser/Desktop/topst/cr5-bsp/sources/build/tcc805x/gcc/tcc805x-freertos-debug/obj/mbox.o
                                       0x1962 (size before relaxing)
 .debug_str     0x000000000000ed3d      0x13b /home/vboxuser/Desktop/topst/cr5-bsp/sources/build/tcc805x/gcc/tcc805x-freertos-debug/obj/mpu.o
                                       0x1390 (size before relaxing)
 .debug_str     0x000000000000ee78      0x658 /home/vboxuser/Desktop/topst/cr5-bsp/sources/build/tcc805x/gcc/tcc805x-freertos-debug/obj/pdm.o
                                       0x1f5f (size before relaxing)
 .debug_str     0x000000000000f4d0      0x884 /home/vboxuser/Desktop/topst/cr5-bsp/sources/build/tcc805x/gcc/tcc805x-freertos-debug/obj/pmio_dev.o
                                       0x2731 (size before relaxing)
 .debug_str     0x000000000000fd54      0x5a5 /home/vboxuser/Desktop/topst/cr5-bsp/sources/build/tcc805x/gcc/tcc805x-freertos-debug/obj/gpsb.o
                                       0x1f18 (size before relaxing)
 .debug_str     0x00000000000102f9       0x51 /home/vboxuser/Desktop/topst/cr5-bsp/sources/build/tcc805x/gcc/tcc805x-freertos-debug/obj/gpsb_reg.o
                                       0x1c00 (size before relaxing)
 .debug_str     0x000000000001034a      0x358 /home/vboxuser/Desktop/topst/cr5-bsp/sources/build/tcc805x/gcc/tcc805x-freertos-debug/obj/timer.o
                                       0x1f78 (size before relaxing)
 .debug_str     0x00000000000106a2      0x64c /home/vboxuser/Desktop/topst/cr5-bsp/sources/build/tcc805x/gcc/tcc805x-freertos-debug/obj/uart.o
                                       0x27bf (size before relaxing)
 .debug_str     0x0000000000010cee      0x28f /home/vboxuser/Desktop/topst/cr5-bsp/sources/build/tcc805x/gcc/tcc805x-freertos-debug/obj/udma.o
                                       0x20ac (size before relaxing)
 .debug_str     0x0000000000010f7d      0x221 /home/vboxuser/Desktop/topst/cr5-bsp/sources/build/tcc805x/gcc/tcc805x-freertos-debug/obj/wdt.o
                                       0x1e2a (size before relaxing)
 .debug_str     0x000000000001119e      0x1da /home/vboxuser/Desktop/topst/cr5-bsp/sources/build/tcc805x/gcc/tcc805x-freertos-debug/obj/dse.o
                                       0x1997 (size before relaxing)
 .debug_str     0x0000000000011378      0x1c6 /home/vboxuser/Desktop/topst/cr5-bsp/sources/build/tcc805x/gcc/tcc805x-freertos-debug/obj/midf.o
                                       0x1774 (size before relaxing)
 .debug_str     0x000000000001153e      0x150 /home/vboxuser/Desktop/topst/cr5-bsp/sources/build/tcc805x/gcc/tcc805x-freertos-debug/obj/pmu_reset.o
                                       0x18f7 (size before relaxing)
 .debug_str     0x000000000001168e      0xdfc /home/vboxuser/Desktop/topst/cr5-bsp/sources/build/tcc805x/gcc/tcc805x-freertos-debug/obj/tasks.o
                                       0x1424 (size before relaxing)
 .debug_str     0x000000000001248a       0xcd /home/vboxuser/Desktop/topst/cr5-bsp/sources/build/tcc805x/gcc/tcc805x-freertos-debug/obj/list.o
                                        0x6f4 (size before relaxing)
 .debug_str     0x0000000000012557      0x7d0 /home/vboxuser/Desktop/topst/cr5-bsp/sources/build/tcc805x/gcc/tcc805x-freertos-debug/obj/queue.o
                                        0xf78 (size before relaxing)
 .debug_str     0x0000000000012d27      0x2cb /home/vboxuser/Desktop/topst/cr5-bsp/sources/build/tcc805x/gcc/tcc805x-freertos-debug/obj/event_groups.o
                                        0xa0f (size before relaxing)
 .debug_str     0x0000000000012ff2      0x58c /home/vboxuser/Desktop/topst/cr5-bsp/sources/build/tcc805x/gcc/tcc805x-freertos-debug/obj/timers.o
                                        0xe58 (size before relaxing)
 .debug_str     0x000000000001357e      0x4b9 /home/vboxuser/Desktop/topst/cr5-bsp/sources/build/tcc805x/gcc/tcc805x-freertos-debug/obj/stream_buffer.o
                                        0xba8 (size before relaxing)
 .debug_str     0x0000000000013a37      0x40e /home/vboxuser/Desktop/topst/cr5-bsp/sources/build/tcc805x/gcc/tcc805x-freertos-debug/obj/port.o
                                       0x218f (size before relaxing)
 .debug_str     0x0000000000013e45      0x32a /home/vboxuser/Desktop/topst/cr5-bsp/sources/build/tcc805x/gcc/tcc805x-freertos-debug/obj/heap_5.o
                                        0x922 (size before relaxing)
 .debug_str     0x000000000001416f      0x10b /home/vboxuser/Desktop/topst/cr5-bsp/sources/build/tcc805x/gcc/tcc805x-freertos-debug/obj/sal_api.o
                                       0x130a (size before relaxing)
 .debug_str     0x000000000001427a      0x537 /home/vboxuser/Desktop/topst/cr5-bsp/sources/build/tcc805x/gcc/tcc805x-freertos-debug/obj/sal_freertos_impl.o
                                       0x1e75 (size before relaxing)
 .debug_str     0x00000000000147b1      0x1c3 /home/vboxuser/Desktop/topst/buildtools/gcc-linaro-7.2.1-2017.11-x86_64_arm-eabi/arm-eabi/libc/usr/lib/libc.a(lib_a-atoi.o)
                                        0x641 (size before relaxing)
 .debug_str     0x0000000000014974       0xb6 /home/vboxuser/Desktop/topst/buildtools/gcc-linaro-7.2.1-2017.11-x86_64_arm-eabi/arm-eabi/libc/usr/lib/libc.a(lib_a-atol.o)
                                        0x641 (size before relaxing)
 .debug_str     0x0000000000014a2a      0x183 /home/vboxuser/Desktop/topst/buildtools/gcc-linaro-7.2.1-2017.11-x86_64_arm-eabi/arm-eabi/libc/usr/lib/libc.a(lib_a-memcmp.o)
                                        0x629 (size before relaxing)
 .debug_str     0x0000000000014bad      0x1b9 /home/vboxuser/Desktop/topst/buildtools/gcc-linaro-7.2.1-2017.11-x86_64_arm-eabi/arm-eabi/libc/usr/lib/libc.a(lib_a-memcpy-stub.o)
                                        0x65f (size before relaxing)
 .debug_str     0x0000000000014d66      0x2fc /home/vboxuser/Desktop/topst/buildtools/gcc-linaro-7.2.1-2017.11-x86_64_arm-eabi/arm-eabi/libc/usr/lib/libc.a(lib_a-memset.o)
                                        0x952 (size before relaxing)
 .debug_str     0x0000000000015062      0x2c4 /home/vboxuser/Desktop/topst/buildtools/gcc-linaro-7.2.1-2017.11-x86_64_arm-eabi/arm-eabi/libc/usr/lib/libc.a(lib_a-snprintf.o)
                                        0x7c6 (size before relaxing)
 .debug_str     0x0000000000015326       0xbc /home/vboxuser/Desktop/topst/buildtools/gcc-linaro-7.2.1-2017.11-x86_64_arm-eabi/arm-eabi/libc/usr/lib/libc.a(lib_a-strlen-stub.o)
                                        0x638 (size before relaxing)
 .debug_str     0x00000000000153e2       0xb4 /home/vboxuser/Desktop/topst/buildtools/gcc-linaro-7.2.1-2017.11-x86_64_arm-eabi/arm-eabi/libc/usr/lib/libc.a(lib_a-strncmp.o)
                                        0x62b (size before relaxing)
 .debug_str     0x0000000000015496       0xb4 /home/vboxuser/Desktop/topst/buildtools/gcc-linaro-7.2.1-2017.11-x86_64_arm-eabi/arm-eabi/libc/usr/lib/libc.a(lib_a-strncpy.o)
                                        0x653 (size before relaxing)
 .debug_str     0x000000000001554a       0xb4 /home/vboxuser/Desktop/topst/buildtools/gcc-linaro-7.2.1-2017.11-x86_64_arm-eabi/arm-eabi/libc/usr/lib/libc.a(lib_a-strnlen.o)
                                        0x631 (size before relaxing)
 .debug_str     0x00000000000155fe      0x125 /home/vboxuser/Desktop/topst/buildtools/gcc-linaro-7.2.1-2017.11-x86_64_arm-eabi/arm-eabi/libc/usr/lib/libc.a(lib_a-strtol.o)
                                        0x9f5 (size before relaxing)
 .debug_str     0x0000000000015723       0xca /home/vboxuser/Desktop/topst/buildtools/gcc-linaro-7.2.1-2017.11-x86_64_arm-eabi/arm-eabi/libc/usr/lib/libc.a(lib_a-strtoul.o)
                                        0x9fa (size before relaxing)
 .debug_str     0x00000000000157ed      0x49a /home/vboxuser/Desktop/topst/buildtools/gcc-linaro-7.2.1-2017.11-x86_64_arm-eabi/arm-eabi/libc/usr/lib/libc.a(lib_a-svfprintf.o)
                                        0xfc2 (size before relaxing)
 .debug_str     0x0000000000015c87       0xb4 /home/vboxuser/Desktop/topst/buildtools/gcc-linaro-7.2.1-2017.11-x86_64_arm-eabi/arm-eabi/libc/usr/lib/libc.a(lib_a-wcrtomb.o)
                                        0x9c2 (size before relaxing)
 .debug_str     0x0000000000015d3b       0xc6 /home/vboxuser/Desktop/topst/buildtools/gcc-linaro-7.2.1-2017.11-x86_64_arm-eabi/arm-eabi/libc/usr/lib/libc.a(lib_a-wcsrtombs.o)
                                        0x65c (size before relaxing)
 .debug_str     0x0000000000015e01      0x1dc /home/vboxuser/Desktop/topst/buildtools/gcc-linaro-7.2.1-2017.11-x86_64_arm-eabi/arm-eabi/libc/usr/lib/libc.a(lib_a-dtoa.o)
                                        0xb2b (size before relaxing)
 .debug_str     0x0000000000015fdd      0x218 /home/vboxuser/Desktop/topst/buildtools/gcc-linaro-7.2.1-2017.11-x86_64_arm-eabi/arm-eabi/libc/usr/lib/libc.a(lib_a-freer.o)
                                        0x806 (size before relaxing)
 .debug_str     0x00000000000161f5      0x186 /home/vboxuser/Desktop/topst/buildtools/gcc-linaro-7.2.1-2017.11-x86_64_arm-eabi/arm-eabi/libc/usr/lib/libc.a(lib_a-impure.o)
                                        0x625 (size before relaxing)
 .debug_str     0x000000000001637b      0x2eb /home/vboxuser/Desktop/topst/buildtools/gcc-linaro-7.2.1-2017.11-x86_64_arm-eabi/arm-eabi/libc/usr/lib/libc.a(lib_a-locale.o)
                                        0xb66 (size before relaxing)
 .debug_str     0x0000000000016666       0xd8 /home/vboxuser/Desktop/topst/buildtools/gcc-linaro-7.2.1-2017.11-x86_64_arm-eabi/arm-eabi/libc/usr/lib/libc.a(lib_a-localeconv.o)
                                        0x9c2 (size before relaxing)
 .debug_str     0x000000000001673e       0xb0 /home/vboxuser/Desktop/topst/buildtools/gcc-linaro-7.2.1-2017.11-x86_64_arm-eabi/arm-eabi/libc/usr/lib/libc.a(lib_a-mallocr.o)
                                        0x88d (size before relaxing)
 .debug_str     0x00000000000167ee      0x1d5 /home/vboxuser/Desktop/topst/buildtools/gcc-linaro-7.2.1-2017.11-x86_64_arm-eabi/arm-eabi/libc/usr/lib/libc.a(lib_a-mbtowc_r.o)
                                        0xafe (size before relaxing)
 .debug_str     0x00000000000169c3       0xc3 /home/vboxuser/Desktop/topst/buildtools/gcc-linaro-7.2.1-2017.11-x86_64_arm-eabi/arm-eabi/libc/usr/lib/libc.a(lib_a-memchr-stub.o)
                                        0x652 (size before relaxing)
 .debug_str     0x0000000000016a86       0xbf /home/vboxuser/Desktop/topst/buildtools/gcc-linaro-7.2.1-2017.11-x86_64_arm-eabi/arm-eabi/libc/usr/lib/libc.a(lib_a-mlock.o)
                                        0x64d (size before relaxing)
 .debug_str     0x0000000000016b45      0x104 /home/vboxuser/Desktop/topst/buildtools/gcc-linaro-7.2.1-2017.11-x86_64_arm-eabi/arm-eabi/libc/usr/lib/libc.a(lib_a-mprec.o)
                                        0xad4 (size before relaxing)
 .debug_str     0x0000000000016c49      0x1ba /home/vboxuser/Desktop/topst/buildtools/gcc-linaro-7.2.1-2017.11-x86_64_arm-eabi/arm-eabi/libc/usr/lib/libc.a(lib_a-s_frexp.o)
                                        0x6d8 (size before relaxing)
 .debug_str     0x0000000000016e03       0xbe /home/vboxuser/Desktop/topst/buildtools/gcc-linaro-7.2.1-2017.11-x86_64_arm-eabi/arm-eabi/libc/usr/lib/libc.a(lib_a-sbrkr.o)
                                        0x668 (size before relaxing)
 .debug_str     0x0000000000016ec1       0xaf /home/vboxuser/Desktop/topst/buildtools/gcc-linaro-7.2.1-2017.11-x86_64_arm-eabi/arm-eabi/libc/usr/lib/libc.a(lib_a-strcasecmp.o)
                                        0x645 (size before relaxing)
 .debug_str     0x0000000000016f70       0xb6 /home/vboxuser/Desktop/topst/buildtools/gcc-linaro-7.2.1-2017.11-x86_64_arm-eabi/arm-eabi/libc/usr/lib/libc.a(lib_a-strcat.o)
                                        0x634 (size before relaxing)
 .debug_str     0x0000000000017026       0xab /home/vboxuser/Desktop/topst/buildtools/gcc-linaro-7.2.1-2017.11-x86_64_arm-eabi/arm-eabi/libc/usr/lib/libc.a(lib_a-strchr.o)
                                        0x634 (size before relaxing)
 .debug_str     0x00000000000170d1       0xb0 /home/vboxuser/Desktop/topst/buildtools/gcc-linaro-7.2.1-2017.11-x86_64_arm-eabi/arm-eabi/libc/usr/lib/libc.a(lib_a-strcpy.o)
                                        0x62c (size before relaxing)
 .debug_str     0x0000000000017181       0xac /home/vboxuser/Desktop/topst/buildtools/gcc-linaro-7.2.1-2017.11-x86_64_arm-eabi/arm-eabi/libc/usr/lib/libc.a(lib_a-strlcpy.o)
                                        0x62b (size before relaxing)
 .debug_str     0x000000000001722d       0xb0 /home/vboxuser/Desktop/topst/buildtools/gcc-linaro-7.2.1-2017.11-x86_64_arm-eabi/arm-eabi/libc/usr/lib/libc.a(lib_a-strncasecmp.o)
                                        0x64e (size before relaxing)
 .debug_str     0x00000000000172dd       0x30 /home/vboxuser/Desktop/topst/buildtools/gcc-linaro-7.2.1-2017.11-x86_64_arm-eabi/arm-eabi/libc/usr/lib/libc.a(lib_a-svfiprintf.o)
                                        0xf39 (size before relaxing)
 .debug_str     0x000000000001730d      0x47e /home/vboxuser/Desktop/topst/buildtools/gcc-linaro-7.2.1-2017.11-x86_64_arm-eabi/arm-eabi/libc/usr/lib/libc.a(lib_a-syscalls.o)
                                        0xa33 (size before relaxing)
 .debug_str     0x000000000001778b       0xcd /home/vboxuser/Desktop/topst/buildtools/gcc-linaro-7.2.1-2017.11-x86_64_arm-eabi/arm-eabi/libc/usr/lib/libc.a(lib_a-wcsnrtombs.o)
                                        0x9e2 (size before relaxing)
 .debug_str     0x0000000000017858      0x111 /home/vboxuser/Desktop/topst/buildtools/gcc-linaro-7.2.1-2017.11-x86_64_arm-eabi/arm-eabi/libc/usr/lib/libc.a(lib_a-wctomb_r.o)
                                        0xa13 (size before relaxing)
 .debug_str     0x0000000000017969        0xf /home/vboxuser/Desktop/topst/buildtools/gcc-linaro-7.2.1-2017.11-x86_64_arm-eabi/arm-eabi/libc/usr/lib/libc.a(lib_a-callocr.o)
                                        0x7b1 (size before relaxing)
 .debug_str     0x0000000000017978      0x17a /home/vboxuser/Desktop/topst/buildtools/gcc-linaro-7.2.1-2017.11-x86_64_arm-eabi/arm-eabi/libc/usr/lib/libc.a(lib_a-ctype_.o)
                                        0x951 (size before relaxing)
 .debug_str     0x0000000000017af2      0x179 /home/vboxuser/Desktop/topst/buildtools/gcc-linaro-7.2.1-2017.11-x86_64_arm-eabi/arm-eabi/libc/usr/lib/libc.a(lib_a-errno.o)
                                        0x637 (size before relaxing)
 .debug_str     0x0000000000017c6b      0x194 /home/vboxuser/Desktop/topst/buildtools/gcc-linaro-7.2.1-2017.11-x86_64_arm-eabi/arm-eabi/libc/usr/lib/libc.a(lib_a-findfp.o)
                                        0x8b3 (size before relaxing)
 .debug_str     0x0000000000017dff       0xb8 /home/vboxuser/Desktop/topst/buildtools/gcc-linaro-7.2.1-2017.11-x86_64_arm-eabi/arm-eabi/libc/usr/lib/libc.a(lib_a-fwalk.o)
                                        0x79b (size before relaxing)
 .debug_str     0x0000000000017eb7       0xda /home/vboxuser/Desktop/topst/buildtools/gcc-linaro-7.2.1-2017.11-x86_64_arm-eabi/arm-eabi/libc/usr/lib/libc.a(lib_a-getenv_r.o)
                                        0x684 (size before relaxing)
 .debug_str     0x0000000000017f91       0xb5 /home/vboxuser/Desktop/topst/buildtools/gcc-linaro-7.2.1-2017.11-x86_64_arm-eabi/arm-eabi/libc/usr/lib/libc.a(lib_a-memmove.o)
                                        0x971 (size before relaxing)
 .debug_str     0x0000000000018046       0x49 /home/vboxuser/Desktop/topst/buildtools/gcc-linaro-7.2.1-2017.11-x86_64_arm-eabi/arm-eabi/libc/usr/lib/libc.a(lib_a-reallocr.o)
                                        0x844 (size before relaxing)
 .debug_str     0x000000000001808f       0xd5 /home/vboxuser/Desktop/topst/buildtools/gcc-linaro-7.2.1-2017.11-x86_64_arm-eabi/arm-eabi/libc/usr/lib/libc.a(lib_a-reent.o)
                                        0x661 (size before relaxing)
 .debug_str     0x0000000000018164      0x109 /home/vboxuser/Desktop/topst/buildtools/gcc-linaro-7.2.1-2017.11-x86_64_arm-eabi/arm-eabi/libc/usr/lib/libc.a(lib_a-stdio.o)
                                        0x7ef (size before relaxing)
 .debug_str     0x000000000001826d       0xaa /home/vboxuser/Desktop/topst/buildtools/gcc-linaro-7.2.1-2017.11-x86_64_arm-eabi/arm-eabi/libc/usr/lib/libc.a(lib_a-writer.o)
                                        0x665 (size before relaxing)
 .debug_str     0x0000000000018317       0xaa /home/vboxuser/Desktop/topst/buildtools/gcc-linaro-7.2.1-2017.11-x86_64_arm-eabi/arm-eabi/libc/usr/lib/libc.a(lib_a-closer.o)
                                        0x655 (size before relaxing)
 .debug_str     0x00000000000183c1       0xb8 /home/vboxuser/Desktop/topst/buildtools/gcc-linaro-7.2.1-2017.11-x86_64_arm-eabi/arm-eabi/libc/usr/lib/libc.a(lib_a-environ.o)
                                        0x1ce (size before relaxing)
 .debug_str     0x0000000000018479       0xbe /home/vboxuser/Desktop/topst/buildtools/gcc-linaro-7.2.1-2017.11-x86_64_arm-eabi/arm-eabi/libc/usr/lib/libc.a(lib_a-envlock.o)
                                        0x646 (size before relaxing)
 .debug_str     0x0000000000018537       0xd6 /home/vboxuser/Desktop/topst/buildtools/gcc-linaro-7.2.1-2017.11-x86_64_arm-eabi/arm-eabi/libc/usr/lib/libc.a(lib_a-fclose.o)
                                        0x7c0 (size before relaxing)
 .debug_str     0x000000000001860d       0xcc /home/vboxuser/Desktop/topst/buildtools/gcc-linaro-7.2.1-2017.11-x86_64_arm-eabi/arm-eabi/libc/usr/lib/libc.a(lib_a-fflush.o)
                                        0x7d7 (size before relaxing)
 .debug_str     0x00000000000186d9       0xaa /home/vboxuser/Desktop/topst/buildtools/gcc-linaro-7.2.1-2017.11-x86_64_arm-eabi/arm-eabi/libc/usr/lib/libc.a(lib_a-lseekr.o)
                                        0x663 (size before relaxing)
 .debug_str     0x0000000000018783       0xa9 /home/vboxuser/Desktop/topst/buildtools/gcc-linaro-7.2.1-2017.11-x86_64_arm-eabi/arm-eabi/libc/usr/lib/libc.a(lib_a-readr.o)
                                        0x663 (size before relaxing)
 .debug_str     0x000000000001882c     0x13b8 /home/vboxuser/Desktop/topst/buildtools/gcc-linaro-7.2.1-2017.11-x86_64_arm-eabi/arm-eabi/libc/usr/lib/libgcc.a(_udivmoddi4.o)
                                       0x18a8 (size before relaxing)

.comment        0x0000000000000000       0x2d
 .comment       0x0000000000000000       0x2d /home/vboxuser/Desktop/topst/cr5-bsp/sources/build/tcc805x/gcc/tcc805x-freertos-debug/obj/main.o
                                         0x2e (size before relaxing)
 .comment       0x000000000000002d       0x2e /home/vboxuser/Desktop/topst/cr5-bsp/sources/build/tcc805x/gcc/tcc805x-freertos-debug/obj/can_demo.o
 .comment       0x000000000000002d       0x2e /home/vboxuser/Desktop/topst/cr5-bsp/sources/build/tcc805x/gcc/tcc805x-freertos-debug/obj/console.o
 .comment       0x000000000000002d       0x2e /home/vboxuser/Desktop/topst/cr5-bsp/sources/build/tcc805x/gcc/tcc805x-freertos-debug/obj/fwug.o
 .comment       0x000000000000002d       0x2e /home/vboxuser/Desktop/topst/cr5-bsp/sources/build/tcc805x/gcc/tcc805x-freertos-debug/obj/key_adc.o
 .comment       0x000000000000002d       0x2e /home/vboxuser/Desktop/topst/cr5-bsp/sources/build/tcc805x/gcc/tcc805x-freertos-debug/obj/key_gpio.o
 .comment       0x000000000000002d       0x2e /home/vboxuser/Desktop/topst/cr5-bsp/sources/build/tcc805x/gcc/tcc805x-freertos-debug/obj/key_i2c.o
 .comment       0x000000000000002d       0x2e /home/vboxuser/Desktop/topst/cr5-bsp/sources/build/tcc805x/gcc/tcc805x-freertos-debug/obj/key.o
 .comment       0x000000000000002d       0x2e /home/vboxuser/Desktop/topst/cr5-bsp/sources/build/tcc805x/gcc/tcc805x-freertos-debug/obj/system_monitoring.o
 .comment       0x000000000000002d       0x2e /home/vboxuser/Desktop/topst/cr5-bsp/sources/build/tcc805x/gcc/tcc805x-freertos-debug/obj/bootctrl.o
 .comment       0x000000000000002d       0x2e /home/vboxuser/Desktop/topst/cr5-bsp/sources/build/tcc805x/gcc/tcc805x-freertos-debug/obj/reset_demo.o
 .comment       0x000000000000002d       0x2e /home/vboxuser/Desktop/topst/cr5-bsp/sources/build/tcc805x/gcc/tcc805x-freertos-debug/obj/adc_test.o
 .comment       0x000000000000002d       0x2e /home/vboxuser/Desktop/topst/cr5-bsp/sources/build/tcc805x/gcc/tcc805x-freertos-debug/obj/dse_test.o
 .comment       0x000000000000002d       0x2e /home/vboxuser/Desktop/topst/cr5-bsp/sources/build/tcc805x/gcc/tcc805x-freertos-debug/obj/fmu_test.o
 .comment       0x000000000000002d       0x2e /home/vboxuser/Desktop/topst/cr5-bsp/sources/build/tcc805x/gcc/tcc805x-freertos-debug/obj/gdma_test.o
 .comment       0x000000000000002d       0x2e /home/vboxuser/Desktop/topst/cr5-bsp/sources/build/tcc805x/gcc/tcc805x-freertos-debug/obj/gic_test.o
 .comment       0x000000000000002d       0x2e /home/vboxuser/Desktop/topst/cr5-bsp/sources/build/tcc805x/gcc/tcc805x-freertos-debug/obj/gpio_test.o
 .comment       0x000000000000002d       0x2e /home/vboxuser/Desktop/topst/cr5-bsp/sources/build/tcc805x/gcc/tcc805x-freertos-debug/obj/gpsb_test.o
 .comment       0x000000000000002d       0x2e /home/vboxuser/Desktop/topst/cr5-bsp/sources/build/tcc805x/gcc/tcc805x-freertos-debug/obj/hsm_test.o
 .comment       0x000000000000002d       0x2e /home/vboxuser/Desktop/topst/cr5-bsp/sources/build/tcc805x/gcc/tcc805x-freertos-debug/obj/i2c_test.o
 .comment       0x000000000000002d       0x2e /home/vboxuser/Desktop/topst/cr5-bsp/sources/build/tcc805x/gcc/tcc805x-freertos-debug/obj/ictc_test.o
 .comment       0x000000000000002d       0x2e /home/vboxuser/Desktop/topst/cr5-bsp/sources/build/tcc805x/gcc/tcc805x-freertos-debug/obj/lin_test.o
 .comment       0x000000000000002d       0x2e /home/vboxuser/Desktop/topst/cr5-bsp/sources/build/tcc805x/gcc/tcc805x-freertos-debug/obj/pdm_test.o
 .comment       0x000000000000002d       0x2e /home/vboxuser/Desktop/topst/cr5-bsp/sources/build/tcc805x/gcc/tcc805x-freertos-debug/obj/pmio_test.o
 .comment       0x000000000000002d       0x2e /home/vboxuser/Desktop/topst/cr5-bsp/sources/build/tcc805x/gcc/tcc805x-freertos-debug/obj/timer_test.o
 .comment       0x000000000000002d       0x2e /home/vboxuser/Desktop/topst/cr5-bsp/sources/build/tcc805x/gcc/tcc805x-freertos-debug/obj/wdt_test.o
 .comment       0x000000000000002d       0x2e /home/vboxuser/Desktop/topst/cr5-bsp/sources/build/tcc805x/gcc/tcc805x-freertos-debug/obj/pwm_test.o
 .comment       0x000000000000002d       0x2e /home/vboxuser/Desktop/topst/cr5-bsp/sources/build/tcc805x/gcc/tcc805x-freertos-debug/obj/Motor_System.o
 .comment       0x000000000000002d       0x2e /home/vboxuser/Desktop/topst/cr5-bsp/sources/build/tcc805x/gcc/tcc805x-freertos-debug/obj/mptool.o
 .comment       0x000000000000002d       0x2e /home/vboxuser/Desktop/topst/cr5-bsp/sources/build/tcc805x/gcc/tcc805x-freertos-debug/obj/ipc_os.o
 .comment       0x000000000000002d       0x2e /home/vboxuser/Desktop/topst/cr5-bsp/sources/build/tcc805x/gcc/tcc805x-freertos-debug/obj/ipc_buffer.o
 .comment       0x000000000000002d       0x2e /home/vboxuser/Desktop/topst/cr5-bsp/sources/build/tcc805x/gcc/tcc805x-freertos-debug/obj/ipc_cmd.o
 .comment       0x000000000000002d       0x2e /home/vboxuser/Desktop/topst/cr5-bsp/sources/build/tcc805x/gcc/tcc805x-freertos-debug/obj/ipc_ctl.o
 .comment       0x000000000000002d       0x2e /home/vboxuser/Desktop/topst/cr5-bsp/sources/build/tcc805x/gcc/tcc805x-freertos-debug/obj/ipc_parser.o
 .comment       0x000000000000002d       0x2e /home/vboxuser/Desktop/topst/cr5-bsp/sources/build/tcc805x/gcc/tcc805x-freertos-debug/obj/ipc_api.o
 .comment       0x000000000000002d       0x2e /home/vboxuser/Desktop/topst/cr5-bsp/sources/build/tcc805x/gcc/tcc805x-freertos-debug/obj/ipc.o
 .comment       0x000000000000002d       0x2e /home/vboxuser/Desktop/topst/cr5-bsp/sources/build/tcc805x/gcc/tcc805x-freertos-debug/obj/lin.o
 .comment       0x000000000000002d       0x2e /home/vboxuser/Desktop/topst/cr5-bsp/sources/build/tcc805x/gcc/tcc805x-freertos-debug/obj/sdm.o
 .comment       0x000000000000002d       0x2e /home/vboxuser/Desktop/topst/cr5-bsp/sources/build/tcc805x/gcc/tcc805x-freertos-debug/obj/hsm_manager.o
 .comment       0x000000000000002d       0x2e /home/vboxuser/Desktop/topst/cr5-bsp/sources/build/tcc805x/gcc/tcc805x-freertos-debug/obj/adc.o
 .comment       0x000000000000002d       0x2e /home/vboxuser/Desktop/topst/cr5-bsp/sources/build/tcc805x/gcc/tcc805x-freertos-debug/obj/can.o
 .comment       0x000000000000002d       0x2e /home/vboxuser/Desktop/topst/cr5-bsp/sources/build/tcc805x/gcc/tcc805x-freertos-debug/obj/can_drv.o
 .comment       0x000000000000002d       0x2e /home/vboxuser/Desktop/topst/cr5-bsp/sources/build/tcc805x/gcc/tcc805x-freertos-debug/obj/can_msg.o
 .comment       0x000000000000002d       0x2e /home/vboxuser/Desktop/topst/cr5-bsp/sources/build/tcc805x/gcc/tcc805x-freertos-debug/obj/can_par.o
 .comment       0x000000000000002d       0x2e /home/vboxuser/Desktop/topst/cr5-bsp/sources/build/tcc805x/gcc/tcc805x-freertos-debug/obj/can_porting.o
 .comment       0x000000000000002d       0x2e /home/vboxuser/Desktop/topst/cr5-bsp/sources/build/tcc805x/gcc/tcc805x-freertos-debug/obj/clock_dev.o
 .comment       0x000000000000002d       0x2e /home/vboxuser/Desktop/topst/cr5-bsp/sources/build/tcc805x/gcc/tcc805x-freertos-debug/obj/debug.o
 .comment       0x000000000000002d       0x2e /home/vboxuser/Desktop/topst/cr5-bsp/sources/build/tcc805x/gcc/tcc805x-freertos-debug/obj/bsp.o
 .comment       0x000000000000002d       0x2e /home/vboxuser/Desktop/topst/cr5-bsp/sources/build/tcc805x/gcc/tcc805x-freertos-debug/obj/fmu.o
 .comment       0x000000000000002d       0x2e /home/vboxuser/Desktop/topst/cr5-bsp/sources/build/tcc805x/gcc/tcc805x-freertos-debug/obj/gdma.o
 .comment       0x000000000000002d       0x2e /home/vboxuser/Desktop/topst/cr5-bsp/sources/build/tcc805x/gcc/tcc805x-freertos-debug/obj/gic.o
 .comment       0x000000000000002d       0x2e /home/vboxuser/Desktop/topst/cr5-bsp/sources/build/tcc805x/gcc/tcc805x-freertos-debug/obj/gpio.o
 .comment       0x000000000000002d       0x2e /home/vboxuser/Desktop/topst/cr5-bsp/sources/build/tcc805x/gcc/tcc805x-freertos-debug/obj/i2c.o
 .comment       0x000000000000002d       0x2e /home/vboxuser/Desktop/topst/cr5-bsp/sources/build/tcc805x/gcc/tcc805x-freertos-debug/obj/i2c_reg.o
 .comment       0x000000000000002d       0x2e /home/vboxuser/Desktop/topst/cr5-bsp/sources/build/tcc805x/gcc/tcc805x-freertos-debug/obj/ictc.o
 .comment       0x000000000000002d       0x2e /home/vboxuser/Desktop/topst/cr5-bsp/sources/build/tcc805x/gcc/tcc805x-freertos-debug/obj/mbox_phy.o
 .comment       0x000000000000002d       0x2e /home/vboxuser/Desktop/topst/cr5-bsp/sources/build/tcc805x/gcc/tcc805x-freertos-debug/obj/mbox_dev.o
 .comment       0x000000000000002d       0x2e /home/vboxuser/Desktop/topst/cr5-bsp/sources/build/tcc805x/gcc/tcc805x-freertos-debug/obj/mbox.o
 .comment       0x000000000000002d       0x2e /home/vboxuser/Desktop/topst/cr5-bsp/sources/build/tcc805x/gcc/tcc805x-freertos-debug/obj/mpu.o
 .comment       0x000000000000002d       0x2e /home/vboxuser/Desktop/topst/cr5-bsp/sources/build/tcc805x/gcc/tcc805x-freertos-debug/obj/pdm.o
 .comment       0x000000000000002d       0x2e /home/vboxuser/Desktop/topst/cr5-bsp/sources/build/tcc805x/gcc/tcc805x-freertos-debug/obj/pmio_dev.o
 .comment       0x000000000000002d       0x2e /home/vboxuser/Desktop/topst/cr5-bsp/sources/build/tcc805x/gcc/tcc805x-freertos-debug/obj/gpsb.o
 .comment       0x000000000000002d       0x2e /home/vboxuser/Desktop/topst/cr5-bsp/sources/build/tcc805x/gcc/tcc805x-freertos-debug/obj/gpsb_reg.o
 .comment       0x000000000000002d       0x2e /home/vboxuser/Desktop/topst/cr5-bsp/sources/build/tcc805x/gcc/tcc805x-freertos-debug/obj/timer.o
 .comment       0x000000000000002d       0x2e /home/vboxuser/Desktop/topst/cr5-bsp/sources/build/tcc805x/gcc/tcc805x-freertos-debug/obj/uart.o
 .comment       0x000000000000002d       0x2e /home/vboxuser/Desktop/topst/cr5-bsp/sources/build/tcc805x/gcc/tcc805x-freertos-debug/obj/udma.o
 .comment       0x000000000000002d       0x2e /home/vboxuser/Desktop/topst/cr5-bsp/sources/build/tcc805x/gcc/tcc805x-freertos-debug/obj/wdt.o
 .comment       0x000000000000002d       0x2e /home/vboxuser/Desktop/topst/cr5-bsp/sources/build/tcc805x/gcc/tcc805x-freertos-debug/obj/dse.o
 .comment       0x000000000000002d       0x2e /home/vboxuser/Desktop/topst/cr5-bsp/sources/build/tcc805x/gcc/tcc805x-freertos-debug/obj/midf.o
 .comment       0x000000000000002d       0x2e /home/vboxuser/Desktop/topst/cr5-bsp/sources/build/tcc805x/gcc/tcc805x-freertos-debug/obj/pmu_reset.o
 .comment       0x000000000000002d       0x2e /home/vboxuser/Desktop/topst/cr5-bsp/sources/build/tcc805x/gcc/tcc805x-freertos-debug/obj/tasks.o
 .comment       0x000000000000002d       0x2e /home/vboxuser/Desktop/topst/cr5-bsp/sources/build/tcc805x/gcc/tcc805x-freertos-debug/obj/list.o
 .comment       0x000000000000002d       0x2e /home/vboxuser/Desktop/topst/cr5-bsp/sources/build/tcc805x/gcc/tcc805x-freertos-debug/obj/queue.o
 .comment       0x000000000000002d       0x2e /home/vboxuser/Desktop/topst/cr5-bsp/sources/build/tcc805x/gcc/tcc805x-freertos-debug/obj/event_groups.o
 .comment       0x000000000000002d       0x2e /home/vboxuser/Desktop/topst/cr5-bsp/sources/build/tcc805x/gcc/tcc805x-freertos-debug/obj/timers.o
 .comment       0x000000000000002d       0x2e /home/vboxuser/Desktop/topst/cr5-bsp/sources/build/tcc805x/gcc/tcc805x-freertos-debug/obj/stream_buffer.o
 .comment       0x000000000000002d       0x2e /home/vboxuser/Desktop/topst/cr5-bsp/sources/build/tcc805x/gcc/tcc805x-freertos-debug/obj/port.o
 .comment       0x000000000000002d       0x2e /home/vboxuser/Desktop/topst/cr5-bsp/sources/build/tcc805x/gcc/tcc805x-freertos-debug/obj/heap_5.o
 .comment       0x000000000000002d       0x2e /home/vboxuser/Desktop/topst/cr5-bsp/sources/build/tcc805x/gcc/tcc805x-freertos-debug/obj/sal_api.o
 .comment       0x000000000000002d       0x2e /home/vboxuser/Desktop/topst/cr5-bsp/sources/build/tcc805x/gcc/tcc805x-freertos-debug/obj/sal_freertos_impl.o
 .comment       0x000000000000002d       0x2e /home/vboxuser/Desktop/topst/buildtools/gcc-linaro-7.2.1-2017.11-x86_64_arm-eabi/arm-eabi/libc/usr/lib/libc.a(lib_a-atoi.o)
 .comment       0x000000000000002d       0x2e /home/vboxuser/Desktop/topst/buildtools/gcc-linaro-7.2.1-2017.11-x86_64_arm-eabi/arm-eabi/libc/usr/lib/libc.a(lib_a-atol.o)
 .comment       0x000000000000002d       0x2e /home/vboxuser/Desktop/topst/buildtools/gcc-linaro-7.2.1-2017.11-x86_64_arm-eabi/arm-eabi/libc/usr/lib/libc.a(lib_a-memcmp.o)
 .comment       0x000000000000002d       0x2e /home/vboxuser/Desktop/topst/buildtools/gcc-linaro-7.2.1-2017.11-x86_64_arm-eabi/arm-eabi/libc/usr/lib/libc.a(lib_a-memcpy-stub.o)
 .comment       0x000000000000002d       0x2e /home/vboxuser/Desktop/topst/buildtools/gcc-linaro-7.2.1-2017.11-x86_64_arm-eabi/arm-eabi/libc/usr/lib/libc.a(lib_a-memset.o)
 .comment       0x000000000000002d       0x2e /home/vboxuser/Desktop/topst/buildtools/gcc-linaro-7.2.1-2017.11-x86_64_arm-eabi/arm-eabi/libc/usr/lib/libc.a(lib_a-snprintf.o)
 .comment       0x000000000000002d       0x2e /home/vboxuser/Desktop/topst/buildtools/gcc-linaro-7.2.1-2017.11-x86_64_arm-eabi/arm-eabi/libc/usr/lib/libc.a(lib_a-strlen-stub.o)
 .comment       0x000000000000002d       0x2e /home/vboxuser/Desktop/topst/buildtools/gcc-linaro-7.2.1-2017.11-x86_64_arm-eabi/arm-eabi/libc/usr/lib/libc.a(lib_a-strncmp.o)
 .comment       0x000000000000002d       0x2e /home/vboxuser/Desktop/topst/buildtools/gcc-linaro-7.2.1-2017.11-x86_64_arm-eabi/arm-eabi/libc/usr/lib/libc.a(lib_a-strncpy.o)
 .comment       0x000000000000002d       0x2e /home/vboxuser/Desktop/topst/buildtools/gcc-linaro-7.2.1-2017.11-x86_64_arm-eabi/arm-eabi/libc/usr/lib/libc.a(lib_a-strnlen.o)
 .comment       0x000000000000002d       0x2e /home/vboxuser/Desktop/topst/buildtools/gcc-linaro-7.2.1-2017.11-x86_64_arm-eabi/arm-eabi/libc/usr/lib/libc.a(lib_a-strtol.o)
 .comment       0x000000000000002d       0x2e /home/vboxuser/Desktop/topst/buildtools/gcc-linaro-7.2.1-2017.11-x86_64_arm-eabi/arm-eabi/libc/usr/lib/libc.a(lib_a-strtoul.o)
 .comment       0x000000000000002d       0x2e /home/vboxuser/Desktop/topst/buildtools/gcc-linaro-7.2.1-2017.11-x86_64_arm-eabi/arm-eabi/libc/usr/lib/libc.a(lib_a-svfprintf.o)
 .comment       0x000000000000002d       0x2e /home/vboxuser/Desktop/topst/buildtools/gcc-linaro-7.2.1-2017.11-x86_64_arm-eabi/arm-eabi/libc/usr/lib/libc.a(lib_a-wcrtomb.o)
 .comment       0x000000000000002d       0x2e /home/vboxuser/Desktop/topst/buildtools/gcc-linaro-7.2.1-2017.11-x86_64_arm-eabi/arm-eabi/libc/usr/lib/libc.a(lib_a-wcsrtombs.o)
 .comment       0x000000000000002d       0x2e /home/vboxuser/Desktop/topst/buildtools/gcc-linaro-7.2.1-2017.11-x86_64_arm-eabi/arm-eabi/libc/usr/lib/libc.a(lib_a-dtoa.o)
 .comment       0x000000000000002d       0x2e /home/vboxuser/Desktop/topst/buildtools/gcc-linaro-7.2.1-2017.11-x86_64_arm-eabi/arm-eabi/libc/usr/lib/libc.a(lib_a-freer.o)
 .comment       0x000000000000002d       0x2e /home/vboxuser/Desktop/topst/buildtools/gcc-linaro-7.2.1-2017.11-x86_64_arm-eabi/arm-eabi/libc/usr/lib/libc.a(lib_a-impure.o)
 .comment       0x000000000000002d       0x2e /home/vboxuser/Desktop/topst/buildtools/gcc-linaro-7.2.1-2017.11-x86_64_arm-eabi/arm-eabi/libc/usr/lib/libc.a(lib_a-locale.o)
 .comment       0x000000000000002d       0x2e /home/vboxuser/Desktop/topst/buildtools/gcc-linaro-7.2.1-2017.11-x86_64_arm-eabi/arm-eabi/libc/usr/lib/libc.a(lib_a-localeconv.o)
 .comment       0x000000000000002d       0x2e /home/vboxuser/Desktop/topst/buildtools/gcc-linaro-7.2.1-2017.11-x86_64_arm-eabi/arm-eabi/libc/usr/lib/libc.a(lib_a-mallocr.o)
 .comment       0x000000000000002d       0x2e /home/vboxuser/Desktop/topst/buildtools/gcc-linaro-7.2.1-2017.11-x86_64_arm-eabi/arm-eabi/libc/usr/lib/libc.a(lib_a-mbtowc_r.o)
 .comment       0x000000000000002d       0x2e /home/vboxuser/Desktop/topst/buildtools/gcc-linaro-7.2.1-2017.11-x86_64_arm-eabi/arm-eabi/libc/usr/lib/libc.a(lib_a-memchr-stub.o)
 .comment       0x000000000000002d       0x2e /home/vboxuser/Desktop/topst/buildtools/gcc-linaro-7.2.1-2017.11-x86_64_arm-eabi/arm-eabi/libc/usr/lib/libc.a(lib_a-mlock.o)
 .comment       0x000000000000002d       0x2e /home/vboxuser/Desktop/topst/buildtools/gcc-linaro-7.2.1-2017.11-x86_64_arm-eabi/arm-eabi/libc/usr/lib/libc.a(lib_a-mprec.o)
 .comment       0x000000000000002d       0x2e /home/vboxuser/Desktop/topst/buildtools/gcc-linaro-7.2.1-2017.11-x86_64_arm-eabi/arm-eabi/libc/usr/lib/libc.a(lib_a-s_frexp.o)
 .comment       0x000000000000002d       0x2e /home/vboxuser/Desktop/topst/buildtools/gcc-linaro-7.2.1-2017.11-x86_64_arm-eabi/arm-eabi/libc/usr/lib/libc.a(lib_a-sbrkr.o)
 .comment       0x000000000000002d       0x2e /home/vboxuser/Desktop/topst/buildtools/gcc-linaro-7.2.1-2017.11-x86_64_arm-eabi/arm-eabi/libc/usr/lib/libc.a(lib_a-strcasecmp.o)
 .comment       0x000000000000002d       0x2e /home/vboxuser/Desktop/topst/buildtools/gcc-linaro-7.2.1-2017.11-x86_64_arm-eabi/arm-eabi/libc/usr/lib/libc.a(lib_a-strcat.o)
 .comment       0x000000000000002d       0x2e /home/vboxuser/Desktop/topst/buildtools/gcc-linaro-7.2.1-2017.11-x86_64_arm-eabi/arm-eabi/libc/usr/lib/libc.a(lib_a-strchr.o)
 .comment       0x000000000000002d       0x2e /home/vboxuser/Desktop/topst/buildtools/gcc-linaro-7.2.1-2017.11-x86_64_arm-eabi/arm-eabi/libc/usr/lib/libc.a(lib_a-strcpy.o)
 .comment       0x000000000000002d       0x2e /home/vboxuser/Desktop/topst/buildtools/gcc-linaro-7.2.1-2017.11-x86_64_arm-eabi/arm-eabi/libc/usr/lib/libc.a(lib_a-strlcpy.o)
 .comment       0x000000000000002d       0x2e /home/vboxuser/Desktop/topst/buildtools/gcc-linaro-7.2.1-2017.11-x86_64_arm-eabi/arm-eabi/libc/usr/lib/libc.a(lib_a-strncasecmp.o)
 .comment       0x000000000000002d       0x2e /home/vboxuser/Desktop/topst/buildtools/gcc-linaro-7.2.1-2017.11-x86_64_arm-eabi/arm-eabi/libc/usr/lib/libc.a(lib_a-svfiprintf.o)
 .comment       0x000000000000002d       0x2e /home/vboxuser/Desktop/topst/buildtools/gcc-linaro-7.2.1-2017.11-x86_64_arm-eabi/arm-eabi/libc/usr/lib/libc.a(lib_a-syscalls.o)
 .comment       0x000000000000002d       0x2e /home/vboxuser/Desktop/topst/buildtools/gcc-linaro-7.2.1-2017.11-x86_64_arm-eabi/arm-eabi/libc/usr/lib/libc.a(lib_a-wcsnrtombs.o)
 .comment       0x000000000000002d       0x2e /home/vboxuser/Desktop/topst/buildtools/gcc-linaro-7.2.1-2017.11-x86_64_arm-eabi/arm-eabi/libc/usr/lib/libc.a(lib_a-wctomb_r.o)
 .comment       0x000000000000002d       0x2e /home/vboxuser/Desktop/topst/buildtools/gcc-linaro-7.2.1-2017.11-x86_64_arm-eabi/arm-eabi/libc/usr/lib/libc.a(lib_a-callocr.o)
 .comment       0x000000000000002d       0x2e /home/vboxuser/Desktop/topst/buildtools/gcc-linaro-7.2.1-2017.11-x86_64_arm-eabi/arm-eabi/libc/usr/lib/libc.a(lib_a-ctype_.o)
 .comment       0x000000000000002d       0x2e /home/vboxuser/Desktop/topst/buildtools/gcc-linaro-7.2.1-2017.11-x86_64_arm-eabi/arm-eabi/libc/usr/lib/libc.a(lib_a-errno.o)
 .comment       0x000000000000002d       0x2e /home/vboxuser/Desktop/topst/buildtools/gcc-linaro-7.2.1-2017.11-x86_64_arm-eabi/arm-eabi/libc/usr/lib/libc.a(lib_a-findfp.o)
 .comment       0x000000000000002d       0x2e /home/vboxuser/Desktop/topst/buildtools/gcc-linaro-7.2.1-2017.11-x86_64_arm-eabi/arm-eabi/libc/usr/lib/libc.a(lib_a-fwalk.o)
 .comment       0x000000000000002d       0x2e /home/vboxuser/Desktop/topst/buildtools/gcc-linaro-7.2.1-2017.11-x86_64_arm-eabi/arm-eabi/libc/usr/lib/libc.a(lib_a-getenv_r.o)
 .comment       0x000000000000002d       0x2e /home/vboxuser/Desktop/topst/buildtools/gcc-linaro-7.2.1-2017.11-x86_64_arm-eabi/arm-eabi/libc/usr/lib/libc.a(lib_a-memmove.o)
 .comment       0x000000000000002d       0x2e /home/vboxuser/Desktop/topst/buildtools/gcc-linaro-7.2.1-2017.11-x86_64_arm-eabi/arm-eabi/libc/usr/lib/libc.a(lib_a-reallocr.o)
 .comment       0x000000000000002d       0x2e /home/vboxuser/Desktop/topst/buildtools/gcc-linaro-7.2.1-2017.11-x86_64_arm-eabi/arm-eabi/libc/usr/lib/libc.a(lib_a-reent.o)
 .comment       0x000000000000002d       0x2e /home/vboxuser/Desktop/topst/buildtools/gcc-linaro-7.2.1-2017.11-x86_64_arm-eabi/arm-eabi/libc/usr/lib/libc.a(lib_a-stdio.o)
 .comment       0x000000000000002d       0x2e /home/vboxuser/Desktop/topst/buildtools/gcc-linaro-7.2.1-2017.11-x86_64_arm-eabi/arm-eabi/libc/usr/lib/libc.a(lib_a-writer.o)
 .comment       0x000000000000002d       0x2e /home/vboxuser/Desktop/topst/buildtools/gcc-linaro-7.2.1-2017.11-x86_64_arm-eabi/arm-eabi/libc/usr/lib/libc.a(lib_a-closer.o)
 .comment       0x000000000000002d       0x2e /home/vboxuser/Desktop/topst/buildtools/gcc-linaro-7.2.1-2017.11-x86_64_arm-eabi/arm-eabi/libc/usr/lib/libc.a(lib_a-environ.o)
 .comment       0x000000000000002d       0x2e /home/vboxuser/Desktop/topst/buildtools/gcc-linaro-7.2.1-2017.11-x86_64_arm-eabi/arm-eabi/libc/usr/lib/libc.a(lib_a-envlock.o)
 .comment       0x000000000000002d       0x2e /home/vboxuser/Desktop/topst/buildtools/gcc-linaro-7.2.1-2017.11-x86_64_arm-eabi/arm-eabi/libc/usr/lib/libc.a(lib_a-fclose.o)
 .comment       0x000000000000002d       0x2e /home/vboxuser/Desktop/topst/buildtools/gcc-linaro-7.2.1-2017.11-x86_64_arm-eabi/arm-eabi/libc/usr/lib/libc.a(lib_a-fflush.o)
 .comment       0x000000000000002d       0x2e /home/vboxuser/Desktop/topst/buildtools/gcc-linaro-7.2.1-2017.11-x86_64_arm-eabi/arm-eabi/libc/usr/lib/libc.a(lib_a-lseekr.o)
 .comment       0x000000000000002d       0x2e /home/vboxuser/Desktop/topst/buildtools/gcc-linaro-7.2.1-2017.11-x86_64_arm-eabi/arm-eabi/libc/usr/lib/libc.a(lib_a-readr.o)
 .comment       0x000000000000002d       0x2e /home/vboxuser/Desktop/topst/buildtools/gcc-linaro-7.2.1-2017.11-x86_64_arm-eabi/arm-eabi/libc/usr/lib/libgcc.a(_udivmoddi4.o)

.ARM.attributes
                0x0000000000000000       0x35
 .ARM.attributes
                0x0000000000000000       0x37 /home/vboxuser/Desktop/topst/cr5-bsp/sources/build/tcc805x/gcc/tcc805x-freertos-debug/obj/main.o
 .ARM.attributes
                0x0000000000000037       0x37 /home/vboxuser/Desktop/topst/cr5-bsp/sources/build/tcc805x/gcc/tcc805x-freertos-debug/obj/can_demo.o
 .ARM.attributes
                0x000000000000006e       0x37 /home/vboxuser/Desktop/topst/cr5-bsp/sources/build/tcc805x/gcc/tcc805x-freertos-debug/obj/console.o
 .ARM.attributes
                0x00000000000000a5       0x37 /home/vboxuser/Desktop/topst/cr5-bsp/sources/build/tcc805x/gcc/tcc805x-freertos-debug/obj/fwug.o
 .ARM.attributes
                0x00000000000000dc       0x37 /home/vboxuser/Desktop/topst/cr5-bsp/sources/build/tcc805x/gcc/tcc805x-freertos-debug/obj/key_adc.o
 .ARM.attributes
                0x0000000000000113       0x37 /home/vboxuser/Desktop/topst/cr5-bsp/sources/build/tcc805x/gcc/tcc805x-freertos-debug/obj/key_gpio.o
 .ARM.attributes
                0x000000000000014a       0x37 /home/vboxuser/Desktop/topst/cr5-bsp/sources/build/tcc805x/gcc/tcc805x-freertos-debug/obj/key_i2c.o
 .ARM.attributes
                0x0000000000000181       0x37 /home/vboxuser/Desktop/topst/cr5-bsp/sources/build/tcc805x/gcc/tcc805x-freertos-debug/obj/key.o
 .ARM.attributes
                0x00000000000001b8       0x37 /home/vboxuser/Desktop/topst/cr5-bsp/sources/build/tcc805x/gcc/tcc805x-freertos-debug/obj/system_monitoring.o
 .ARM.attributes
                0x00000000000001ef       0x37 /home/vboxuser/Desktop/topst/cr5-bsp/sources/build/tcc805x/gcc/tcc805x-freertos-debug/obj/bootctrl.o
 .ARM.attributes
                0x0000000000000226       0x37 /home/vboxuser/Desktop/topst/cr5-bsp/sources/build/tcc805x/gcc/tcc805x-freertos-debug/obj/reset_demo.o
 .ARM.attributes
                0x000000000000025d       0x37 /home/vboxuser/Desktop/topst/cr5-bsp/sources/build/tcc805x/gcc/tcc805x-freertos-debug/obj/adc_test.o
 .ARM.attributes
                0x0000000000000294       0x37 /home/vboxuser/Desktop/topst/cr5-bsp/sources/build/tcc805x/gcc/tcc805x-freertos-debug/obj/dse_test.o
 .ARM.attributes
                0x00000000000002cb       0x37 /home/vboxuser/Desktop/topst/cr5-bsp/sources/build/tcc805x/gcc/tcc805x-freertos-debug/obj/fmu_test.o
 .ARM.attributes
                0x0000000000000302       0x37 /home/vboxuser/Desktop/topst/cr5-bsp/sources/build/tcc805x/gcc/tcc805x-freertos-debug/obj/gdma_test.o
 .ARM.attributes
                0x0000000000000339       0x37 /home/vboxuser/Desktop/topst/cr5-bsp/sources/build/tcc805x/gcc/tcc805x-freertos-debug/obj/gic_test.o
 .ARM.attributes
                0x0000000000000370       0x37 /home/vboxuser/Desktop/topst/cr5-bsp/sources/build/tcc805x/gcc/tcc805x-freertos-debug/obj/gpio_test.o
 .ARM.attributes
                0x00000000000003a7       0x37 /home/vboxuser/Desktop/topst/cr5-bsp/sources/build/tcc805x/gcc/tcc805x-freertos-debug/obj/gpsb_test.o
 .ARM.attributes
                0x00000000000003de       0x37 /home/vboxuser/Desktop/topst/cr5-bsp/sources/build/tcc805x/gcc/tcc805x-freertos-debug/obj/hsm_test.o
 .ARM.attributes
                0x0000000000000415       0x37 /home/vboxuser/Desktop/topst/cr5-bsp/sources/build/tcc805x/gcc/tcc805x-freertos-debug/obj/i2c_test.o
 .ARM.attributes
                0x000000000000044c       0x37 /home/vboxuser/Desktop/topst/cr5-bsp/sources/build/tcc805x/gcc/tcc805x-freertos-debug/obj/ictc_test.o
 .ARM.attributes
                0x0000000000000483       0x37 /home/vboxuser/Desktop/topst/cr5-bsp/sources/build/tcc805x/gcc/tcc805x-freertos-debug/obj/lin_test.o
 .ARM.attributes
                0x00000000000004ba       0x37 /home/vboxuser/Desktop/topst/cr5-bsp/sources/build/tcc805x/gcc/tcc805x-freertos-debug/obj/pdm_test.o
 .ARM.attributes
                0x00000000000004f1       0x37 /home/vboxuser/Desktop/topst/cr5-bsp/sources/build/tcc805x/gcc/tcc805x-freertos-debug/obj/pmio_test.o
 .ARM.attributes
                0x0000000000000528       0x37 /home/vboxuser/Desktop/topst/cr5-bsp/sources/build/tcc805x/gcc/tcc805x-freertos-debug/obj/timer_test.o
 .ARM.attributes
                0x000000000000055f       0x37 /home/vboxuser/Desktop/topst/cr5-bsp/sources/build/tcc805x/gcc/tcc805x-freertos-debug/obj/wdt_test.o
 .ARM.attributes
                0x0000000000000596       0x37 /home/vboxuser/Desktop/topst/cr5-bsp/sources/build/tcc805x/gcc/tcc805x-freertos-debug/obj/pwm_test.o
 .ARM.attributes
                0x00000000000005cd       0x37 /home/vboxuser/Desktop/topst/cr5-bsp/sources/build/tcc805x/gcc/tcc805x-freertos-debug/obj/Motor_System.o
 .ARM.attributes
                0x0000000000000604       0x37 /home/vboxuser/Desktop/topst/cr5-bsp/sources/build/tcc805x/gcc/tcc805x-freertos-debug/obj/mptool.o
 .ARM.attributes
                0x000000000000063b       0x37 /home/vboxuser/Desktop/topst/cr5-bsp/sources/build/tcc805x/gcc/tcc805x-freertos-debug/obj/ipc_os.o
 .ARM.attributes
                0x0000000000000672       0x37 /home/vboxuser/Desktop/topst/cr5-bsp/sources/build/tcc805x/gcc/tcc805x-freertos-debug/obj/ipc_buffer.o
 .ARM.attributes
                0x00000000000006a9       0x37 /home/vboxuser/Desktop/topst/cr5-bsp/sources/build/tcc805x/gcc/tcc805x-freertos-debug/obj/ipc_cmd.o
 .ARM.attributes
                0x00000000000006e0       0x37 /home/vboxuser/Desktop/topst/cr5-bsp/sources/build/tcc805x/gcc/tcc805x-freertos-debug/obj/ipc_ctl.o
 .ARM.attributes
                0x0000000000000717       0x37 /home/vboxuser/Desktop/topst/cr5-bsp/sources/build/tcc805x/gcc/tcc805x-freertos-debug/obj/ipc_parser.o
 .ARM.attributes
                0x000000000000074e       0x37 /home/vboxuser/Desktop/topst/cr5-bsp/sources/build/tcc805x/gcc/tcc805x-freertos-debug/obj/ipc_api.o
 .ARM.attributes
                0x0000000000000785       0x37 /home/vboxuser/Desktop/topst/cr5-bsp/sources/build/tcc805x/gcc/tcc805x-freertos-debug/obj/ipc.o
 .ARM.attributes
                0x00000000000007bc       0x37 /home/vboxuser/Desktop/topst/cr5-bsp/sources/build/tcc805x/gcc/tcc805x-freertos-debug/obj/lin.o
 .ARM.attributes
                0x00000000000007f3       0x37 /home/vboxuser/Desktop/topst/cr5-bsp/sources/build/tcc805x/gcc/tcc805x-freertos-debug/obj/sdm.o
 .ARM.attributes
                0x000000000000082a       0x37 /home/vboxuser/Desktop/topst/cr5-bsp/sources/build/tcc805x/gcc/tcc805x-freertos-debug/obj/hsm_manager.o
 .ARM.attributes
                0x0000000000000861       0x37 /home/vboxuser/Desktop/topst/cr5-bsp/sources/build/tcc805x/gcc/tcc805x-freertos-debug/obj/adc.o
 .ARM.attributes
                0x0000000000000898       0x37 /home/vboxuser/Desktop/topst/cr5-bsp/sources/build/tcc805x/gcc/tcc805x-freertos-debug/obj/can.o
 .ARM.attributes
                0x00000000000008cf       0x37 /home/vboxuser/Desktop/topst/cr5-bsp/sources/build/tcc805x/gcc/tcc805x-freertos-debug/obj/can_drv.o
 .ARM.attributes
                0x0000000000000906       0x37 /home/vboxuser/Desktop/topst/cr5-bsp/sources/build/tcc805x/gcc/tcc805x-freertos-debug/obj/can_msg.o
 .ARM.attributes
                0x000000000000093d       0x37 /home/vboxuser/Desktop/topst/cr5-bsp/sources/build/tcc805x/gcc/tcc805x-freertos-debug/obj/can_par.o
 .ARM.attributes
                0x0000000000000974       0x37 /home/vboxuser/Desktop/topst/cr5-bsp/sources/build/tcc805x/gcc/tcc805x-freertos-debug/obj/can_porting.o
 .ARM.attributes
                0x00000000000009ab       0x37 /home/vboxuser/Desktop/topst/cr5-bsp/sources/build/tcc805x/gcc/tcc805x-freertos-debug/obj/clock_dev.o
 .ARM.attributes
                0x00000000000009e2       0x37 /home/vboxuser/Desktop/topst/cr5-bsp/sources/build/tcc805x/gcc/tcc805x-freertos-debug/obj/debug.o
 .ARM.attributes
                0x0000000000000a19       0x37 /home/vboxuser/Desktop/topst/cr5-bsp/sources/build/tcc805x/gcc/tcc805x-freertos-debug/obj/bsp.o
 .ARM.attributes
                0x0000000000000a50       0x37 /home/vboxuser/Desktop/topst/cr5-bsp/sources/build/tcc805x/gcc/tcc805x-freertos-debug/obj/fmu.o
 .ARM.attributes
                0x0000000000000a87       0x37 /home/vboxuser/Desktop/topst/cr5-bsp/sources/build/tcc805x/gcc/tcc805x-freertos-debug/obj/gdma.o
 .ARM.attributes
                0x0000000000000abe       0x37 /home/vboxuser/Desktop/topst/cr5-bsp/sources/build/tcc805x/gcc/tcc805x-freertos-debug/obj/gic.o
 .ARM.attributes
                0x0000000000000af5       0x37 /home/vboxuser/Desktop/topst/cr5-bsp/sources/build/tcc805x/gcc/tcc805x-freertos-debug/obj/gpio.o
 .ARM.attributes
                0x0000000000000b2c       0x37 /home/vboxuser/Desktop/topst/cr5-bsp/sources/build/tcc805x/gcc/tcc805x-freertos-debug/obj/i2c.o
 .ARM.attributes
                0x0000000000000b63       0x37 /home/vboxuser/Desktop/topst/cr5-bsp/sources/build/tcc805x/gcc/tcc805x-freertos-debug/obj/i2c_reg.o
 .ARM.attributes
                0x0000000000000b9a       0x37 /home/vboxuser/Desktop/topst/cr5-bsp/sources/build/tcc805x/gcc/tcc805x-freertos-debug/obj/ictc.o
 .ARM.attributes
                0x0000000000000bd1       0x37 /home/vboxuser/Desktop/topst/cr5-bsp/sources/build/tcc805x/gcc/tcc805x-freertos-debug/obj/mbox_phy.o
 .ARM.attributes
                0x0000000000000c08       0x37 /home/vboxuser/Desktop/topst/cr5-bsp/sources/build/tcc805x/gcc/tcc805x-freertos-debug/obj/mbox_dev.o
 .ARM.attributes
                0x0000000000000c3f       0x37 /home/vboxuser/Desktop/topst/cr5-bsp/sources/build/tcc805x/gcc/tcc805x-freertos-debug/obj/mbox.o
 .ARM.attributes
                0x0000000000000c76       0x37 /home/vboxuser/Desktop/topst/cr5-bsp/sources/build/tcc805x/gcc/tcc805x-freertos-debug/obj/mpu.o
 .ARM.attributes
                0x0000000000000cad       0x37 /home/vboxuser/Desktop/topst/cr5-bsp/sources/build/tcc805x/gcc/tcc805x-freertos-debug/obj/pdm.o
 .ARM.attributes
                0x0000000000000ce4       0x37 /home/vboxuser/Desktop/topst/cr5-bsp/sources/build/tcc805x/gcc/tcc805x-freertos-debug/obj/pmio_dev.o
 .ARM.attributes
                0x0000000000000d1b       0x37 /home/vboxuser/Desktop/topst/cr5-bsp/sources/build/tcc805x/gcc/tcc805x-freertos-debug/obj/gpsb.o
 .ARM.attributes
                0x0000000000000d52       0x37 /home/vboxuser/Desktop/topst/cr5-bsp/sources/build/tcc805x/gcc/tcc805x-freertos-debug/obj/gpsb_reg.o
 .ARM.attributes
                0x0000000000000d89       0x37 /home/vboxuser/Desktop/topst/cr5-bsp/sources/build/tcc805x/gcc/tcc805x-freertos-debug/obj/timer.o
 .ARM.attributes
                0x0000000000000dc0       0x37 /home/vboxuser/Desktop/topst/cr5-bsp/sources/build/tcc805x/gcc/tcc805x-freertos-debug/obj/uart.o
 .ARM.attributes
                0x0000000000000df7       0x37 /home/vboxuser/Desktop/topst/cr5-bsp/sources/build/tcc805x/gcc/tcc805x-freertos-debug/obj/udma.o
 .ARM.attributes
                0x0000000000000e2e       0x37 /home/vboxuser/Desktop/topst/cr5-bsp/sources/build/tcc805x/gcc/tcc805x-freertos-debug/obj/wdt.o
 .ARM.attributes
                0x0000000000000e65       0x37 /home/vboxuser/Desktop/topst/cr5-bsp/sources/build/tcc805x/gcc/tcc805x-freertos-debug/obj/dse.o
 .ARM.attributes
                0x0000000000000e9c       0x37 /home/vboxuser/Desktop/topst/cr5-bsp/sources/build/tcc805x/gcc/tcc805x-freertos-debug/obj/midf.o
 .ARM.attributes
                0x0000000000000ed3       0x37 /home/vboxuser/Desktop/topst/cr5-bsp/sources/build/tcc805x/gcc/tcc805x-freertos-debug/obj/pmu_reset.o
 .ARM.attributes
                0x0000000000000f0a       0x37 /home/vboxuser/Desktop/topst/cr5-bsp/sources/build/tcc805x/gcc/tcc805x-freertos-debug/obj/tasks.o
 .ARM.attributes
                0x0000000000000f41       0x37 /home/vboxuser/Desktop/topst/cr5-bsp/sources/build/tcc805x/gcc/tcc805x-freertos-debug/obj/list.o
 .ARM.attributes
                0x0000000000000f78       0x37 /home/vboxuser/Desktop/topst/cr5-bsp/sources/build/tcc805x/gcc/tcc805x-freertos-debug/obj/queue.o
 .ARM.attributes
                0x0000000000000faf       0x37 /home/vboxuser/Desktop/topst/cr5-bsp/sources/build/tcc805x/gcc/tcc805x-freertos-debug/obj/event_groups.o
 .ARM.attributes
                0x0000000000000fe6       0x37 /home/vboxuser/Desktop/topst/cr5-bsp/sources/build/tcc805x/gcc/tcc805x-freertos-debug/obj/timers.o
 .ARM.attributes
                0x000000000000101d       0x37 /home/vboxuser/Desktop/topst/cr5-bsp/sources/build/tcc805x/gcc/tcc805x-freertos-debug/obj/stream_buffer.o
 .ARM.attributes
                0x0000000000001054       0x37 /home/vboxuser/Desktop/topst/cr5-bsp/sources/build/tcc805x/gcc/tcc805x-freertos-debug/obj/port.o
 .ARM.attributes
                0x000000000000108b       0x37 /home/vboxuser/Desktop/topst/cr5-bsp/sources/build/tcc805x/gcc/tcc805x-freertos-debug/obj/heap_5.o
 .ARM.attributes
                0x00000000000010c2       0x37 /home/vboxuser/Desktop/topst/cr5-bsp/sources/build/tcc805x/gcc/tcc805x-freertos-debug/obj/sal_api.o
 .ARM.attributes
                0x00000000000010f9       0x37 /home/vboxuser/Desktop/topst/cr5-bsp/sources/build/tcc805x/gcc/tcc805x-freertos-debug/obj/sal_freertos_impl.o
 .ARM.attributes
                0x0000000000001130       0x25 /home/vboxuser/Desktop/topst/cr5-bsp/sources/build/tcc805x/gcc/tcc805x-freertos-debug/obj/startup.o
 .ARM.attributes
                0x0000000000001155       0x25 /home/vboxuser/Desktop/topst/cr5-bsp/sources/build/tcc805x/gcc/tcc805x-freertos-debug/obj/vector.o
 .ARM.attributes
                0x000000000000117a       0x25 /home/vboxuser/Desktop/topst/cr5-bsp/sources/build/tcc805x/gcc/tcc805x-freertos-debug/obj/vfp_init.o
 .ARM.attributes
                0x000000000000119f       0x25 /home/vboxuser/Desktop/topst/cr5-bsp/sources/build/tcc805x/gcc/tcc805x-freertos-debug/obj/arm_a.o
 .ARM.attributes
                0x00000000000011c4       0x25 /home/vboxuser/Desktop/topst/cr5-bsp/sources/build/tcc805x/gcc/tcc805x-freertos-debug/obj/portASM.o
 .ARM.attributes
                0x00000000000011e9       0x25 /home/vboxuser/Desktop/topst/cr5-bsp/sources/build/tcc805x/gcc/tcc805x-freertos-debug/obj/freertos.o
 .ARM.attributes
                0x000000000000120e       0x25 /home/vboxuser/Desktop/topst/cr5-bsp/sources/build/tcc805x/gcc/tcc805x-freertos-debug/obj/sal.o
 .ARM.attributes
                0x0000000000001233       0x30 /home/vboxuser/Desktop/topst/buildtools/gcc-linaro-7.2.1-2017.11-x86_64_arm-eabi/arm-eabi/libc/usr/lib/libc.a(lib_a-atoi.o)
 .ARM.attributes
                0x0000000000001263       0x30 /home/vboxuser/Desktop/topst/buildtools/gcc-linaro-7.2.1-2017.11-x86_64_arm-eabi/arm-eabi/libc/usr/lib/libc.a(lib_a-atol.o)
 .ARM.attributes
                0x0000000000001293       0x30 /home/vboxuser/Desktop/topst/buildtools/gcc-linaro-7.2.1-2017.11-x86_64_arm-eabi/arm-eabi/libc/usr/lib/libc.a(lib_a-memcmp.o)
 .ARM.attributes
                0x00000000000012c3       0x30 /home/vboxuser/Desktop/topst/buildtools/gcc-linaro-7.2.1-2017.11-x86_64_arm-eabi/arm-eabi/libc/usr/lib/libc.a(lib_a-memcpy-stub.o)
 .ARM.attributes
                0x00000000000012f3       0x30 /home/vboxuser/Desktop/topst/buildtools/gcc-linaro-7.2.1-2017.11-x86_64_arm-eabi/arm-eabi/libc/usr/lib/libc.a(lib_a-memset.o)
 .ARM.attributes
                0x0000000000001323       0x30 /home/vboxuser/Desktop/topst/buildtools/gcc-linaro-7.2.1-2017.11-x86_64_arm-eabi/arm-eabi/libc/usr/lib/libc.a(lib_a-snprintf.o)
 .ARM.attributes
                0x0000000000001353       0x30 /home/vboxuser/Desktop/topst/buildtools/gcc-linaro-7.2.1-2017.11-x86_64_arm-eabi/arm-eabi/libc/usr/lib/libc.a(lib_a-strlen-stub.o)
 .ARM.attributes
                0x0000000000001383       0x30 /home/vboxuser/Desktop/topst/buildtools/gcc-linaro-7.2.1-2017.11-x86_64_arm-eabi/arm-eabi/libc/usr/lib/libc.a(lib_a-strncmp.o)
 .ARM.attributes
                0x00000000000013b3       0x30 /home/vboxuser/Desktop/topst/buildtools/gcc-linaro-7.2.1-2017.11-x86_64_arm-eabi/arm-eabi/libc/usr/lib/libc.a(lib_a-strncpy.o)
 .ARM.attributes
                0x00000000000013e3       0x30 /home/vboxuser/Desktop/topst/buildtools/gcc-linaro-7.2.1-2017.11-x86_64_arm-eabi/arm-eabi/libc/usr/lib/libc.a(lib_a-strnlen.o)
 .ARM.attributes
                0x0000000000001413       0x30 /home/vboxuser/Desktop/topst/buildtools/gcc-linaro-7.2.1-2017.11-x86_64_arm-eabi/arm-eabi/libc/usr/lib/libc.a(lib_a-strtol.o)
 .ARM.attributes
                0x0000000000001443       0x30 /home/vboxuser/Desktop/topst/buildtools/gcc-linaro-7.2.1-2017.11-x86_64_arm-eabi/arm-eabi/libc/usr/lib/libc.a(lib_a-strtoul.o)
 .ARM.attributes
                0x0000000000001473       0x30 /home/vboxuser/Desktop/topst/buildtools/gcc-linaro-7.2.1-2017.11-x86_64_arm-eabi/arm-eabi/libc/usr/lib/libc.a(lib_a-svfprintf.o)
 .ARM.attributes
                0x00000000000014a3       0x30 /home/vboxuser/Desktop/topst/buildtools/gcc-linaro-7.2.1-2017.11-x86_64_arm-eabi/arm-eabi/libc/usr/lib/libc.a(lib_a-wcrtomb.o)
 .ARM.attributes
                0x00000000000014d3       0x30 /home/vboxuser/Desktop/topst/buildtools/gcc-linaro-7.2.1-2017.11-x86_64_arm-eabi/arm-eabi/libc/usr/lib/libc.a(lib_a-wcsrtombs.o)
 .ARM.attributes
                0x0000000000001503       0x30 /home/vboxuser/Desktop/topst/buildtools/gcc-linaro-7.2.1-2017.11-x86_64_arm-eabi/arm-eabi/libc/usr/lib/libc.a(lib_a-dtoa.o)
 .ARM.attributes
                0x0000000000001533       0x30 /home/vboxuser/Desktop/topst/buildtools/gcc-linaro-7.2.1-2017.11-x86_64_arm-eabi/arm-eabi/libc/usr/lib/libc.a(lib_a-freer.o)
 .ARM.attributes
                0x0000000000001563       0x30 /home/vboxuser/Desktop/topst/buildtools/gcc-linaro-7.2.1-2017.11-x86_64_arm-eabi/arm-eabi/libc/usr/lib/libc.a(lib_a-impure.o)
 .ARM.attributes
                0x0000000000001593       0x30 /home/vboxuser/Desktop/topst/buildtools/gcc-linaro-7.2.1-2017.11-x86_64_arm-eabi/arm-eabi/libc/usr/lib/libc.a(lib_a-locale.o)
 .ARM.attributes
                0x00000000000015c3       0x30 /home/vboxuser/Desktop/topst/buildtools/gcc-linaro-7.2.1-2017.11-x86_64_arm-eabi/arm-eabi/libc/usr/lib/libc.a(lib_a-localeconv.o)
 .ARM.attributes
                0x00000000000015f3       0x30 /home/vboxuser/Desktop/topst/buildtools/gcc-linaro-7.2.1-2017.11-x86_64_arm-eabi/arm-eabi/libc/usr/lib/libc.a(lib_a-mallocr.o)
 .ARM.attributes
                0x0000000000001623       0x30 /home/vboxuser/Desktop/topst/buildtools/gcc-linaro-7.2.1-2017.11-x86_64_arm-eabi/arm-eabi/libc/usr/lib/libc.a(lib_a-mbtowc_r.o)
 .ARM.attributes
                0x0000000000001653       0x30 /home/vboxuser/Desktop/topst/buildtools/gcc-linaro-7.2.1-2017.11-x86_64_arm-eabi/arm-eabi/libc/usr/lib/libc.a(lib_a-memchr-stub.o)
 .ARM.attributes
                0x0000000000001683       0x30 /home/vboxuser/Desktop/topst/buildtools/gcc-linaro-7.2.1-2017.11-x86_64_arm-eabi/arm-eabi/libc/usr/lib/libc.a(lib_a-mlock.o)
 .ARM.attributes
                0x00000000000016b3       0x30 /home/vboxuser/Desktop/topst/buildtools/gcc-linaro-7.2.1-2017.11-x86_64_arm-eabi/arm-eabi/libc/usr/lib/libc.a(lib_a-mprec.o)
 .ARM.attributes
                0x00000000000016e3       0x30 /home/vboxuser/Desktop/topst/buildtools/gcc-linaro-7.2.1-2017.11-x86_64_arm-eabi/arm-eabi/libc/usr/lib/libc.a(lib_a-s_frexp.o)
 .ARM.attributes
                0x0000000000001713       0x30 /home/vboxuser/Desktop/topst/buildtools/gcc-linaro-7.2.1-2017.11-x86_64_arm-eabi/arm-eabi/libc/usr/lib/libc.a(lib_a-sbrkr.o)
 .ARM.attributes
                0x0000000000001743       0x30 /home/vboxuser/Desktop/topst/buildtools/gcc-linaro-7.2.1-2017.11-x86_64_arm-eabi/arm-eabi/libc/usr/lib/libc.a(lib_a-strcasecmp.o)
 .ARM.attributes
                0x0000000000001773       0x30 /home/vboxuser/Desktop/topst/buildtools/gcc-linaro-7.2.1-2017.11-x86_64_arm-eabi/arm-eabi/libc/usr/lib/libc.a(lib_a-strcat.o)
 .ARM.attributes
                0x00000000000017a3       0x30 /home/vboxuser/Desktop/topst/buildtools/gcc-linaro-7.2.1-2017.11-x86_64_arm-eabi/arm-eabi/libc/usr/lib/libc.a(lib_a-strchr.o)
 .ARM.attributes
                0x00000000000017d3       0x16 /home/vboxuser/Desktop/topst/buildtools/gcc-linaro-7.2.1-2017.11-x86_64_arm-eabi/arm-eabi/libc/usr/lib/libc.a(lib_a-strcmp.o)
 .ARM.attributes
                0x00000000000017e9       0x30 /home/vboxuser/Desktop/topst/buildtools/gcc-linaro-7.2.1-2017.11-x86_64_arm-eabi/arm-eabi/libc/usr/lib/libc.a(lib_a-strcpy.o)
 .ARM.attributes
                0x0000000000001819       0x30 /home/vboxuser/Desktop/topst/buildtools/gcc-linaro-7.2.1-2017.11-x86_64_arm-eabi/arm-eabi/libc/usr/lib/libc.a(lib_a-strlcpy.o)
 .ARM.attributes
                0x0000000000001849       0x30 /home/vboxuser/Desktop/topst/buildtools/gcc-linaro-7.2.1-2017.11-x86_64_arm-eabi/arm-eabi/libc/usr/lib/libc.a(lib_a-strncasecmp.o)
 .ARM.attributes
                0x0000000000001879       0x30 /home/vboxuser/Desktop/topst/buildtools/gcc-linaro-7.2.1-2017.11-x86_64_arm-eabi/arm-eabi/libc/usr/lib/libc.a(lib_a-svfiprintf.o)
 .ARM.attributes
                0x00000000000018a9       0x30 /home/vboxuser/Desktop/topst/buildtools/gcc-linaro-7.2.1-2017.11-x86_64_arm-eabi/arm-eabi/libc/usr/lib/libc.a(lib_a-syscalls.o)
 .ARM.attributes
                0x00000000000018d9       0x30 /home/vboxuser/Desktop/topst/buildtools/gcc-linaro-7.2.1-2017.11-x86_64_arm-eabi/arm-eabi/libc/usr/lib/libc.a(lib_a-wcsnrtombs.o)
 .ARM.attributes
                0x0000000000001909       0x30 /home/vboxuser/Desktop/topst/buildtools/gcc-linaro-7.2.1-2017.11-x86_64_arm-eabi/arm-eabi/libc/usr/lib/libc.a(lib_a-wctomb_r.o)
 .ARM.attributes
                0x0000000000001939       0x30 /home/vboxuser/Desktop/topst/buildtools/gcc-linaro-7.2.1-2017.11-x86_64_arm-eabi/arm-eabi/libc/usr/lib/libc.a(lib_a-callocr.o)
 .ARM.attributes
                0x0000000000001969       0x30 /home/vboxuser/Desktop/topst/buildtools/gcc-linaro-7.2.1-2017.11-x86_64_arm-eabi/arm-eabi/libc/usr/lib/libc.a(lib_a-ctype_.o)
 .ARM.attributes
                0x0000000000001999       0x30 /home/vboxuser/Desktop/topst/buildtools/gcc-linaro-7.2.1-2017.11-x86_64_arm-eabi/arm-eabi/libc/usr/lib/libc.a(lib_a-errno.o)
 .ARM.attributes
                0x00000000000019c9       0x30 /home/vboxuser/Desktop/topst/buildtools/gcc-linaro-7.2.1-2017.11-x86_64_arm-eabi/arm-eabi/libc/usr/lib/libc.a(lib_a-findfp.o)
 .ARM.attributes
                0x00000000000019f9       0x30 /home/vboxuser/Desktop/topst/buildtools/gcc-linaro-7.2.1-2017.11-x86_64_arm-eabi/arm-eabi/libc/usr/lib/libc.a(lib_a-fwalk.o)
 .ARM.attributes
                0x0000000000001a29       0x30 /home/vboxuser/Desktop/topst/buildtools/gcc-linaro-7.2.1-2017.11-x86_64_arm-eabi/arm-eabi/libc/usr/lib/libc.a(lib_a-getenv_r.o)
 .ARM.attributes
                0x0000000000001a59       0x30 /home/vboxuser/Desktop/topst/buildtools/gcc-linaro-7.2.1-2017.11-x86_64_arm-eabi/arm-eabi/libc/usr/lib/libc.a(lib_a-memmove.o)
 .ARM.attributes
                0x0000000000001a89       0x30 /home/vboxuser/Desktop/topst/buildtools/gcc-linaro-7.2.1-2017.11-x86_64_arm-eabi/arm-eabi/libc/usr/lib/libc.a(lib_a-reallocr.o)
 .ARM.attributes
                0x0000000000001ab9       0x30 /home/vboxuser/Desktop/topst/buildtools/gcc-linaro-7.2.1-2017.11-x86_64_arm-eabi/arm-eabi/libc/usr/lib/libc.a(lib_a-reent.o)
 .ARM.attributes
                0x0000000000001ae9       0x30 /home/vboxuser/Desktop/topst/buildtools/gcc-linaro-7.2.1-2017.11-x86_64_arm-eabi/arm-eabi/libc/usr/lib/libc.a(lib_a-stdio.o)
 .ARM.attributes
                0x0000000000001b19       0x30 /home/vboxuser/Desktop/topst/buildtools/gcc-linaro-7.2.1-2017.11-x86_64_arm-eabi/arm-eabi/libc/usr/lib/libc.a(lib_a-writer.o)
 .ARM.attributes
                0x0000000000001b49       0x30 /home/vboxuser/Desktop/topst/buildtools/gcc-linaro-7.2.1-2017.11-x86_64_arm-eabi/arm-eabi/libc/usr/lib/libc.a(lib_a-closer.o)
 .ARM.attributes
                0x0000000000001b79       0x30 /home/vboxuser/Desktop/topst/buildtools/gcc-linaro-7.2.1-2017.11-x86_64_arm-eabi/arm-eabi/libc/usr/lib/libc.a(lib_a-environ.o)
 .ARM.attributes
                0x0000000000001ba9       0x30 /home/vboxuser/Desktop/topst/buildtools/gcc-linaro-7.2.1-2017.11-x86_64_arm-eabi/arm-eabi/libc/usr/lib/libc.a(lib_a-envlock.o)
 .ARM.attributes
                0x0000000000001bd9       0x30 /home/vboxuser/Desktop/topst/buildtools/gcc-linaro-7.2.1-2017.11-x86_64_arm-eabi/arm-eabi/libc/usr/lib/libc.a(lib_a-fclose.o)
 .ARM.attributes
                0x0000000000001c09       0x30 /home/vboxuser/Desktop/topst/buildtools/gcc-linaro-7.2.1-2017.11-x86_64_arm-eabi/arm-eabi/libc/usr/lib/libc.a(lib_a-fflush.o)
 .ARM.attributes
                0x0000000000001c39       0x30 /home/vboxuser/Desktop/topst/buildtools/gcc-linaro-7.2.1-2017.11-x86_64_arm-eabi/arm-eabi/libc/usr/lib/libc.a(lib_a-lseekr.o)
 .ARM.attributes
                0x0000000000001c69       0x30 /home/vboxuser/Desktop/topst/buildtools/gcc-linaro-7.2.1-2017.11-x86_64_arm-eabi/arm-eabi/libc/usr/lib/libc.a(lib_a-readr.o)
 .ARM.attributes
                0x0000000000001c99       0x18 /home/vboxuser/Desktop/topst/buildtools/gcc-linaro-7.2.1-2017.11-x86_64_arm-eabi/arm-eabi/libc/usr/lib/libgcc.a(_udivsi3.o)
 .ARM.attributes
                0x0000000000001cb1       0x18 /home/vboxuser/Desktop/topst/buildtools/gcc-linaro-7.2.1-2017.11-x86_64_arm-eabi/arm-eabi/libc/usr/lib/libgcc.a(_dvmd_tls.o)
 .ARM.attributes
                0x0000000000001cc9       0x18 /home/vboxuser/Desktop/topst/buildtools/gcc-linaro-7.2.1-2017.11-x86_64_arm-eabi/arm-eabi/libc/usr/lib/libgcc.a(_arm_addsubdf3.o)
 .ARM.attributes
                0x0000000000001ce1       0x18 /home/vboxuser/Desktop/topst/buildtools/gcc-linaro-7.2.1-2017.11-x86_64_arm-eabi/arm-eabi/libc/usr/lib/libgcc.a(_arm_muldivdf3.o)
 .ARM.attributes
                0x0000000000001cf9       0x18 /home/vboxuser/Desktop/topst/buildtools/gcc-linaro-7.2.1-2017.11-x86_64_arm-eabi/arm-eabi/libc/usr/lib/libgcc.a(_arm_cmpdf2.o)
 .ARM.attributes
                0x0000000000001d11       0x18 /home/vboxuser/Desktop/topst/buildtools/gcc-linaro-7.2.1-2017.11-x86_64_arm-eabi/arm-eabi/libc/usr/lib/libgcc.a(_arm_unorddf2.o)
 .ARM.attributes
                0x0000000000001d29       0x18 /home/vboxuser/Desktop/topst/buildtools/gcc-linaro-7.2.1-2017.11-x86_64_arm-eabi/arm-eabi/libc/usr/lib/libgcc.a(_arm_fixdfsi.o)
 .ARM.attributes
                0x0000000000001d41       0x18 /home/vboxuser/Desktop/topst/buildtools/gcc-linaro-7.2.1-2017.11-x86_64_arm-eabi/arm-eabi/libc/usr/lib/libgcc.a(_arm_fixunsdfsi.o)
 .ARM.attributes
                0x0000000000001d59       0x18 /home/vboxuser/Desktop/topst/buildtools/gcc-linaro-7.2.1-2017.11-x86_64_arm-eabi/arm-eabi/libc/usr/lib/libgcc.a(_arm_addsubsf3.o)
 .ARM.attributes
                0x0000000000001d71       0x18 /home/vboxuser/Desktop/topst/buildtools/gcc-linaro-7.2.1-2017.11-x86_64_arm-eabi/arm-eabi/libc/usr/lib/libgcc.a(_arm_muldivsf3.o)
 .ARM.attributes
                0x0000000000001d89       0x18 /home/vboxuser/Desktop/topst/buildtools/gcc-linaro-7.2.1-2017.11-x86_64_arm-eabi/arm-eabi/libc/usr/lib/libgcc.a(_arm_fixunssfsi.o)
 .ARM.attributes
                0x0000000000001da1       0x18 /home/vboxuser/Desktop/topst/buildtools/gcc-linaro-7.2.1-2017.11-x86_64_arm-eabi/arm-eabi/libc/usr/lib/libgcc.a(_aeabi_uldivmod.o)
 .ARM.attributes
                0x0000000000001db9       0x30 /home/vboxuser/Desktop/topst/buildtools/gcc-linaro-7.2.1-2017.11-x86_64_arm-eabi/arm-eabi/libc/usr/lib/libgcc.a(_udivmoddi4.o)
 .ARM.attributes
                0x0000000000001de9       0x18 /home/vboxuser/Desktop/topst/buildtools/gcc-linaro-7.2.1-2017.11-x86_64_arm-eabi/arm-eabi/libc/usr/lib/libgcc.a(_clzdi2.o)
 .ARM.attributes
                0x0000000000001e01       0x18 /home/vboxuser/Desktop/topst/buildtools/gcc-linaro-7.2.1-2017.11-x86_64_arm-eabi/arm-eabi/libc/usr/lib/libgcc.a(_clzsi2.o)

.debug_frame    0x0000000000000000     0xb550
 .debug_frame   0x0000000000000000       0x88 /home/vboxuser/Desktop/topst/cr5-bsp/sources/build/tcc805x/gcc/tcc805x-freertos-debug/obj/main.o
 .debug_frame   0x0000000000000088      0x17c /home/vboxuser/Desktop/topst/cr5-bsp/sources/build/tcc805x/gcc/tcc805x-freertos-debug/obj/can_demo.o
 .debug_frame   0x0000000000000204      0x670 /home/vboxuser/Desktop/topst/cr5-bsp/sources/build/tcc805x/gcc/tcc805x-freertos-debug/obj/console.o
 .debug_frame   0x0000000000000874       0x94 /home/vboxuser/Desktop/topst/cr5-bsp/sources/build/tcc805x/gcc/tcc805x-freertos-debug/obj/fwug.o
 .debug_frame   0x0000000000000908       0x9c /home/vboxuser/Desktop/topst/cr5-bsp/sources/build/tcc805x/gcc/tcc805x-freertos-debug/obj/key_adc.o
 .debug_frame   0x00000000000009a4       0xd0 /home/vboxuser/Desktop/topst/cr5-bsp/sources/build/tcc805x/gcc/tcc805x-freertos-debug/obj/key_gpio.o
 .debug_frame   0x0000000000000a74       0xd4 /home/vboxuser/Desktop/topst/cr5-bsp/sources/build/tcc805x/gcc/tcc805x-freertos-debug/obj/key_i2c.o
 .debug_frame   0x0000000000000b48       0xb0 /home/vboxuser/Desktop/topst/cr5-bsp/sources/build/tcc805x/gcc/tcc805x-freertos-debug/obj/system_monitoring.o
 .debug_frame   0x0000000000000bf8       0xd8 /home/vboxuser/Desktop/topst/cr5-bsp/sources/build/tcc805x/gcc/tcc805x-freertos-debug/obj/bootctrl.o
 .debug_frame   0x0000000000000cd0       0x34 /home/vboxuser/Desktop/topst/cr5-bsp/sources/build/tcc805x/gcc/tcc805x-freertos-debug/obj/reset_demo.o
 .debug_frame   0x0000000000000d04      0x1a0 /home/vboxuser/Desktop/topst/cr5-bsp/sources/build/tcc805x/gcc/tcc805x-freertos-debug/obj/adc_test.o
 .debug_frame   0x0000000000000ea4       0x78 /home/vboxuser/Desktop/topst/cr5-bsp/sources/build/tcc805x/gcc/tcc805x-freertos-debug/obj/dse_test.o
 .debug_frame   0x0000000000000f1c       0xf0 /home/vboxuser/Desktop/topst/cr5-bsp/sources/build/tcc805x/gcc/tcc805x-freertos-debug/obj/fmu_test.o
 .debug_frame   0x000000000000100c       0x34 /home/vboxuser/Desktop/topst/cr5-bsp/sources/build/tcc805x/gcc/tcc805x-freertos-debug/obj/gdma_test.o
 .debug_frame   0x0000000000001040       0x70 /home/vboxuser/Desktop/topst/cr5-bsp/sources/build/tcc805x/gcc/tcc805x-freertos-debug/obj/gic_test.o
 .debug_frame   0x00000000000010b0       0x78 /home/vboxuser/Desktop/topst/cr5-bsp/sources/build/tcc805x/gcc/tcc805x-freertos-debug/obj/gpio_test.o
 .debug_frame   0x0000000000001128      0x208 /home/vboxuser/Desktop/topst/cr5-bsp/sources/build/tcc805x/gcc/tcc805x-freertos-debug/obj/gpsb_test.o
 .debug_frame   0x0000000000001330      0x258 /home/vboxuser/Desktop/topst/cr5-bsp/sources/build/tcc805x/gcc/tcc805x-freertos-debug/obj/hsm_test.o
 .debug_frame   0x0000000000001588      0x154 /home/vboxuser/Desktop/topst/cr5-bsp/sources/build/tcc805x/gcc/tcc805x-freertos-debug/obj/i2c_test.o
 .debug_frame   0x00000000000016dc       0xa8 /home/vboxuser/Desktop/topst/cr5-bsp/sources/build/tcc805x/gcc/tcc805x-freertos-debug/obj/ictc_test.o
 .debug_frame   0x0000000000001784       0x50 /home/vboxuser/Desktop/topst/cr5-bsp/sources/build/tcc805x/gcc/tcc805x-freertos-debug/obj/lin_test.o
 .debug_frame   0x00000000000017d4       0xcc /home/vboxuser/Desktop/topst/cr5-bsp/sources/build/tcc805x/gcc/tcc805x-freertos-debug/obj/pdm_test.o
 .debug_frame   0x00000000000018a0      0x130 /home/vboxuser/Desktop/topst/cr5-bsp/sources/build/tcc805x/gcc/tcc805x-freertos-debug/obj/pmio_test.o
 .debug_frame   0x00000000000019d0      0x2ac /home/vboxuser/Desktop/topst/cr5-bsp/sources/build/tcc805x/gcc/tcc805x-freertos-debug/obj/timer_test.o
 .debug_frame   0x0000000000001c7c      0x210 /home/vboxuser/Desktop/topst/cr5-bsp/sources/build/tcc805x/gcc/tcc805x-freertos-debug/obj/wdt_test.o
 .debug_frame   0x0000000000001e8c       0xe0 /home/vboxuser/Desktop/topst/cr5-bsp/sources/build/tcc805x/gcc/tcc805x-freertos-debug/obj/pwm_test.o
 .debug_frame   0x0000000000001f6c       0xac /home/vboxuser/Desktop/topst/cr5-bsp/sources/build/tcc805x/gcc/tcc805x-freertos-debug/obj/Motor_System.o
 .debug_frame   0x0000000000002018       0x50 /home/vboxuser/Desktop/topst/cr5-bsp/sources/build/tcc805x/gcc/tcc805x-freertos-debug/obj/mptool.o
 .debug_frame   0x0000000000002068      0x548 /home/vboxuser/Desktop/topst/cr5-bsp/sources/build/tcc805x/gcc/tcc805x-freertos-debug/obj/ipc_os.o
 .debug_frame   0x00000000000025b0      0x1f8 /home/vboxuser/Desktop/topst/cr5-bsp/sources/build/tcc805x/gcc/tcc805x-freertos-debug/obj/ipc_buffer.o
 .debug_frame   0x00000000000027a8       0xe0 /home/vboxuser/Desktop/topst/cr5-bsp/sources/build/tcc805x/gcc/tcc805x-freertos-debug/obj/ipc_cmd.o
 .debug_frame   0x0000000000002888      0x2a4 /home/vboxuser/Desktop/topst/cr5-bsp/sources/build/tcc805x/gcc/tcc805x-freertos-debug/obj/ipc_ctl.o
 .debug_frame   0x0000000000002b2c       0xb0 /home/vboxuser/Desktop/topst/cr5-bsp/sources/build/tcc805x/gcc/tcc805x-freertos-debug/obj/ipc_parser.o
 .debug_frame   0x0000000000002bdc       0xbc /home/vboxuser/Desktop/topst/cr5-bsp/sources/build/tcc805x/gcc/tcc805x-freertos-debug/obj/ipc_api.o
 .debug_frame   0x0000000000002c98       0x8c /home/vboxuser/Desktop/topst/cr5-bsp/sources/build/tcc805x/gcc/tcc805x-freertos-debug/obj/ipc.o
 .debug_frame   0x0000000000002d24      0x11c /home/vboxuser/Desktop/topst/cr5-bsp/sources/build/tcc805x/gcc/tcc805x-freertos-debug/obj/lin.o
 .debug_frame   0x0000000000002e40       0xf8 /home/vboxuser/Desktop/topst/cr5-bsp/sources/build/tcc805x/gcc/tcc805x-freertos-debug/obj/sdm.o
 .debug_frame   0x0000000000002f38      0x1fc /home/vboxuser/Desktop/topst/cr5-bsp/sources/build/tcc805x/gcc/tcc805x-freertos-debug/obj/hsm_manager.o
 .debug_frame   0x0000000000003134      0x128 /home/vboxuser/Desktop/topst/cr5-bsp/sources/build/tcc805x/gcc/tcc805x-freertos-debug/obj/adc.o
 .debug_frame   0x000000000000325c      0x214 /home/vboxuser/Desktop/topst/cr5-bsp/sources/build/tcc805x/gcc/tcc805x-freertos-debug/obj/can.o
 .debug_frame   0x0000000000003470      0x3c8 /home/vboxuser/Desktop/topst/cr5-bsp/sources/build/tcc805x/gcc/tcc805x-freertos-debug/obj/can_drv.o
 .debug_frame   0x0000000000003838      0x1ec /home/vboxuser/Desktop/topst/cr5-bsp/sources/build/tcc805x/gcc/tcc805x-freertos-debug/obj/can_msg.o
 .debug_frame   0x0000000000003a24      0x430 /home/vboxuser/Desktop/topst/cr5-bsp/sources/build/tcc805x/gcc/tcc805x-freertos-debug/obj/can_porting.o
 .debug_frame   0x0000000000003e54      0x380 /home/vboxuser/Desktop/topst/cr5-bsp/sources/build/tcc805x/gcc/tcc805x-freertos-debug/obj/clock_dev.o
 .debug_frame   0x00000000000041d4       0xe4 /home/vboxuser/Desktop/topst/cr5-bsp/sources/build/tcc805x/gcc/tcc805x-freertos-debug/obj/debug.o
 .debug_frame   0x00000000000042b8       0x84 /home/vboxuser/Desktop/topst/cr5-bsp/sources/build/tcc805x/gcc/tcc805x-freertos-debug/obj/bsp.o
 .debug_frame   0x000000000000433c      0x1e4 /home/vboxuser/Desktop/topst/cr5-bsp/sources/build/tcc805x/gcc/tcc805x-freertos-debug/obj/fmu.o
 .debug_frame   0x0000000000004520      0x1bc /home/vboxuser/Desktop/topst/cr5-bsp/sources/build/tcc805x/gcc/tcc805x-freertos-debug/obj/gdma.o
 .debug_frame   0x00000000000046dc      0x1f4 /home/vboxuser/Desktop/topst/cr5-bsp/sources/build/tcc805x/gcc/tcc805x-freertos-debug/obj/gic.o
 .debug_frame   0x00000000000048d0       0xbc /home/vboxuser/Desktop/topst/cr5-bsp/sources/build/tcc805x/gcc/tcc805x-freertos-debug/obj/gpio.o
 .debug_frame   0x000000000000498c      0x3c4 /home/vboxuser/Desktop/topst/cr5-bsp/sources/build/tcc805x/gcc/tcc805x-freertos-debug/obj/i2c.o
 .debug_frame   0x0000000000004d50      0x2b8 /home/vboxuser/Desktop/topst/cr5-bsp/sources/build/tcc805x/gcc/tcc805x-freertos-debug/obj/ictc.o
 .debug_frame   0x0000000000005008      0x378 /home/vboxuser/Desktop/topst/cr5-bsp/sources/build/tcc805x/gcc/tcc805x-freertos-debug/obj/mbox_phy.o
 .debug_frame   0x0000000000005380      0x4a4 /home/vboxuser/Desktop/topst/cr5-bsp/sources/build/tcc805x/gcc/tcc805x-freertos-debug/obj/mbox_dev.o
 .debug_frame   0x0000000000005824      0x178 /home/vboxuser/Desktop/topst/cr5-bsp/sources/build/tcc805x/gcc/tcc805x-freertos-debug/obj/mbox.o
 .debug_frame   0x000000000000599c       0xd0 /home/vboxuser/Desktop/topst/cr5-bsp/sources/build/tcc805x/gcc/tcc805x-freertos-debug/obj/mpu.o
 .debug_frame   0x0000000000005a6c      0x3b0 /home/vboxuser/Desktop/topst/cr5-bsp/sources/build/tcc805x/gcc/tcc805x-freertos-debug/obj/pdm.o
 .debug_frame   0x0000000000005e1c      0x420 /home/vboxuser/Desktop/topst/cr5-bsp/sources/build/tcc805x/gcc/tcc805x-freertos-debug/obj/pmio_dev.o
 .debug_frame   0x000000000000623c      0x8b4 /home/vboxuser/Desktop/topst/cr5-bsp/sources/build/tcc805x/gcc/tcc805x-freertos-debug/obj/gpsb.o
 .debug_frame   0x0000000000006af0      0x1a0 /home/vboxuser/Desktop/topst/cr5-bsp/sources/build/tcc805x/gcc/tcc805x-freertos-debug/obj/timer.o
 .debug_frame   0x0000000000006c90      0x588 /home/vboxuser/Desktop/topst/cr5-bsp/sources/build/tcc805x/gcc/tcc805x-freertos-debug/obj/uart.o
 .debug_frame   0x0000000000007218      0x2b0 /home/vboxuser/Desktop/topst/cr5-bsp/sources/build/tcc805x/gcc/tcc805x-freertos-debug/obj/udma.o
 .debug_frame   0x00000000000074c8      0x184 /home/vboxuser/Desktop/topst/cr5-bsp/sources/build/tcc805x/gcc/tcc805x-freertos-debug/obj/wdt.o
 .debug_frame   0x000000000000764c       0xb4 /home/vboxuser/Desktop/topst/cr5-bsp/sources/build/tcc805x/gcc/tcc805x-freertos-debug/obj/dse.o
 .debug_frame   0x0000000000007700      0x11c /home/vboxuser/Desktop/topst/cr5-bsp/sources/build/tcc805x/gcc/tcc805x-freertos-debug/obj/midf.o
 .debug_frame   0x000000000000781c      0x11c /home/vboxuser/Desktop/topst/cr5-bsp/sources/build/tcc805x/gcc/tcc805x-freertos-debug/obj/pmu_reset.o
 .debug_frame   0x0000000000007938      0x754 /home/vboxuser/Desktop/topst/cr5-bsp/sources/build/tcc805x/gcc/tcc805x-freertos-debug/obj/tasks.o
 .debug_frame   0x000000000000808c       0xb0 /home/vboxuser/Desktop/topst/cr5-bsp/sources/build/tcc805x/gcc/tcc805x-freertos-debug/obj/list.o
 .debug_frame   0x000000000000813c      0x588 /home/vboxuser/Desktop/topst/cr5-bsp/sources/build/tcc805x/gcc/tcc805x-freertos-debug/obj/queue.o
 .debug_frame   0x00000000000086c4      0x174 /home/vboxuser/Desktop/topst/cr5-bsp/sources/build/tcc805x/gcc/tcc805x-freertos-debug/obj/event_groups.o
 .debug_frame   0x0000000000008838      0x330 /home/vboxuser/Desktop/topst/cr5-bsp/sources/build/tcc805x/gcc/tcc805x-freertos-debug/obj/timers.o
 .debug_frame   0x0000000000008b68      0x2d0 /home/vboxuser/Desktop/topst/cr5-bsp/sources/build/tcc805x/gcc/tcc805x-freertos-debug/obj/stream_buffer.o
 .debug_frame   0x0000000000008e38      0x284 /home/vboxuser/Desktop/topst/cr5-bsp/sources/build/tcc805x/gcc/tcc805x-freertos-debug/obj/port.o
 .debug_frame   0x00000000000090bc       0xf8 /home/vboxuser/Desktop/topst/cr5-bsp/sources/build/tcc805x/gcc/tcc805x-freertos-debug/obj/heap_5.o
 .debug_frame   0x00000000000091b4       0x34 /home/vboxuser/Desktop/topst/cr5-bsp/sources/build/tcc805x/gcc/tcc805x-freertos-debug/obj/sal_api.o
 .debug_frame   0x00000000000091e8      0x3ec /home/vboxuser/Desktop/topst/cr5-bsp/sources/build/tcc805x/gcc/tcc805x-freertos-debug/obj/sal_freertos_impl.o
 .debug_frame   0x00000000000095d4       0x48 /home/vboxuser/Desktop/topst/buildtools/gcc-linaro-7.2.1-2017.11-x86_64_arm-eabi/arm-eabi/libc/usr/lib/libc.a(lib_a-atoi.o)
 .debug_frame   0x000000000000961c       0x48 /home/vboxuser/Desktop/topst/buildtools/gcc-linaro-7.2.1-2017.11-x86_64_arm-eabi/arm-eabi/libc/usr/lib/libc.a(lib_a-atol.o)
 .debug_frame   0x0000000000009664       0x40 /home/vboxuser/Desktop/topst/buildtools/gcc-linaro-7.2.1-2017.11-x86_64_arm-eabi/arm-eabi/libc/usr/lib/libc.a(lib_a-memcmp.o)
 .debug_frame   0x00000000000096a4       0x34 /home/vboxuser/Desktop/topst/buildtools/gcc-linaro-7.2.1-2017.11-x86_64_arm-eabi/arm-eabi/libc/usr/lib/libc.a(lib_a-memcpy-stub.o)
 .debug_frame   0x00000000000096d8       0x30 /home/vboxuser/Desktop/topst/buildtools/gcc-linaro-7.2.1-2017.11-x86_64_arm-eabi/arm-eabi/libc/usr/lib/libc.a(lib_a-memset.o)
 .debug_frame   0x0000000000009708       0x74 /home/vboxuser/Desktop/topst/buildtools/gcc-linaro-7.2.1-2017.11-x86_64_arm-eabi/arm-eabi/libc/usr/lib/libc.a(lib_a-snprintf.o)
 .debug_frame   0x000000000000977c       0x20 /home/vboxuser/Desktop/topst/buildtools/gcc-linaro-7.2.1-2017.11-x86_64_arm-eabi/arm-eabi/libc/usr/lib/libc.a(lib_a-strlen-stub.o)
 .debug_frame   0x000000000000979c       0x4c /home/vboxuser/Desktop/topst/buildtools/gcc-linaro-7.2.1-2017.11-x86_64_arm-eabi/arm-eabi/libc/usr/lib/libc.a(lib_a-strncmp.o)
 .debug_frame   0x00000000000097e8       0x40 /home/vboxuser/Desktop/topst/buildtools/gcc-linaro-7.2.1-2017.11-x86_64_arm-eabi/arm-eabi/libc/usr/lib/libc.a(lib_a-strncpy.o)
 .debug_frame   0x0000000000009828       0x20 /home/vboxuser/Desktop/topst/buildtools/gcc-linaro-7.2.1-2017.11-x86_64_arm-eabi/arm-eabi/libc/usr/lib/libc.a(lib_a-strnlen.o)
 .debug_frame   0x0000000000009848       0xac /home/vboxuser/Desktop/topst/buildtools/gcc-linaro-7.2.1-2017.11-x86_64_arm-eabi/arm-eabi/libc/usr/lib/libc.a(lib_a-strtol.o)
 .debug_frame   0x00000000000098f4       0xa8 /home/vboxuser/Desktop/topst/buildtools/gcc-linaro-7.2.1-2017.11-x86_64_arm-eabi/arm-eabi/libc/usr/lib/libc.a(lib_a-strtoul.o)
 .debug_frame   0x000000000000999c       0x8c /home/vboxuser/Desktop/topst/buildtools/gcc-linaro-7.2.1-2017.11-x86_64_arm-eabi/arm-eabi/libc/usr/lib/libc.a(lib_a-svfprintf.o)
 .debug_frame   0x0000000000009a28       0x68 /home/vboxuser/Desktop/topst/buildtools/gcc-linaro-7.2.1-2017.11-x86_64_arm-eabi/arm-eabi/libc/usr/lib/libc.a(lib_a-wcrtomb.o)
 .debug_frame   0x0000000000009a90       0x50 /home/vboxuser/Desktop/topst/buildtools/gcc-linaro-7.2.1-2017.11-x86_64_arm-eabi/arm-eabi/libc/usr/lib/libc.a(lib_a-wcsrtombs.o)
 .debug_frame   0x0000000000009ae0       0xc0 /home/vboxuser/Desktop/topst/buildtools/gcc-linaro-7.2.1-2017.11-x86_64_arm-eabi/arm-eabi/libc/usr/lib/libc.a(lib_a-dtoa.o)
 .debug_frame   0x0000000000009ba0       0x74 /home/vboxuser/Desktop/topst/buildtools/gcc-linaro-7.2.1-2017.11-x86_64_arm-eabi/arm-eabi/libc/usr/lib/libc.a(lib_a-freer.o)
 .debug_frame   0x0000000000009c14      0x194 /home/vboxuser/Desktop/topst/buildtools/gcc-linaro-7.2.1-2017.11-x86_64_arm-eabi/arm-eabi/libc/usr/lib/libc.a(lib_a-locale.o)
 .debug_frame   0x0000000000009da8       0x40 /home/vboxuser/Desktop/topst/buildtools/gcc-linaro-7.2.1-2017.11-x86_64_arm-eabi/arm-eabi/libc/usr/lib/libc.a(lib_a-localeconv.o)
 .debug_frame   0x0000000000009de8       0x8c /home/vboxuser/Desktop/topst/buildtools/gcc-linaro-7.2.1-2017.11-x86_64_arm-eabi/arm-eabi/libc/usr/lib/libc.a(lib_a-mallocr.o)
 .debug_frame   0x0000000000009e74      0x170 /home/vboxuser/Desktop/topst/buildtools/gcc-linaro-7.2.1-2017.11-x86_64_arm-eabi/arm-eabi/libc/usr/lib/libc.a(lib_a-mbtowc_r.o)
 .debug_frame   0x0000000000009fe4       0x38 /home/vboxuser/Desktop/topst/buildtools/gcc-linaro-7.2.1-2017.11-x86_64_arm-eabi/arm-eabi/libc/usr/lib/libc.a(lib_a-memchr-stub.o)
 .debug_frame   0x000000000000a01c       0x30 /home/vboxuser/Desktop/topst/buildtools/gcc-linaro-7.2.1-2017.11-x86_64_arm-eabi/arm-eabi/libc/usr/lib/libc.a(lib_a-mlock.o)
 .debug_frame   0x000000000000a04c      0x2f0 /home/vboxuser/Desktop/topst/buildtools/gcc-linaro-7.2.1-2017.11-x86_64_arm-eabi/arm-eabi/libc/usr/lib/libc.a(lib_a-mprec.o)
 .debug_frame   0x000000000000a33c       0x34 /home/vboxuser/Desktop/topst/buildtools/gcc-linaro-7.2.1-2017.11-x86_64_arm-eabi/arm-eabi/libc/usr/lib/libc.a(lib_a-s_frexp.o)
 .debug_frame   0x000000000000a370       0x34 /home/vboxuser/Desktop/topst/buildtools/gcc-linaro-7.2.1-2017.11-x86_64_arm-eabi/arm-eabi/libc/usr/lib/libc.a(lib_a-sbrkr.o)
 .debug_frame   0x000000000000a3a4       0x44 /home/vboxuser/Desktop/topst/buildtools/gcc-linaro-7.2.1-2017.11-x86_64_arm-eabi/arm-eabi/libc/usr/lib/libc.a(lib_a-strcasecmp.o)
 .debug_frame   0x000000000000a3e8       0x2c /home/vboxuser/Desktop/topst/buildtools/gcc-linaro-7.2.1-2017.11-x86_64_arm-eabi/arm-eabi/libc/usr/lib/libc.a(lib_a-strcat.o)
 .debug_frame   0x000000000000a414       0x34 /home/vboxuser/Desktop/topst/buildtools/gcc-linaro-7.2.1-2017.11-x86_64_arm-eabi/arm-eabi/libc/usr/lib/libc.a(lib_a-strchr.o)
 .debug_frame   0x000000000000a448       0x40 /home/vboxuser/Desktop/topst/buildtools/gcc-linaro-7.2.1-2017.11-x86_64_arm-eabi/arm-eabi/libc/usr/lib/libc.a(lib_a-strcmp.o)
 .debug_frame   0x000000000000a488       0x20 /home/vboxuser/Desktop/topst/buildtools/gcc-linaro-7.2.1-2017.11-x86_64_arm-eabi/arm-eabi/libc/usr/lib/libc.a(lib_a-strcpy.o)
 .debug_frame   0x000000000000a4a8       0x20 /home/vboxuser/Desktop/topst/buildtools/gcc-linaro-7.2.1-2017.11-x86_64_arm-eabi/arm-eabi/libc/usr/lib/libc.a(lib_a-strlcpy.o)
 .debug_frame   0x000000000000a4c8       0x44 /home/vboxuser/Desktop/topst/buildtools/gcc-linaro-7.2.1-2017.11-x86_64_arm-eabi/arm-eabi/libc/usr/lib/libc.a(lib_a-strncasecmp.o)
 .debug_frame   0x000000000000a50c       0xd8 /home/vboxuser/Desktop/topst/buildtools/gcc-linaro-7.2.1-2017.11-x86_64_arm-eabi/arm-eabi/libc/usr/lib/libc.a(lib_a-svfiprintf.o)
 .debug_frame   0x000000000000a5e4      0x440 /home/vboxuser/Desktop/topst/buildtools/gcc-linaro-7.2.1-2017.11-x86_64_arm-eabi/arm-eabi/libc/usr/lib/libc.a(lib_a-syscalls.o)
 .debug_frame   0x000000000000aa24       0xa8 /home/vboxuser/Desktop/topst/buildtools/gcc-linaro-7.2.1-2017.11-x86_64_arm-eabi/arm-eabi/libc/usr/lib/libc.a(lib_a-wcsnrtombs.o)
 .debug_frame   0x000000000000aacc       0xd0 /home/vboxuser/Desktop/topst/buildtools/gcc-linaro-7.2.1-2017.11-x86_64_arm-eabi/arm-eabi/libc/usr/lib/libc.a(lib_a-wctomb_r.o)
 .debug_frame   0x000000000000ab9c       0x34 /home/vboxuser/Desktop/topst/buildtools/gcc-linaro-7.2.1-2017.11-x86_64_arm-eabi/arm-eabi/libc/usr/lib/libc.a(lib_a-callocr.o)
 .debug_frame   0x000000000000abd0       0x20 /home/vboxuser/Desktop/topst/buildtools/gcc-linaro-7.2.1-2017.11-x86_64_arm-eabi/arm-eabi/libc/usr/lib/libc.a(lib_a-ctype_.o)
 .debug_frame   0x000000000000abf0       0x20 /home/vboxuser/Desktop/topst/buildtools/gcc-linaro-7.2.1-2017.11-x86_64_arm-eabi/arm-eabi/libc/usr/lib/libc.a(lib_a-errno.o)
 .debug_frame   0x000000000000ac10      0x174 /home/vboxuser/Desktop/topst/buildtools/gcc-linaro-7.2.1-2017.11-x86_64_arm-eabi/arm-eabi/libc/usr/lib/libc.a(lib_a-findfp.o)
 .debug_frame   0x000000000000ad84       0x68 /home/vboxuser/Desktop/topst/buildtools/gcc-linaro-7.2.1-2017.11-x86_64_arm-eabi/arm-eabi/libc/usr/lib/libc.a(lib_a-fwalk.o)
 .debug_frame   0x000000000000adec       0x70 /home/vboxuser/Desktop/topst/buildtools/gcc-linaro-7.2.1-2017.11-x86_64_arm-eabi/arm-eabi/libc/usr/lib/libc.a(lib_a-getenv_r.o)
 .debug_frame   0x000000000000ae5c       0x34 /home/vboxuser/Desktop/topst/buildtools/gcc-linaro-7.2.1-2017.11-x86_64_arm-eabi/arm-eabi/libc/usr/lib/libc.a(lib_a-memmove.o)
 .debug_frame   0x000000000000ae90       0x68 /home/vboxuser/Desktop/topst/buildtools/gcc-linaro-7.2.1-2017.11-x86_64_arm-eabi/arm-eabi/libc/usr/lib/libc.a(lib_a-reallocr.o)
 .debug_frame   0x000000000000aef8       0x68 /home/vboxuser/Desktop/topst/buildtools/gcc-linaro-7.2.1-2017.11-x86_64_arm-eabi/arm-eabi/libc/usr/lib/libc.a(lib_a-reent.o)
 .debug_frame   0x000000000000af60       0x9c /home/vboxuser/Desktop/topst/buildtools/gcc-linaro-7.2.1-2017.11-x86_64_arm-eabi/arm-eabi/libc/usr/lib/libc.a(lib_a-stdio.o)
 .debug_frame   0x000000000000affc       0x34 /home/vboxuser/Desktop/topst/buildtools/gcc-linaro-7.2.1-2017.11-x86_64_arm-eabi/arm-eabi/libc/usr/lib/libc.a(lib_a-writer.o)
 .debug_frame   0x000000000000b030       0x34 /home/vboxuser/Desktop/topst/buildtools/gcc-linaro-7.2.1-2017.11-x86_64_arm-eabi/arm-eabi/libc/usr/lib/libc.a(lib_a-closer.o)
 .debug_frame   0x000000000000b064       0x30 /home/vboxuser/Desktop/topst/buildtools/gcc-linaro-7.2.1-2017.11-x86_64_arm-eabi/arm-eabi/libc/usr/lib/libc.a(lib_a-envlock.o)
 .debug_frame   0x000000000000b094       0x50 /home/vboxuser/Desktop/topst/buildtools/gcc-linaro-7.2.1-2017.11-x86_64_arm-eabi/arm-eabi/libc/usr/lib/libc.a(lib_a-fclose.o)
 .debug_frame   0x000000000000b0e4       0xa0 /home/vboxuser/Desktop/topst/buildtools/gcc-linaro-7.2.1-2017.11-x86_64_arm-eabi/arm-eabi/libc/usr/lib/libc.a(lib_a-fflush.o)
 .debug_frame   0x000000000000b184       0x34 /home/vboxuser/Desktop/topst/buildtools/gcc-linaro-7.2.1-2017.11-x86_64_arm-eabi/arm-eabi/libc/usr/lib/libc.a(lib_a-lseekr.o)
 .debug_frame   0x000000000000b1b8       0x34 /home/vboxuser/Desktop/topst/buildtools/gcc-linaro-7.2.1-2017.11-x86_64_arm-eabi/arm-eabi/libc/usr/lib/libc.a(lib_a-readr.o)
 .debug_frame   0x000000000000b1ec       0x20 /home/vboxuser/Desktop/topst/buildtools/gcc-linaro-7.2.1-2017.11-x86_64_arm-eabi/arm-eabi/libc/usr/lib/libgcc.a(_udivsi3.o)
 .debug_frame   0x000000000000b20c       0xac /home/vboxuser/Desktop/topst/buildtools/gcc-linaro-7.2.1-2017.11-x86_64_arm-eabi/arm-eabi/libc/usr/lib/libgcc.a(_arm_addsubdf3.o)
 .debug_frame   0x000000000000b2b8       0x50 /home/vboxuser/Desktop/topst/buildtools/gcc-linaro-7.2.1-2017.11-x86_64_arm-eabi/arm-eabi/libc/usr/lib/libgcc.a(_arm_muldivdf3.o)
 .debug_frame   0x000000000000b308       0xc4 /home/vboxuser/Desktop/topst/buildtools/gcc-linaro-7.2.1-2017.11-x86_64_arm-eabi/arm-eabi/libc/usr/lib/libgcc.a(_arm_cmpdf2.o)
 .debug_frame   0x000000000000b3cc       0x20 /home/vboxuser/Desktop/topst/buildtools/gcc-linaro-7.2.1-2017.11-x86_64_arm-eabi/arm-eabi/libc/usr/lib/libgcc.a(_arm_unorddf2.o)
 .debug_frame   0x000000000000b3ec       0x24 /home/vboxuser/Desktop/topst/buildtools/gcc-linaro-7.2.1-2017.11-x86_64_arm-eabi/arm-eabi/libc/usr/lib/libgcc.a(_arm_fixdfsi.o)
 .debug_frame   0x000000000000b410       0x24 /home/vboxuser/Desktop/topst/buildtools/gcc-linaro-7.2.1-2017.11-x86_64_arm-eabi/arm-eabi/libc/usr/lib/libgcc.a(_arm_fixunsdfsi.o)
 .debug_frame   0x000000000000b434       0x4c /home/vboxuser/Desktop/topst/buildtools/gcc-linaro-7.2.1-2017.11-x86_64_arm-eabi/arm-eabi/libc/usr/lib/libgcc.a(_arm_addsubsf3.o)
 .debug_frame   0x000000000000b480       0x38 /home/vboxuser/Desktop/topst/buildtools/gcc-linaro-7.2.1-2017.11-x86_64_arm-eabi/arm-eabi/libc/usr/lib/libgcc.a(_arm_muldivsf3.o)
 .debug_frame   0x000000000000b4b8       0x24 /home/vboxuser/Desktop/topst/buildtools/gcc-linaro-7.2.1-2017.11-x86_64_arm-eabi/arm-eabi/libc/usr/lib/libgcc.a(_arm_fixunssfsi.o)
 .debug_frame   0x000000000000b4dc       0x2c /home/vboxuser/Desktop/topst/buildtools/gcc-linaro-7.2.1-2017.11-x86_64_arm-eabi/arm-eabi/libc/usr/lib/libgcc.a(_aeabi_uldivmod.o)
 .debug_frame   0x000000000000b508       0x48 /home/vboxuser/Desktop/topst/buildtools/gcc-linaro-7.2.1-2017.11-x86_64_arm-eabi/arm-eabi/libc/usr/lib/libgcc.a(_udivmoddi4.o)

.debug_ranges   0x0000000000000000      0xb20
 .debug_ranges  0x0000000000000000       0x18 /home/vboxuser/Desktop/topst/cr5-bsp/sources/build/tcc805x/gcc/tcc805x-freertos-debug/obj/lin_test.o
 .debug_ranges  0x0000000000000018       0x18 /home/vboxuser/Desktop/topst/cr5-bsp/sources/build/tcc805x/gcc/tcc805x-freertos-debug/obj/Motor_System.o
 .debug_ranges  0x0000000000000030       0x18 /home/vboxuser/Desktop/topst/cr5-bsp/sources/build/tcc805x/gcc/tcc805x-freertos-debug/obj/lin.o
 .debug_ranges  0x0000000000000048       0x28 /home/vboxuser/Desktop/topst/cr5-bsp/sources/build/tcc805x/gcc/tcc805x-freertos-debug/obj/sal_freertos_impl.o
 .debug_ranges  0x0000000000000070       0x10 /home/vboxuser/Desktop/topst/buildtools/gcc-linaro-7.2.1-2017.11-x86_64_arm-eabi/arm-eabi/libc/usr/lib/libc.a(lib_a-strlen-stub.o)
 .debug_ranges  0x0000000000000080       0x18 /home/vboxuser/Desktop/topst/buildtools/gcc-linaro-7.2.1-2017.11-x86_64_arm-eabi/arm-eabi/libc/usr/lib/libc.a(lib_a-strtol.o)
 .debug_ranges  0x0000000000000098       0x18 /home/vboxuser/Desktop/topst/buildtools/gcc-linaro-7.2.1-2017.11-x86_64_arm-eabi/arm-eabi/libc/usr/lib/libc.a(lib_a-strtoul.o)
 .debug_ranges  0x00000000000000b0      0x288 /home/vboxuser/Desktop/topst/buildtools/gcc-linaro-7.2.1-2017.11-x86_64_arm-eabi/arm-eabi/libc/usr/lib/libc.a(lib_a-svfprintf.o)
 .debug_ranges  0x0000000000000338       0x18 /home/vboxuser/Desktop/topst/buildtools/gcc-linaro-7.2.1-2017.11-x86_64_arm-eabi/arm-eabi/libc/usr/lib/libc.a(lib_a-wcrtomb.o)
 .debug_ranges  0x0000000000000350       0x38 /home/vboxuser/Desktop/topst/buildtools/gcc-linaro-7.2.1-2017.11-x86_64_arm-eabi/arm-eabi/libc/usr/lib/libc.a(lib_a-locale.o)
 .debug_ranges  0x0000000000000388       0x30 /home/vboxuser/Desktop/topst/buildtools/gcc-linaro-7.2.1-2017.11-x86_64_arm-eabi/arm-eabi/libc/usr/lib/libc.a(lib_a-mallocr.o)
 .debug_ranges  0x00000000000003b8       0x58 /home/vboxuser/Desktop/topst/buildtools/gcc-linaro-7.2.1-2017.11-x86_64_arm-eabi/arm-eabi/libc/usr/lib/libc.a(lib_a-mbtowc_r.o)
 .debug_ranges  0x0000000000000410       0x60 /home/vboxuser/Desktop/topst/buildtools/gcc-linaro-7.2.1-2017.11-x86_64_arm-eabi/arm-eabi/libc/usr/lib/libc.a(lib_a-mprec.o)
 .debug_ranges  0x0000000000000470       0x18 /home/vboxuser/Desktop/topst/buildtools/gcc-linaro-7.2.1-2017.11-x86_64_arm-eabi/arm-eabi/libc/usr/lib/libc.a(lib_a-s_frexp.o)
 .debug_ranges  0x0000000000000488       0x30 /home/vboxuser/Desktop/topst/buildtools/gcc-linaro-7.2.1-2017.11-x86_64_arm-eabi/arm-eabi/libc/usr/lib/libc.a(lib_a-strcasecmp.o)
 .debug_ranges  0x00000000000004b8       0x10 /home/vboxuser/Desktop/topst/buildtools/gcc-linaro-7.2.1-2017.11-x86_64_arm-eabi/arm-eabi/libc/usr/lib/libc.a(lib_a-strcpy.o)
 .debug_ranges  0x00000000000004c8       0x18 /home/vboxuser/Desktop/topst/buildtools/gcc-linaro-7.2.1-2017.11-x86_64_arm-eabi/arm-eabi/libc/usr/lib/libc.a(lib_a-strncasecmp.o)
 .debug_ranges  0x00000000000004e0      0x120 /home/vboxuser/Desktop/topst/buildtools/gcc-linaro-7.2.1-2017.11-x86_64_arm-eabi/arm-eabi/libc/usr/lib/libc.a(lib_a-svfiprintf.o)
 .debug_ranges  0x0000000000000600      0x2b8 /home/vboxuser/Desktop/topst/buildtools/gcc-linaro-7.2.1-2017.11-x86_64_arm-eabi/arm-eabi/libc/usr/lib/libc.a(lib_a-syscalls.o)
 .debug_ranges  0x00000000000008b8       0x40 /home/vboxuser/Desktop/topst/buildtools/gcc-linaro-7.2.1-2017.11-x86_64_arm-eabi/arm-eabi/libc/usr/lib/libc.a(lib_a-wcsnrtombs.o)
 .debug_ranges  0x00000000000008f8       0x18 /home/vboxuser/Desktop/topst/buildtools/gcc-linaro-7.2.1-2017.11-x86_64_arm-eabi/arm-eabi/libc/usr/lib/libc.a(lib_a-wctomb_r.o)
 .debug_ranges  0x0000000000000910       0x18 /home/vboxuser/Desktop/topst/buildtools/gcc-linaro-7.2.1-2017.11-x86_64_arm-eabi/arm-eabi/libc/usr/lib/libc.a(lib_a-callocr.o)
 .debug_ranges  0x0000000000000928       0x68 /home/vboxuser/Desktop/topst/buildtools/gcc-linaro-7.2.1-2017.11-x86_64_arm-eabi/arm-eabi/libc/usr/lib/libc.a(lib_a-findfp.o)
 .debug_ranges  0x0000000000000990       0xb0 /home/vboxuser/Desktop/topst/buildtools/gcc-linaro-7.2.1-2017.11-x86_64_arm-eabi/arm-eabi/libc/usr/lib/libc.a(lib_a-reallocr.o)
 .debug_ranges  0x0000000000000a40       0x20 /home/vboxuser/Desktop/topst/buildtools/gcc-linaro-7.2.1-2017.11-x86_64_arm-eabi/arm-eabi/libc/usr/lib/libc.a(lib_a-writer.o)
 .debug_ranges  0x0000000000000a60       0x18 /home/vboxuser/Desktop/topst/buildtools/gcc-linaro-7.2.1-2017.11-x86_64_arm-eabi/arm-eabi/libc/usr/lib/libc.a(lib_a-closer.o)
 .debug_ranges  0x0000000000000a78       0x30 /home/vboxuser/Desktop/topst/buildtools/gcc-linaro-7.2.1-2017.11-x86_64_arm-eabi/arm-eabi/libc/usr/lib/libc.a(lib_a-fclose.o)
 .debug_ranges  0x0000000000000aa8       0x38 /home/vboxuser/Desktop/topst/buildtools/gcc-linaro-7.2.1-2017.11-x86_64_arm-eabi/arm-eabi/libc/usr/lib/libc.a(lib_a-fflush.o)
 .debug_ranges  0x0000000000000ae0       0x20 /home/vboxuser/Desktop/topst/buildtools/gcc-linaro-7.2.1-2017.11-x86_64_arm-eabi/arm-eabi/libc/usr/lib/libc.a(lib_a-lseekr.o)
 .debug_ranges  0x0000000000000b00       0x20 /home/vboxuser/Desktop/topst/buildtools/gcc-linaro-7.2.1-2017.11-x86_64_arm-eabi/arm-eabi/libc/usr/lib/libc.a(lib_a-readr.o)

Cross Reference Table

Symbol                                            File
ADC_AutoScan                                      /home/vboxuser/Desktop/topst/cr5-bsp/sources/build/tcc805x/gcc/tcc805x-freertos-debug/obj/adc.o
                                                  /home/vboxuser/Desktop/topst/cr5-bsp/sources/build/tcc805x/gcc/tcc805x-freertos-debug/obj/key_adc.o
ADC_DeInit                                        /home/vboxuser/Desktop/topst/cr5-bsp/sources/build/tcc805x/gcc/tcc805x-freertos-debug/obj/adc.o
ADC_Init                                          /home/vboxuser/Desktop/topst/cr5-bsp/sources/build/tcc805x/gcc/tcc805x-freertos-debug/obj/adc.o
                                                  /home/vboxuser/Desktop/topst/cr5-bsp/sources/build/tcc805x/gcc/tcc805x-freertos-debug/obj/bsp.o
ADC_Read                                          /home/vboxuser/Desktop/topst/cr5-bsp/sources/build/tcc805x/gcc/tcc805x-freertos-debug/obj/adc.o
ADC_StartAdcTest                                  /home/vboxuser/Desktop/topst/cr5-bsp/sources/build/tcc805x/gcc/tcc805x-freertos-debug/obj/adc_test.o
                                                  /home/vboxuser/Desktop/topst/cr5-bsp/sources/build/tcc805x/gcc/tcc805x-freertos-debug/obj/console.o
ARM_DSB                                           /home/vboxuser/Desktop/topst/cr5-bsp/sources/build/tcc805x/gcc/tcc805x-freertos-debug/obj/arm_a.o
                                                  /home/vboxuser/Desktop/topst/cr5-bsp/sources/build/tcc805x/gcc/tcc805x-freertos-debug/obj/mpu.o
ARM_ExceptDataAbortHndlr                          /home/vboxuser/Desktop/topst/cr5-bsp/sources/build/tcc805x/gcc/tcc805x-freertos-debug/obj/sal.o
                                                  /home/vboxuser/Desktop/topst/cr5-bsp/sources/build/tcc805x/gcc/tcc805x-freertos-debug/obj/vector.o
ARM_ExceptFiqHndlr                                /home/vboxuser/Desktop/topst/cr5-bsp/sources/build/tcc805x/gcc/tcc805x-freertos-debug/obj/sal.o
                                                  /home/vboxuser/Desktop/topst/cr5-bsp/sources/build/tcc805x/gcc/tcc805x-freertos-debug/obj/vector.o
ARM_ExceptIrqHndlr                                /home/vboxuser/Desktop/topst/cr5-bsp/sources/build/tcc805x/gcc/tcc805x-freertos-debug/obj/sal.o
                                                  /home/vboxuser/Desktop/topst/cr5-bsp/sources/build/tcc805x/gcc/tcc805x-freertos-debug/obj/vector.o
ARM_ExceptPrefetchAbortHndlr                      /home/vboxuser/Desktop/topst/cr5-bsp/sources/build/tcc805x/gcc/tcc805x-freertos-debug/obj/sal.o
                                                  /home/vboxuser/Desktop/topst/cr5-bsp/sources/build/tcc805x/gcc/tcc805x-freertos-debug/obj/vector.o
ARM_ExceptSwiHndlr                                /home/vboxuser/Desktop/topst/cr5-bsp/sources/build/tcc805x/gcc/tcc805x-freertos-debug/obj/sal.o
                                                  /home/vboxuser/Desktop/topst/cr5-bsp/sources/build/tcc805x/gcc/tcc805x-freertos-debug/obj/vector.o
ARM_ExceptUndefInstrHndlr                         /home/vboxuser/Desktop/topst/cr5-bsp/sources/build/tcc805x/gcc/tcc805x-freertos-debug/obj/sal.o
                                                  /home/vboxuser/Desktop/topst/cr5-bsp/sources/build/tcc805x/gcc/tcc805x-freertos-debug/obj/vector.o
ARM_Reserved                                      /home/vboxuser/Desktop/topst/cr5-bsp/sources/build/tcc805x/gcc/tcc805x-freertos-debug/obj/vector.o
                                                  /home/vboxuser/Desktop/topst/cr5-bsp/sources/build/tcc805x/gcc/tcc805x-freertos-debug/obj/bsp.o
ArbitrationPhaseTimingPar                         /home/vboxuser/Desktop/topst/cr5-bsp/sources/build/tcc805x/gcc/tcc805x-freertos-debug/obj/can_par.o
                                                  /home/vboxuser/Desktop/topst/cr5-bsp/sources/build/tcc805x/gcc/tcc805x-freertos-debug/obj/can_drv.o
BCTRL_Init                                        /home/vboxuser/Desktop/topst/cr5-bsp/sources/build/tcc805x/gcc/tcc805x-freertos-debug/obj/bootctrl.o
                                                  /home/vboxuser/Desktop/topst/cr5-bsp/sources/build/tcc805x/gcc/tcc805x-freertos-debug/obj/main.o
BSP_Init                                          /home/vboxuser/Desktop/topst/cr5-bsp/sources/build/tcc805x/gcc/tcc805x-freertos-debug/obj/bsp.o
                                                  /home/vboxuser/Desktop/topst/cr5-bsp/sources/build/tcc805x/gcc/tcc805x-freertos-debug/obj/main.o
BSP_PreInit                                       /home/vboxuser/Desktop/topst/cr5-bsp/sources/build/tcc805x/gcc/tcc805x-freertos-debug/obj/bsp.o
                                                  /home/vboxuser/Desktop/topst/cr5-bsp/sources/build/tcc805x/gcc/tcc805x-freertos-debug/obj/main.o
BSP_SystemHalt                                    /home/vboxuser/Desktop/topst/cr5-bsp/sources/build/tcc805x/gcc/tcc805x-freertos-debug/obj/bsp.o
BSP_UndefAbortExceptionHook                       /home/vboxuser/Desktop/topst/cr5-bsp/sources/build/tcc805x/gcc/tcc805x-freertos-debug/obj/bsp.o
                                                  /home/vboxuser/Desktop/topst/cr5-bsp/sources/build/tcc805x/gcc/tcc805x-freertos-debug/obj/freertos.o
CANCallbackFunctions                              /home/vboxuser/Desktop/topst/cr5-bsp/sources/build/tcc805x/gcc/tcc805x-freertos-debug/obj/can_par.o
                                                  /home/vboxuser/Desktop/topst/cr5-bsp/sources/build/tcc805x/gcc/tcc805x-freertos-debug/obj/can_drv.o
                                                  /home/vboxuser/Desktop/topst/cr5-bsp/sources/build/tcc805x/gcc/tcc805x-freertos-debug/obj/can.o
CAN_CheckNewRxMessage                             /home/vboxuser/Desktop/topst/cr5-bsp/sources/build/tcc805x/gcc/tcc805x-freertos-debug/obj/can.o
                                                  /home/vboxuser/Desktop/topst/cr5-bsp/sources/build/tcc805x/gcc/tcc805x-freertos-debug/obj/can_demo.o
CAN_CheckNewTxEvent                               /home/vboxuser/Desktop/topst/cr5-bsp/sources/build/tcc805x/gcc/tcc805x-freertos-debug/obj/can.o
                                                  /home/vboxuser/Desktop/topst/cr5-bsp/sources/build/tcc805x/gcc/tcc805x-freertos-debug/obj/can_demo.o
CAN_Deinit                                        /home/vboxuser/Desktop/topst/cr5-bsp/sources/build/tcc805x/gcc/tcc805x-freertos-debug/obj/can.o
CAN_DemoCreateApp                                 /home/vboxuser/Desktop/topst/cr5-bsp/sources/build/tcc805x/gcc/tcc805x-freertos-debug/obj/can_demo.o
CAN_DemoInitialize                                /home/vboxuser/Desktop/topst/cr5-bsp/sources/build/tcc805x/gcc/tcc805x-freertos-debug/obj/can_demo.o
                                                  /home/vboxuser/Desktop/topst/cr5-bsp/sources/build/tcc805x/gcc/tcc805x-freertos-debug/obj/main.o
CAN_DemoTest                                      /home/vboxuser/Desktop/topst/cr5-bsp/sources/build/tcc805x/gcc/tcc805x-freertos-debug/obj/can_demo.o
                                                  /home/vboxuser/Desktop/topst/cr5-bsp/sources/build/tcc805x/gcc/tcc805x-freertos-debug/obj/console.o
CAN_DrvCallbackNotifyRxEvent                      /home/vboxuser/Desktop/topst/cr5-bsp/sources/build/tcc805x/gcc/tcc805x-freertos-debug/obj/can_drv.o
                                                  /home/vboxuser/Desktop/topst/cr5-bsp/sources/build/tcc805x/gcc/tcc805x-freertos-debug/obj/can_msg.o
CAN_DrvDeinitChannel                              /home/vboxuser/Desktop/topst/cr5-bsp/sources/build/tcc805x/gcc/tcc805x-freertos-debug/obj/can_drv.o
                                                  /home/vboxuser/Desktop/topst/cr5-bsp/sources/build/tcc805x/gcc/tcc805x-freertos-debug/obj/can.o
CAN_DrvGetProtocolStatus                          /home/vboxuser/Desktop/topst/cr5-bsp/sources/build/tcc805x/gcc/tcc805x-freertos-debug/obj/can_drv.o
                                                  /home/vboxuser/Desktop/topst/cr5-bsp/sources/build/tcc805x/gcc/tcc805x-freertos-debug/obj/can.o
CAN_DrvInitChannel                                /home/vboxuser/Desktop/topst/cr5-bsp/sources/build/tcc805x/gcc/tcc805x-freertos-debug/obj/can_drv.o
                                                  /home/vboxuser/Desktop/topst/cr5-bsp/sources/build/tcc805x/gcc/tcc805x-freertos-debug/obj/can.o
CAN_DrvSetExternalTestMode                        /home/vboxuser/Desktop/topst/cr5-bsp/sources/build/tcc805x/gcc/tcc805x-freertos-debug/obj/can_drv.o
                                                  /home/vboxuser/Desktop/topst/cr5-bsp/sources/build/tcc805x/gcc/tcc805x-freertos-debug/obj/can.o
CAN_DrvSetInternalTestMode                        /home/vboxuser/Desktop/topst/cr5-bsp/sources/build/tcc805x/gcc/tcc805x-freertos-debug/obj/can_drv.o
                                                  /home/vboxuser/Desktop/topst/cr5-bsp/sources/build/tcc805x/gcc/tcc805x-freertos-debug/obj/can.o
CAN_DrvSetMonitoringMode                          /home/vboxuser/Desktop/topst/cr5-bsp/sources/build/tcc805x/gcc/tcc805x-freertos-debug/obj/can_drv.o
                                                  /home/vboxuser/Desktop/topst/cr5-bsp/sources/build/tcc805x/gcc/tcc805x-freertos-debug/obj/can.o
CAN_DrvSetNormalOperationMode                     /home/vboxuser/Desktop/topst/cr5-bsp/sources/build/tcc805x/gcc/tcc805x-freertos-debug/obj/can_drv.o
                                                  /home/vboxuser/Desktop/topst/cr5-bsp/sources/build/tcc805x/gcc/tcc805x-freertos-debug/obj/can.o
CAN_DrvSetSleepMode                               /home/vboxuser/Desktop/topst/cr5-bsp/sources/build/tcc805x/gcc/tcc805x-freertos-debug/obj/can_drv.o
                                                  /home/vboxuser/Desktop/topst/cr5-bsp/sources/build/tcc805x/gcc/tcc805x-freertos-debug/obj/can.o
CAN_DrvSetWakeUpMode                              /home/vboxuser/Desktop/topst/cr5-bsp/sources/build/tcc805x/gcc/tcc805x-freertos-debug/obj/can_drv.o
                                                  /home/vboxuser/Desktop/topst/cr5-bsp/sources/build/tcc805x/gcc/tcc805x-freertos-debug/obj/can.o
CAN_GetControllerInfo                             /home/vboxuser/Desktop/topst/cr5-bsp/sources/build/tcc805x/gcc/tcc805x-freertos-debug/obj/can.o
                                                  /home/vboxuser/Desktop/topst/cr5-bsp/sources/build/tcc805x/gcc/tcc805x-freertos-debug/obj/can_msg.o
                                                  /home/vboxuser/Desktop/topst/cr5-bsp/sources/build/tcc805x/gcc/tcc805x-freertos-debug/obj/can_drv.o
CAN_GetControllerMode                             /home/vboxuser/Desktop/topst/cr5-bsp/sources/build/tcc805x/gcc/tcc805x-freertos-debug/obj/can.o
CAN_GetNewRxMessage                               /home/vboxuser/Desktop/topst/cr5-bsp/sources/build/tcc805x/gcc/tcc805x-freertos-debug/obj/can.o
                                                  /home/vboxuser/Desktop/topst/cr5-bsp/sources/build/tcc805x/gcc/tcc805x-freertos-debug/obj/can_demo.o
CAN_GetNewTxEvent                                 /home/vboxuser/Desktop/topst/cr5-bsp/sources/build/tcc805x/gcc/tcc805x-freertos-debug/obj/can.o
                                                  /home/vboxuser/Desktop/topst/cr5-bsp/sources/build/tcc805x/gcc/tcc805x-freertos-debug/obj/can_demo.o
CAN_GetProtocolStatus                             /home/vboxuser/Desktop/topst/cr5-bsp/sources/build/tcc805x/gcc/tcc805x-freertos-debug/obj/can.o
                                                  /home/vboxuser/Desktop/topst/cr5-bsp/sources/build/tcc805x/gcc/tcc805x-freertos-debug/obj/can_demo.o
CAN_Init                                          /home/vboxuser/Desktop/topst/cr5-bsp/sources/build/tcc805x/gcc/tcc805x-freertos-debug/obj/can.o
                                                  /home/vboxuser/Desktop/topst/cr5-bsp/sources/build/tcc805x/gcc/tcc805x-freertos-debug/obj/can_drv.o
                                                  /home/vboxuser/Desktop/topst/cr5-bsp/sources/build/tcc805x/gcc/tcc805x-freertos-debug/obj/can_demo.o
CAN_InitMessage                                   /home/vboxuser/Desktop/topst/cr5-bsp/sources/build/tcc805x/gcc/tcc805x-freertos-debug/obj/can.o
                                                  /home/vboxuser/Desktop/topst/cr5-bsp/sources/build/tcc805x/gcc/tcc805x-freertos-debug/obj/can_demo.o
CAN_MsgGetCountOfRxMessage                        /home/vboxuser/Desktop/topst/cr5-bsp/sources/build/tcc805x/gcc/tcc805x-freertos-debug/obj/can_msg.o
                                                  /home/vboxuser/Desktop/topst/cr5-bsp/sources/build/tcc805x/gcc/tcc805x-freertos-debug/obj/can.o
CAN_MsgGetCountOfTxEvent                          /home/vboxuser/Desktop/topst/cr5-bsp/sources/build/tcc805x/gcc/tcc805x-freertos-debug/obj/can_msg.o
                                                  /home/vboxuser/Desktop/topst/cr5-bsp/sources/build/tcc805x/gcc/tcc805x-freertos-debug/obj/can.o
CAN_MsgGetRxMessage                               /home/vboxuser/Desktop/topst/cr5-bsp/sources/build/tcc805x/gcc/tcc805x-freertos-debug/obj/can_msg.o
                                                  /home/vboxuser/Desktop/topst/cr5-bsp/sources/build/tcc805x/gcc/tcc805x-freertos-debug/obj/can.o
CAN_MsgGetTxEventMessage                          /home/vboxuser/Desktop/topst/cr5-bsp/sources/build/tcc805x/gcc/tcc805x-freertos-debug/obj/can_msg.o
                                                  /home/vboxuser/Desktop/topst/cr5-bsp/sources/build/tcc805x/gcc/tcc805x-freertos-debug/obj/can.o
CAN_MsgInit                                       /home/vboxuser/Desktop/topst/cr5-bsp/sources/build/tcc805x/gcc/tcc805x-freertos-debug/obj/can_msg.o
                                                  /home/vboxuser/Desktop/topst/cr5-bsp/sources/build/tcc805x/gcc/tcc805x-freertos-debug/obj/can_drv.o
                                                  /home/vboxuser/Desktop/topst/cr5-bsp/sources/build/tcc805x/gcc/tcc805x-freertos-debug/obj/can.o
CAN_MsgPutRxMessage                               /home/vboxuser/Desktop/topst/cr5-bsp/sources/build/tcc805x/gcc/tcc805x-freertos-debug/obj/can_msg.o
                                                  /home/vboxuser/Desktop/topst/cr5-bsp/sources/build/tcc805x/gcc/tcc805x-freertos-debug/obj/can_drv.o
CAN_MsgRequestTxMessageCancellation               /home/vboxuser/Desktop/topst/cr5-bsp/sources/build/tcc805x/gcc/tcc805x-freertos-debug/obj/can_msg.o
                                                  /home/vboxuser/Desktop/topst/cr5-bsp/sources/build/tcc805x/gcc/tcc805x-freertos-debug/obj/can.o
CAN_MsgSetTxMessage                               /home/vboxuser/Desktop/topst/cr5-bsp/sources/build/tcc805x/gcc/tcc805x-freertos-debug/obj/can_msg.o
                                                  /home/vboxuser/Desktop/topst/cr5-bsp/sources/build/tcc805x/gcc/tcc805x-freertos-debug/obj/can.o
CAN_PortingAllocateNonCacheMemory                 /home/vboxuser/Desktop/topst/cr5-bsp/sources/build/tcc805x/gcc/tcc805x-freertos-debug/obj/can_porting.o
                                                  /home/vboxuser/Desktop/topst/cr5-bsp/sources/build/tcc805x/gcc/tcc805x-freertos-debug/obj/can_drv.o
CAN_PortingDeallocateNonCacheMemory               /home/vboxuser/Desktop/topst/cr5-bsp/sources/build/tcc805x/gcc/tcc805x-freertos-debug/obj/can_porting.o
                                                  /home/vboxuser/Desktop/topst/cr5-bsp/sources/build/tcc805x/gcc/tcc805x-freertos-debug/obj/can_drv.o
CAN_PortingDelay                                  /home/vboxuser/Desktop/topst/cr5-bsp/sources/build/tcc805x/gcc/tcc805x-freertos-debug/obj/can_porting.o
                                                  /home/vboxuser/Desktop/topst/cr5-bsp/sources/build/tcc805x/gcc/tcc805x-freertos-debug/obj/can_drv.o
                                                  /home/vboxuser/Desktop/topst/cr5-bsp/sources/build/tcc805x/gcc/tcc805x-freertos-debug/obj/can_demo.o
CAN_PortingDisableControllerInterrupts            /home/vboxuser/Desktop/topst/cr5-bsp/sources/build/tcc805x/gcc/tcc805x-freertos-debug/obj/can_porting.o
                                                  /home/vboxuser/Desktop/topst/cr5-bsp/sources/build/tcc805x/gcc/tcc805x-freertos-debug/obj/can.o
CAN_PortingEnableControllerInterrupts             /home/vboxuser/Desktop/topst/cr5-bsp/sources/build/tcc805x/gcc/tcc805x-freertos-debug/obj/can_porting.o
                                                  /home/vboxuser/Desktop/topst/cr5-bsp/sources/build/tcc805x/gcc/tcc805x-freertos-debug/obj/can.o
CAN_PortingGetBitRateSwitchEnable                 /home/vboxuser/Desktop/topst/cr5-bsp/sources/build/tcc805x/gcc/tcc805x-freertos-debug/obj/can_porting.o
                                                  /home/vboxuser/Desktop/topst/cr5-bsp/sources/build/tcc805x/gcc/tcc805x-freertos-debug/obj/can_drv.o
CAN_PortingGetConfigBaseAddr                      /home/vboxuser/Desktop/topst/cr5-bsp/sources/build/tcc805x/gcc/tcc805x-freertos-debug/obj/can_porting.o
CAN_PortingGetConfigEXTS0Addr                     /home/vboxuser/Desktop/topst/cr5-bsp/sources/build/tcc805x/gcc/tcc805x-freertos-debug/obj/can_porting.o
                                                  /home/vboxuser/Desktop/topst/cr5-bsp/sources/build/tcc805x/gcc/tcc805x-freertos-debug/obj/can_drv.o
CAN_PortingGetConfigEXTS1Addr                     /home/vboxuser/Desktop/topst/cr5-bsp/sources/build/tcc805x/gcc/tcc805x-freertos-debug/obj/can_porting.o
                                                  /home/vboxuser/Desktop/topst/cr5-bsp/sources/build/tcc805x/gcc/tcc805x-freertos-debug/obj/can_drv.o
CAN_PortingGetConfigWriteLockAddr                 /home/vboxuser/Desktop/topst/cr5-bsp/sources/build/tcc805x/gcc/tcc805x-freertos-debug/obj/can_porting.o
CAN_PortingGetConfigWritePasswordAddr             /home/vboxuser/Desktop/topst/cr5-bsp/sources/build/tcc805x/gcc/tcc805x-freertos-debug/obj/can_porting.o
CAN_PortingGetControllerRegister                  /home/vboxuser/Desktop/topst/cr5-bsp/sources/build/tcc805x/gcc/tcc805x-freertos-debug/obj/can_porting.o
                                                  /home/vboxuser/Desktop/topst/cr5-bsp/sources/build/tcc805x/gcc/tcc805x-freertos-debug/obj/can_drv.o
CAN_PortingGetExtendedIDFilterEnable              /home/vboxuser/Desktop/topst/cr5-bsp/sources/build/tcc805x/gcc/tcc805x-freertos-debug/obj/can_porting.o
                                                  /home/vboxuser/Desktop/topst/cr5-bsp/sources/build/tcc805x/gcc/tcc805x-freertos-debug/obj/can_drv.o
CAN_PortingGetExtendedIDRemoteRejectEnable        /home/vboxuser/Desktop/topst/cr5-bsp/sources/build/tcc805x/gcc/tcc805x-freertos-debug/obj/can_porting.o
                                                  /home/vboxuser/Desktop/topst/cr5-bsp/sources/build/tcc805x/gcc/tcc805x-freertos-debug/obj/can_drv.o
CAN_PortingGetFDEnable                            /home/vboxuser/Desktop/topst/cr5-bsp/sources/build/tcc805x/gcc/tcc805x-freertos-debug/obj/can_porting.o
                                                  /home/vboxuser/Desktop/topst/cr5-bsp/sources/build/tcc805x/gcc/tcc805x-freertos-debug/obj/can_drv.o
CAN_PortingGetMessageRamBaseAddr                  /home/vboxuser/Desktop/topst/cr5-bsp/sources/build/tcc805x/gcc/tcc805x-freertos-debug/obj/can_porting.o
                                                  /home/vboxuser/Desktop/topst/cr5-bsp/sources/build/tcc805x/gcc/tcc805x-freertos-debug/obj/can_drv.o
CAN_PortingGetSizeofExtendedIDFilterList          /home/vboxuser/Desktop/topst/cr5-bsp/sources/build/tcc805x/gcc/tcc805x-freertos-debug/obj/can_porting.o
                                                  /home/vboxuser/Desktop/topst/cr5-bsp/sources/build/tcc805x/gcc/tcc805x-freertos-debug/obj/can_drv.o
CAN_PortingGetSizeofRxBuffer                      /home/vboxuser/Desktop/topst/cr5-bsp/sources/build/tcc805x/gcc/tcc805x-freertos-debug/obj/can_porting.o
                                                  /home/vboxuser/Desktop/topst/cr5-bsp/sources/build/tcc805x/gcc/tcc805x-freertos-debug/obj/can_drv.o
CAN_PortingGetSizeofRxFIFO0                       /home/vboxuser/Desktop/topst/cr5-bsp/sources/build/tcc805x/gcc/tcc805x-freertos-debug/obj/can_porting.o
                                                  /home/vboxuser/Desktop/topst/cr5-bsp/sources/build/tcc805x/gcc/tcc805x-freertos-debug/obj/can_drv.o
CAN_PortingGetSizeofRxFIFO1                       /home/vboxuser/Desktop/topst/cr5-bsp/sources/build/tcc805x/gcc/tcc805x-freertos-debug/obj/can_porting.o
                                                  /home/vboxuser/Desktop/topst/cr5-bsp/sources/build/tcc805x/gcc/tcc805x-freertos-debug/obj/can_drv.o
CAN_PortingGetSizeofStandardIDFilterList          /home/vboxuser/Desktop/topst/cr5-bsp/sources/build/tcc805x/gcc/tcc805x-freertos-debug/obj/can_porting.o
                                                  /home/vboxuser/Desktop/topst/cr5-bsp/sources/build/tcc805x/gcc/tcc805x-freertos-debug/obj/can_drv.o
CAN_PortingGetSizeofTxBuffer                      /home/vboxuser/Desktop/topst/cr5-bsp/sources/build/tcc805x/gcc/tcc805x-freertos-debug/obj/can_porting.o
                                                  /home/vboxuser/Desktop/topst/cr5-bsp/sources/build/tcc805x/gcc/tcc805x-freertos-debug/obj/can_drv.o
CAN_PortingGetSizeofTxEventBuffer                 /home/vboxuser/Desktop/topst/cr5-bsp/sources/build/tcc805x/gcc/tcc805x-freertos-debug/obj/can_porting.o
                                                  /home/vboxuser/Desktop/topst/cr5-bsp/sources/build/tcc805x/gcc/tcc805x-freertos-debug/obj/can_drv.o
CAN_PortingGetStandardIDFilterEnable              /home/vboxuser/Desktop/topst/cr5-bsp/sources/build/tcc805x/gcc/tcc805x-freertos-debug/obj/can_porting.o
                                                  /home/vboxuser/Desktop/topst/cr5-bsp/sources/build/tcc805x/gcc/tcc805x-freertos-debug/obj/can_drv.o
CAN_PortingGetStandardIDRemoteRejectEnable        /home/vboxuser/Desktop/topst/cr5-bsp/sources/build/tcc805x/gcc/tcc805x-freertos-debug/obj/can_porting.o
                                                  /home/vboxuser/Desktop/topst/cr5-bsp/sources/build/tcc805x/gcc/tcc805x-freertos-debug/obj/can_drv.o
CAN_PortingGetTimeOutEnable                       /home/vboxuser/Desktop/topst/cr5-bsp/sources/build/tcc805x/gcc/tcc805x-freertos-debug/obj/can_porting.o
                                                  /home/vboxuser/Desktop/topst/cr5-bsp/sources/build/tcc805x/gcc/tcc805x-freertos-debug/obj/can_drv.o
CAN_PortingGetTimeStampEnable                     /home/vboxuser/Desktop/topst/cr5-bsp/sources/build/tcc805x/gcc/tcc805x-freertos-debug/obj/can_porting.o
                                                  /home/vboxuser/Desktop/topst/cr5-bsp/sources/build/tcc805x/gcc/tcc805x-freertos-debug/obj/can_drv.o
CAN_PortingGetTxEventFIFOEnable                   /home/vboxuser/Desktop/topst/cr5-bsp/sources/build/tcc805x/gcc/tcc805x-freertos-debug/obj/can_porting.o
                                                  /home/vboxuser/Desktop/topst/cr5-bsp/sources/build/tcc805x/gcc/tcc805x-freertos-debug/obj/can_drv.o
CAN_PortingGetWatchDogEnable                      /home/vboxuser/Desktop/topst/cr5-bsp/sources/build/tcc805x/gcc/tcc805x-freertos-debug/obj/can_porting.o
                                                  /home/vboxuser/Desktop/topst/cr5-bsp/sources/build/tcc805x/gcc/tcc805x-freertos-debug/obj/can_drv.o
CAN_PortingInitHW                                 /home/vboxuser/Desktop/topst/cr5-bsp/sources/build/tcc805x/gcc/tcc805x-freertos-debug/obj/can_porting.o
                                                  /home/vboxuser/Desktop/topst/cr5-bsp/sources/build/tcc805x/gcc/tcc805x-freertos-debug/obj/can_drv.o
CAN_PortingResetDriver                            /home/vboxuser/Desktop/topst/cr5-bsp/sources/build/tcc805x/gcc/tcc805x-freertos-debug/obj/can_porting.o
                                                  /home/vboxuser/Desktop/topst/cr5-bsp/sources/build/tcc805x/gcc/tcc805x-freertos-debug/obj/can_drv.o
                                                  /home/vboxuser/Desktop/topst/cr5-bsp/sources/build/tcc805x/gcc/tcc805x-freertos-debug/obj/can.o
CAN_PortingSetControllerClock                     /home/vboxuser/Desktop/topst/cr5-bsp/sources/build/tcc805x/gcc/tcc805x-freertos-debug/obj/can_porting.o
                                                  /home/vboxuser/Desktop/topst/cr5-bsp/sources/build/tcc805x/gcc/tcc805x-freertos-debug/obj/can_drv.o
CAN_PortingSetInterruptHandler                    /home/vboxuser/Desktop/topst/cr5-bsp/sources/build/tcc805x/gcc/tcc805x-freertos-debug/obj/can_porting.o
                                                  /home/vboxuser/Desktop/topst/cr5-bsp/sources/build/tcc805x/gcc/tcc805x-freertos-debug/obj/can_drv.o
CAN_RegisterCallbackFunctionError                 /home/vboxuser/Desktop/topst/cr5-bsp/sources/build/tcc805x/gcc/tcc805x-freertos-debug/obj/can.o
                                                  /home/vboxuser/Desktop/topst/cr5-bsp/sources/build/tcc805x/gcc/tcc805x-freertos-debug/obj/can_demo.o
CAN_RegisterCallbackFunctionRx                    /home/vboxuser/Desktop/topst/cr5-bsp/sources/build/tcc805x/gcc/tcc805x-freertos-debug/obj/can.o
                                                  /home/vboxuser/Desktop/topst/cr5-bsp/sources/build/tcc805x/gcc/tcc805x-freertos-debug/obj/can_demo.o
CAN_RegisterCallbackFunctionTx                    /home/vboxuser/Desktop/topst/cr5-bsp/sources/build/tcc805x/gcc/tcc805x-freertos-debug/obj/can.o
                                                  /home/vboxuser/Desktop/topst/cr5-bsp/sources/build/tcc805x/gcc/tcc805x-freertos-debug/obj/can_demo.o
CAN_RequestTxMessageCancellation                  /home/vboxuser/Desktop/topst/cr5-bsp/sources/build/tcc805x/gcc/tcc805x-freertos-debug/obj/can.o
CAN_SendMessage                                   /home/vboxuser/Desktop/topst/cr5-bsp/sources/build/tcc805x/gcc/tcc805x-freertos-debug/obj/can.o
                                                  /home/vboxuser/Desktop/topst/cr5-bsp/sources/build/tcc805x/gcc/tcc805x-freertos-debug/obj/can_demo.o
CAN_SetControllerMode                             /home/vboxuser/Desktop/topst/cr5-bsp/sources/build/tcc805x/gcc/tcc805x-freertos-debug/obj/can.o
CLOCK_DisablePeri                                 /home/vboxuser/Desktop/topst/cr5-bsp/sources/build/tcc805x/gcc/tcc805x-freertos-debug/obj/clock_dev.o
                                                  /home/vboxuser/Desktop/topst/cr5-bsp/sources/build/tcc805x/gcc/tcc805x-freertos-debug/obj/pdm.o
                                                  /home/vboxuser/Desktop/topst/cr5-bsp/sources/build/tcc805x/gcc/tcc805x-freertos-debug/obj/ictc.o
                                                  /home/vboxuser/Desktop/topst/cr5-bsp/sources/build/tcc805x/gcc/tcc805x-freertos-debug/obj/i2c.o
                                                  /home/vboxuser/Desktop/topst/cr5-bsp/sources/build/tcc805x/gcc/tcc805x-freertos-debug/obj/adc.o
CLOCK_EnableIobus                                 /home/vboxuser/Desktop/topst/cr5-bsp/sources/build/tcc805x/gcc/tcc805x-freertos-debug/obj/clock_dev.o
                                                  /home/vboxuser/Desktop/topst/cr5-bsp/sources/build/tcc805x/gcc/tcc805x-freertos-debug/obj/udma.o
                                                  /home/vboxuser/Desktop/topst/cr5-bsp/sources/build/tcc805x/gcc/tcc805x-freertos-debug/obj/gdma.o
CLOCK_EnablePeri                                  /home/vboxuser/Desktop/topst/cr5-bsp/sources/build/tcc805x/gcc/tcc805x-freertos-debug/obj/clock_dev.o
                                                  /home/vboxuser/Desktop/topst/cr5-bsp/sources/build/tcc805x/gcc/tcc805x-freertos-debug/obj/uart.o
                                                  /home/vboxuser/Desktop/topst/cr5-bsp/sources/build/tcc805x/gcc/tcc805x-freertos-debug/obj/timer.o
                                                  /home/vboxuser/Desktop/topst/cr5-bsp/sources/build/tcc805x/gcc/tcc805x-freertos-debug/obj/gpsb.o
                                                  /home/vboxuser/Desktop/topst/cr5-bsp/sources/build/tcc805x/gcc/tcc805x-freertos-debug/obj/pdm.o
                                                  /home/vboxuser/Desktop/topst/cr5-bsp/sources/build/tcc805x/gcc/tcc805x-freertos-debug/obj/ictc.o
                                                  /home/vboxuser/Desktop/topst/cr5-bsp/sources/build/tcc805x/gcc/tcc805x-freertos-debug/obj/i2c.o
                                                  /home/vboxuser/Desktop/topst/cr5-bsp/sources/build/tcc805x/gcc/tcc805x-freertos-debug/obj/can_porting.o
                                                  /home/vboxuser/Desktop/topst/cr5-bsp/sources/build/tcc805x/gcc/tcc805x-freertos-debug/obj/adc.o
CLOCK_GetClkCtrlRate                              /home/vboxuser/Desktop/topst/cr5-bsp/sources/build/tcc805x/gcc/tcc805x-freertos-debug/obj/clock_dev.o
CLOCK_GetPeriRate                                 /home/vboxuser/Desktop/topst/cr5-bsp/sources/build/tcc805x/gcc/tcc805x-freertos-debug/obj/clock_dev.o
                                                  /home/vboxuser/Desktop/topst/cr5-bsp/sources/build/tcc805x/gcc/tcc805x-freertos-debug/obj/uart.o
                                                  /home/vboxuser/Desktop/topst/cr5-bsp/sources/build/tcc805x/gcc/tcc805x-freertos-debug/obj/timer.o
                                                  /home/vboxuser/Desktop/topst/cr5-bsp/sources/build/tcc805x/gcc/tcc805x-freertos-debug/obj/pdm.o
                                                  /home/vboxuser/Desktop/topst/cr5-bsp/sources/build/tcc805x/gcc/tcc805x-freertos-debug/obj/ictc.o
                                                  /home/vboxuser/Desktop/topst/cr5-bsp/sources/build/tcc805x/gcc/tcc805x-freertos-debug/obj/i2c.o
CLOCK_GetPllRate                                  /home/vboxuser/Desktop/topst/cr5-bsp/sources/build/tcc805x/gcc/tcc805x-freertos-debug/obj/clock_dev.o
CLOCK_Init                                        /home/vboxuser/Desktop/topst/cr5-bsp/sources/build/tcc805x/gcc/tcc805x-freertos-debug/obj/clock_dev.o
                                                  /home/vboxuser/Desktop/topst/cr5-bsp/sources/build/tcc805x/gcc/tcc805x-freertos-debug/obj/bsp.o
CLOCK_IsIobusPwdn                                 /home/vboxuser/Desktop/topst/cr5-bsp/sources/build/tcc805x/gcc/tcc805x-freertos-debug/obj/clock_dev.o
CLOCK_IsPeriEnabled                               /home/vboxuser/Desktop/topst/cr5-bsp/sources/build/tcc805x/gcc/tcc805x-freertos-debug/obj/clock_dev.o
CLOCK_SetClkCtrlRate                              /home/vboxuser/Desktop/topst/cr5-bsp/sources/build/tcc805x/gcc/tcc805x-freertos-debug/obj/clock_dev.o
CLOCK_SetIobusPwdn                                /home/vboxuser/Desktop/topst/cr5-bsp/sources/build/tcc805x/gcc/tcc805x-freertos-debug/obj/clock_dev.o
                                                  /home/vboxuser/Desktop/topst/cr5-bsp/sources/build/tcc805x/gcc/tcc805x-freertos-debug/obj/uart.o
                                                  /home/vboxuser/Desktop/topst/cr5-bsp/sources/build/tcc805x/gcc/tcc805x-freertos-debug/obj/gpsb.o
                                                  /home/vboxuser/Desktop/topst/cr5-bsp/sources/build/tcc805x/gcc/tcc805x-freertos-debug/obj/i2c.o
CLOCK_SetPeriRate                                 /home/vboxuser/Desktop/topst/cr5-bsp/sources/build/tcc805x/gcc/tcc805x-freertos-debug/obj/clock_dev.o
                                                  /home/vboxuser/Desktop/topst/cr5-bsp/sources/build/tcc805x/gcc/tcc805x-freertos-debug/obj/uart.o
                                                  /home/vboxuser/Desktop/topst/cr5-bsp/sources/build/tcc805x/gcc/tcc805x-freertos-debug/obj/timer.o
                                                  /home/vboxuser/Desktop/topst/cr5-bsp/sources/build/tcc805x/gcc/tcc805x-freertos-debug/obj/gpsb.o
                                                  /home/vboxuser/Desktop/topst/cr5-bsp/sources/build/tcc805x/gcc/tcc805x-freertos-debug/obj/pdm.o
                                                  /home/vboxuser/Desktop/topst/cr5-bsp/sources/build/tcc805x/gcc/tcc805x-freertos-debug/obj/ictc.o
                                                  /home/vboxuser/Desktop/topst/cr5-bsp/sources/build/tcc805x/gcc/tcc805x-freertos-debug/obj/i2c.o
                                                  /home/vboxuser/Desktop/topst/cr5-bsp/sources/build/tcc805x/gcc/tcc805x-freertos-debug/obj/can_porting.o
                                                  /home/vboxuser/Desktop/topst/cr5-bsp/sources/build/tcc805x/gcc/tcc805x-freertos-debug/obj/adc.o
CLOCK_SetPllDiv                                   /home/vboxuser/Desktop/topst/cr5-bsp/sources/build/tcc805x/gcc/tcc805x-freertos-debug/obj/clock_dev.o
CLOCK_SetPllRate                                  /home/vboxuser/Desktop/topst/cr5-bsp/sources/build/tcc805x/gcc/tcc805x-freertos-debug/obj/clock_dev.o
CLOCK_SetSwReset                                  /home/vboxuser/Desktop/topst/cr5-bsp/sources/build/tcc805x/gcc/tcc805x-freertos-debug/obj/clock_dev.o
                                                  /home/vboxuser/Desktop/topst/cr5-bsp/sources/build/tcc805x/gcc/tcc805x-freertos-debug/obj/udma.o
                                                  /home/vboxuser/Desktop/topst/cr5-bsp/sources/build/tcc805x/gcc/tcc805x-freertos-debug/obj/uart.o
                                                  /home/vboxuser/Desktop/topst/cr5-bsp/sources/build/tcc805x/gcc/tcc805x-freertos-debug/obj/gpsb.o
                                                  /home/vboxuser/Desktop/topst/cr5-bsp/sources/build/tcc805x/gcc/tcc805x-freertos-debug/obj/i2c.o
CPU_SR_Restore                                    /home/vboxuser/Desktop/topst/cr5-bsp/sources/build/tcc805x/gcc/tcc805x-freertos-debug/obj/freertos.o
                                                  /home/vboxuser/Desktop/topst/cr5-bsp/sources/build/tcc805x/gcc/tcc805x-freertos-debug/obj/sal_freertos_impl.o
CPU_SR_Save                                       /home/vboxuser/Desktop/topst/cr5-bsp/sources/build/tcc805x/gcc/tcc805x-freertos-debug/obj/freertos.o
                                                  /home/vboxuser/Desktop/topst/cr5-bsp/sources/build/tcc805x/gcc/tcc805x-freertos-debug/obj/sal_freertos_impl.o
CPU_WaitForEvent                                  /home/vboxuser/Desktop/topst/cr5-bsp/sources/build/tcc805x/gcc/tcc805x-freertos-debug/obj/freertos.o
                                                  /home/vboxuser/Desktop/topst/cr5-bsp/sources/build/tcc805x/gcc/tcc805x-freertos-debug/obj/sal_freertos_impl.o
CreateConsoleTask                                 /home/vboxuser/Desktop/topst/cr5-bsp/sources/build/tcc805x/gcc/tcc805x-freertos-debug/obj/console.o
                                                  /home/vboxuser/Desktop/topst/cr5-bsp/sources/build/tcc805x/gcc/tcc805x-freertos-debug/obj/main.o
Create_Motor_System_Task                          /home/vboxuser/Desktop/topst/cr5-bsp/sources/build/tcc805x/gcc/tcc805x-freertos-debug/obj/Motor_System.o
                                                  /home/vboxuser/Desktop/topst/cr5-bsp/sources/build/tcc805x/gcc/tcc805x-freertos-debug/obj/main.o
DBG_Printfi                                       /home/vboxuser/Desktop/topst/cr5-bsp/sources/build/tcc805x/gcc/tcc805x-freertos-debug/obj/debug.o
DBG_Putc                                          /home/vboxuser/Desktop/topst/cr5-bsp/sources/build/tcc805x/gcc/tcc805x-freertos-debug/obj/debug.o
DBG_SerialPrintf                                  /home/vboxuser/Desktop/topst/cr5-bsp/sources/build/tcc805x/gcc/tcc805x-freertos-debug/obj/debug.o
                                                  /home/vboxuser/Desktop/topst/cr5-bsp/sources/build/tcc805x/gcc/tcc805x-freertos-debug/obj/sal_freertos_impl.o
                                                  /home/vboxuser/Desktop/topst/cr5-bsp/sources/build/tcc805x/gcc/tcc805x-freertos-debug/obj/pmu_reset.o
                                                  /home/vboxuser/Desktop/topst/cr5-bsp/sources/build/tcc805x/gcc/tcc805x-freertos-debug/obj/dse.o
                                                  /home/vboxuser/Desktop/topst/cr5-bsp/sources/build/tcc805x/gcc/tcc805x-freertos-debug/obj/wdt.o
                                                  /home/vboxuser/Desktop/topst/cr5-bsp/sources/build/tcc805x/gcc/tcc805x-freertos-debug/obj/uart.o
                                                  /home/vboxuser/Desktop/topst/cr5-bsp/sources/build/tcc805x/gcc/tcc805x-freertos-debug/obj/timer.o
                                                  /home/vboxuser/Desktop/topst/cr5-bsp/sources/build/tcc805x/gcc/tcc805x-freertos-debug/obj/gpsb.o
                                                  /home/vboxuser/Desktop/topst/cr5-bsp/sources/build/tcc805x/gcc/tcc805x-freertos-debug/obj/pmio_dev.o
                                                  /home/vboxuser/Desktop/topst/cr5-bsp/sources/build/tcc805x/gcc/tcc805x-freertos-debug/obj/pdm.o
                                                  /home/vboxuser/Desktop/topst/cr5-bsp/sources/build/tcc805x/gcc/tcc805x-freertos-debug/obj/mbox.o
                                                  /home/vboxuser/Desktop/topst/cr5-bsp/sources/build/tcc805x/gcc/tcc805x-freertos-debug/obj/mbox_dev.o
                                                  /home/vboxuser/Desktop/topst/cr5-bsp/sources/build/tcc805x/gcc/tcc805x-freertos-debug/obj/ictc.o
                                                  /home/vboxuser/Desktop/topst/cr5-bsp/sources/build/tcc805x/gcc/tcc805x-freertos-debug/obj/i2c.o
                                                  /home/vboxuser/Desktop/topst/cr5-bsp/sources/build/tcc805x/gcc/tcc805x-freertos-debug/obj/gpio.o
                                                  /home/vboxuser/Desktop/topst/cr5-bsp/sources/build/tcc805x/gcc/tcc805x-freertos-debug/obj/gdma.o
                                                  /home/vboxuser/Desktop/topst/cr5-bsp/sources/build/tcc805x/gcc/tcc805x-freertos-debug/obj/fmu.o
                                                  /home/vboxuser/Desktop/topst/cr5-bsp/sources/build/tcc805x/gcc/tcc805x-freertos-debug/obj/bsp.o
                                                  /home/vboxuser/Desktop/topst/cr5-bsp/sources/build/tcc805x/gcc/tcc805x-freertos-debug/obj/can_drv.o
                                                  /home/vboxuser/Desktop/topst/cr5-bsp/sources/build/tcc805x/gcc/tcc805x-freertos-debug/obj/can.o
                                                  /home/vboxuser/Desktop/topst/cr5-bsp/sources/build/tcc805x/gcc/tcc805x-freertos-debug/obj/adc.o
                                                  /home/vboxuser/Desktop/topst/cr5-bsp/sources/build/tcc805x/gcc/tcc805x-freertos-debug/obj/hsm_manager.o
                                                  /home/vboxuser/Desktop/topst/cr5-bsp/sources/build/tcc805x/gcc/tcc805x-freertos-debug/obj/sdm.o
                                                  /home/vboxuser/Desktop/topst/cr5-bsp/sources/build/tcc805x/gcc/tcc805x-freertos-debug/obj/lin.o
                                                  /home/vboxuser/Desktop/topst/cr5-bsp/sources/build/tcc805x/gcc/tcc805x-freertos-debug/obj/ipc_api.o
                                                  /home/vboxuser/Desktop/topst/cr5-bsp/sources/build/tcc805x/gcc/tcc805x-freertos-debug/obj/ipc_ctl.o
                                                  /home/vboxuser/Desktop/topst/cr5-bsp/sources/build/tcc805x/gcc/tcc805x-freertos-debug/obj/ipc_buffer.o
                                                  /home/vboxuser/Desktop/topst/cr5-bsp/sources/build/tcc805x/gcc/tcc805x-freertos-debug/obj/mptool.o
                                                  /home/vboxuser/Desktop/topst/cr5-bsp/sources/build/tcc805x/gcc/tcc805x-freertos-debug/obj/Motor_System.o
                                                  /home/vboxuser/Desktop/topst/cr5-bsp/sources/build/tcc805x/gcc/tcc805x-freertos-debug/obj/pwm_test.o
                                                  /home/vboxuser/Desktop/topst/cr5-bsp/sources/build/tcc805x/gcc/tcc805x-freertos-debug/obj/wdt_test.o
                                                  /home/vboxuser/Desktop/topst/cr5-bsp/sources/build/tcc805x/gcc/tcc805x-freertos-debug/obj/timer_test.o
                                                  /home/vboxuser/Desktop/topst/cr5-bsp/sources/build/tcc805x/gcc/tcc805x-freertos-debug/obj/pmio_test.o
                                                  /home/vboxuser/Desktop/topst/cr5-bsp/sources/build/tcc805x/gcc/tcc805x-freertos-debug/obj/pdm_test.o
                                                  /home/vboxuser/Desktop/topst/cr5-bsp/sources/build/tcc805x/gcc/tcc805x-freertos-debug/obj/lin_test.o
                                                  /home/vboxuser/Desktop/topst/cr5-bsp/sources/build/tcc805x/gcc/tcc805x-freertos-debug/obj/ictc_test.o
                                                  /home/vboxuser/Desktop/topst/cr5-bsp/sources/build/tcc805x/gcc/tcc805x-freertos-debug/obj/i2c_test.o
                                                  /home/vboxuser/Desktop/topst/cr5-bsp/sources/build/tcc805x/gcc/tcc805x-freertos-debug/obj/hsm_test.o
                                                  /home/vboxuser/Desktop/topst/cr5-bsp/sources/build/tcc805x/gcc/tcc805x-freertos-debug/obj/gpsb_test.o
                                                  /home/vboxuser/Desktop/topst/cr5-bsp/sources/build/tcc805x/gcc/tcc805x-freertos-debug/obj/gpio_test.o
                                                  /home/vboxuser/Desktop/topst/cr5-bsp/sources/build/tcc805x/gcc/tcc805x-freertos-debug/obj/gic_test.o
                                                  /home/vboxuser/Desktop/topst/cr5-bsp/sources/build/tcc805x/gcc/tcc805x-freertos-debug/obj/gdma_test.o
                                                  /home/vboxuser/Desktop/topst/cr5-bsp/sources/build/tcc805x/gcc/tcc805x-freertos-debug/obj/fmu_test.o
                                                  /home/vboxuser/Desktop/topst/cr5-bsp/sources/build/tcc805x/gcc/tcc805x-freertos-debug/obj/dse_test.o
                                                  /home/vboxuser/Desktop/topst/cr5-bsp/sources/build/tcc805x/gcc/tcc805x-freertos-debug/obj/adc_test.o
                                                  /home/vboxuser/Desktop/topst/cr5-bsp/sources/build/tcc805x/gcc/tcc805x-freertos-debug/obj/reset_demo.o
                                                  /home/vboxuser/Desktop/topst/cr5-bsp/sources/build/tcc805x/gcc/tcc805x-freertos-debug/obj/bootctrl.o
                                                  /home/vboxuser/Desktop/topst/cr5-bsp/sources/build/tcc805x/gcc/tcc805x-freertos-debug/obj/key_i2c.o
                                                  /home/vboxuser/Desktop/topst/cr5-bsp/sources/build/tcc805x/gcc/tcc805x-freertos-debug/obj/fwug.o
                                                  /home/vboxuser/Desktop/topst/cr5-bsp/sources/build/tcc805x/gcc/tcc805x-freertos-debug/obj/console.o
                                                  /home/vboxuser/Desktop/topst/cr5-bsp/sources/build/tcc805x/gcc/tcc805x-freertos-debug/obj/can_demo.o
                                                  /home/vboxuser/Desktop/topst/cr5-bsp/sources/build/tcc805x/gcc/tcc805x-freertos-debug/obj/main.o
DSE_Deinit                                        /home/vboxuser/Desktop/topst/cr5-bsp/sources/build/tcc805x/gcc/tcc805x-freertos-debug/obj/dse.o
                                                  /home/vboxuser/Desktop/topst/cr5-bsp/sources/build/tcc805x/gcc/tcc805x-freertos-debug/obj/dse_test.o
DSE_GetGrpSts                                     /home/vboxuser/Desktop/topst/cr5-bsp/sources/build/tcc805x/gcc/tcc805x-freertos-debug/obj/dse.o
                                                  /home/vboxuser/Desktop/topst/cr5-bsp/sources/build/tcc805x/gcc/tcc805x-freertos-debug/obj/dse_test.o
DSE_Init                                          /home/vboxuser/Desktop/topst/cr5-bsp/sources/build/tcc805x/gcc/tcc805x-freertos-debug/obj/dse.o
                                                  /home/vboxuser/Desktop/topst/cr5-bsp/sources/build/tcc805x/gcc/tcc805x-freertos-debug/obj/dse_test.o
DSE_Test_R5AccessFault                            /home/vboxuser/Desktop/topst/cr5-bsp/sources/build/tcc805x/gcc/tcc805x-freertos-debug/obj/dse_test.o
                                                  /home/vboxuser/Desktop/topst/cr5-bsp/sources/build/tcc805x/gcc/tcc805x-freertos-debug/obj/console.o
DSE_Test_SoftFaultCheck                           /home/vboxuser/Desktop/topst/cr5-bsp/sources/build/tcc805x/gcc/tcc805x-freertos-debug/obj/dse_test.o
                                                  /home/vboxuser/Desktop/topst/cr5-bsp/sources/build/tcc805x/gcc/tcc805x-freertos-debug/obj/console.o
DSE_WriteLock                                     /home/vboxuser/Desktop/topst/cr5-bsp/sources/build/tcc805x/gcc/tcc805x-freertos-debug/obj/dse.o
                                                  /home/vboxuser/Desktop/topst/cr5-bsp/sources/build/tcc805x/gcc/tcc805x-freertos-debug/obj/dse_test.o
DataPhaseTimingPar                                /home/vboxuser/Desktop/topst/cr5-bsp/sources/build/tcc805x/gcc/tcc805x-freertos-debug/obj/can_par.o
                                                  /home/vboxuser/Desktop/topst/cr5-bsp/sources/build/tcc805x/gcc/tcc805x-freertos-debug/obj/can_drv.o
ExtendedIDFilterPar                               /home/vboxuser/Desktop/topst/cr5-bsp/sources/build/tcc805x/gcc/tcc805x-freertos-debug/obj/can_par.o
                                                  /home/vboxuser/Desktop/topst/cr5-bsp/sources/build/tcc805x/gcc/tcc805x-freertos-debug/obj/can_drv.o
FMU_Deinit                                        /home/vboxuser/Desktop/topst/cr5-bsp/sources/build/tcc805x/gcc/tcc805x-freertos-debug/obj/fmu.o
                                                  /home/vboxuser/Desktop/topst/cr5-bsp/sources/build/tcc805x/gcc/tcc805x-freertos-debug/obj/gpsb_test.o
FMU_Init                                          /home/vboxuser/Desktop/topst/cr5-bsp/sources/build/tcc805x/gcc/tcc805x-freertos-debug/obj/fmu.o
                                                  /home/vboxuser/Desktop/topst/cr5-bsp/sources/build/tcc805x/gcc/tcc805x-freertos-debug/obj/bsp.o
FMU_IsrClr                                        /home/vboxuser/Desktop/topst/cr5-bsp/sources/build/tcc805x/gcc/tcc805x-freertos-debug/obj/fmu.o
                                                  /home/vboxuser/Desktop/topst/cr5-bsp/sources/build/tcc805x/gcc/tcc805x-freertos-debug/obj/midf.o
                                                  /home/vboxuser/Desktop/topst/cr5-bsp/sources/build/tcc805x/gcc/tcc805x-freertos-debug/obj/wdt.o
                                                  /home/vboxuser/Desktop/topst/cr5-bsp/sources/build/tcc805x/gcc/tcc805x-freertos-debug/obj/pdm.o
                                                  /home/vboxuser/Desktop/topst/cr5-bsp/sources/build/tcc805x/gcc/tcc805x-freertos-debug/obj/gpsb_test.o
                                                  /home/vboxuser/Desktop/topst/cr5-bsp/sources/build/tcc805x/gcc/tcc805x-freertos-debug/obj/fmu_test.o
                                                  /home/vboxuser/Desktop/topst/cr5-bsp/sources/build/tcc805x/gcc/tcc805x-freertos-debug/obj/dse_test.o
                                                  /home/vboxuser/Desktop/topst/cr5-bsp/sources/build/tcc805x/gcc/tcc805x-freertos-debug/obj/adc_test.o
FMU_IsrHandler                                    /home/vboxuser/Desktop/topst/cr5-bsp/sources/build/tcc805x/gcc/tcc805x-freertos-debug/obj/fmu.o
                                                  /home/vboxuser/Desktop/topst/cr5-bsp/sources/build/tcc805x/gcc/tcc805x-freertos-debug/obj/midf.o
                                                  /home/vboxuser/Desktop/topst/cr5-bsp/sources/build/tcc805x/gcc/tcc805x-freertos-debug/obj/wdt.o
                                                  /home/vboxuser/Desktop/topst/cr5-bsp/sources/build/tcc805x/gcc/tcc805x-freertos-debug/obj/pdm.o
                                                  /home/vboxuser/Desktop/topst/cr5-bsp/sources/build/tcc805x/gcc/tcc805x-freertos-debug/obj/gpsb_test.o
                                                  /home/vboxuser/Desktop/topst/cr5-bsp/sources/build/tcc805x/gcc/tcc805x-freertos-debug/obj/fmu_test.o
                                                  /home/vboxuser/Desktop/topst/cr5-bsp/sources/build/tcc805x/gcc/tcc805x-freertos-debug/obj/dse_test.o
                                                  /home/vboxuser/Desktop/topst/cr5-bsp/sources/build/tcc805x/gcc/tcc805x-freertos-debug/obj/adc_test.o
FMU_Set                                           /home/vboxuser/Desktop/topst/cr5-bsp/sources/build/tcc805x/gcc/tcc805x-freertos-debug/obj/fmu.o
                                                  /home/vboxuser/Desktop/topst/cr5-bsp/sources/build/tcc805x/gcc/tcc805x-freertos-debug/obj/midf.o
                                                  /home/vboxuser/Desktop/topst/cr5-bsp/sources/build/tcc805x/gcc/tcc805x-freertos-debug/obj/wdt.o
                                                  /home/vboxuser/Desktop/topst/cr5-bsp/sources/build/tcc805x/gcc/tcc805x-freertos-debug/obj/pdm.o
                                                  /home/vboxuser/Desktop/topst/cr5-bsp/sources/build/tcc805x/gcc/tcc805x-freertos-debug/obj/gpsb_test.o
                                                  /home/vboxuser/Desktop/topst/cr5-bsp/sources/build/tcc805x/gcc/tcc805x-freertos-debug/obj/fmu_test.o
                                                  /home/vboxuser/Desktop/topst/cr5-bsp/sources/build/tcc805x/gcc/tcc805x-freertos-debug/obj/dse_test.o
                                                  /home/vboxuser/Desktop/topst/cr5-bsp/sources/build/tcc805x/gcc/tcc805x-freertos-debug/obj/adc_test.o
FMU_StartFmuTest                                  /home/vboxuser/Desktop/topst/cr5-bsp/sources/build/tcc805x/gcc/tcc805x-freertos-debug/obj/fmu_test.o
                                                  /home/vboxuser/Desktop/topst/cr5-bsp/sources/build/tcc805x/gcc/tcc805x-freertos-debug/obj/console.o
FWUG_CreateApp                                    /home/vboxuser/Desktop/topst/cr5-bsp/sources/build/tcc805x/gcc/tcc805x-freertos-debug/obj/fwug.o
FWUG_Start                                        /home/vboxuser/Desktop/topst/cr5-bsp/sources/build/tcc805x/gcc/tcc805x-freertos-debug/obj/fwug.o
                                                  /home/vboxuser/Desktop/topst/cr5-bsp/sources/build/tcc805x/gcc/tcc805x-freertos-debug/obj/console.o
FreeRTOS_ARM_DRegCntGet                           /home/vboxuser/Desktop/topst/cr5-bsp/sources/build/tcc805x/gcc/tcc805x-freertos-debug/obj/freertos.o
FreeRTOS_ARM_ExceptDataAbortHndlr                 /home/vboxuser/Desktop/topst/cr5-bsp/sources/build/tcc805x/gcc/tcc805x-freertos-debug/obj/freertos.o
                                                  /home/vboxuser/Desktop/topst/cr5-bsp/sources/build/tcc805x/gcc/tcc805x-freertos-debug/obj/sal.o
FreeRTOS_ARM_ExceptFiqHndlr                       /home/vboxuser/Desktop/topst/cr5-bsp/sources/build/tcc805x/gcc/tcc805x-freertos-debug/obj/freertos.o
                                                  /home/vboxuser/Desktop/topst/cr5-bsp/sources/build/tcc805x/gcc/tcc805x-freertos-debug/obj/sal.o
FreeRTOS_ARM_ExceptIrqHndlr                       /home/vboxuser/Desktop/topst/cr5-bsp/sources/build/tcc805x/gcc/tcc805x-freertos-debug/obj/freertos.o
                                                  /home/vboxuser/Desktop/topst/cr5-bsp/sources/build/tcc805x/gcc/tcc805x-freertos-debug/obj/sal.o
FreeRTOS_ARM_ExceptPrefetchAbortHndlr             /home/vboxuser/Desktop/topst/cr5-bsp/sources/build/tcc805x/gcc/tcc805x-freertos-debug/obj/freertos.o
                                                  /home/vboxuser/Desktop/topst/cr5-bsp/sources/build/tcc805x/gcc/tcc805x-freertos-debug/obj/sal.o
FreeRTOS_ARM_ExceptSwiHndlr                       /home/vboxuser/Desktop/topst/cr5-bsp/sources/build/tcc805x/gcc/tcc805x-freertos-debug/obj/freertos.o
                                                  /home/vboxuser/Desktop/topst/cr5-bsp/sources/build/tcc805x/gcc/tcc805x-freertos-debug/obj/sal.o
FreeRTOS_ARM_ExceptUndefInstrHndlr                /home/vboxuser/Desktop/topst/cr5-bsp/sources/build/tcc805x/gcc/tcc805x-freertos-debug/obj/freertos.o
                                                  /home/vboxuser/Desktop/topst/cr5-bsp/sources/build/tcc805x/gcc/tcc805x-freertos-debug/obj/sal.o
FreeRTOS_IRQ_Handler                              /home/vboxuser/Desktop/topst/cr5-bsp/sources/build/tcc805x/gcc/tcc805x-freertos-debug/obj/portASM.o
                                                  /home/vboxuser/Desktop/topst/cr5-bsp/sources/build/tcc805x/gcc/tcc805x-freertos-debug/obj/freertos.o
FreeRTOS_SWI_Handler                              /home/vboxuser/Desktop/topst/cr5-bsp/sources/build/tcc805x/gcc/tcc805x-freertos-debug/obj/portASM.o
                                                  /home/vboxuser/Desktop/topst/cr5-bsp/sources/build/tcc805x/gcc/tcc805x-freertos-debug/obj/freertos.o
FreeRTOS_Tick_Handler                             /home/vboxuser/Desktop/topst/cr5-bsp/sources/build/tcc805x/gcc/tcc805x-freertos-debug/obj/port.o
                                                  /home/vboxuser/Desktop/topst/cr5-bsp/sources/build/tcc805x/gcc/tcc805x-freertos-debug/obj/sal_freertos_impl.o
GDMA_Initialize                                   /home/vboxuser/Desktop/topst/cr5-bsp/sources/build/tcc805x/gcc/tcc805x-freertos-debug/obj/gdma.o
                                                  /home/vboxuser/Desktop/topst/cr5-bsp/sources/build/tcc805x/gcc/tcc805x-freertos-debug/obj/gdma_test.o
GDMA_SampleForM2M                                 /home/vboxuser/Desktop/topst/cr5-bsp/sources/build/tcc805x/gcc/tcc805x-freertos-debug/obj/gdma_test.o
                                                  /home/vboxuser/Desktop/topst/cr5-bsp/sources/build/tcc805x/gcc/tcc805x-freertos-debug/obj/console.o
GDMA_TransferFunctionForM2M                       /home/vboxuser/Desktop/topst/cr5-bsp/sources/build/tcc805x/gcc/tcc805x-freertos-debug/obj/gdma.o
                                                  /home/vboxuser/Desktop/topst/cr5-bsp/sources/build/tcc805x/gcc/tcc805x-freertos-debug/obj/gdma_test.o
GIC_Init                                          /home/vboxuser/Desktop/topst/cr5-bsp/sources/build/tcc805x/gcc/tcc805x-freertos-debug/obj/gic.o
                                                  /home/vboxuser/Desktop/topst/cr5-bsp/sources/build/tcc805x/gcc/tcc805x-freertos-debug/obj/bsp.o
GIC_IntExtSet                                     /home/vboxuser/Desktop/topst/cr5-bsp/sources/build/tcc805x/gcc/tcc805x-freertos-debug/obj/gic.o
GIC_IntHandler                                    /home/vboxuser/Desktop/topst/cr5-bsp/sources/build/tcc805x/gcc/tcc805x-freertos-debug/obj/gic.o
GIC_IntHandlerWithParam                           /home/vboxuser/Desktop/topst/cr5-bsp/sources/build/tcc805x/gcc/tcc805x-freertos-debug/obj/gic.o
                                                  /home/vboxuser/Desktop/topst/cr5-bsp/sources/build/tcc805x/gcc/tcc805x-freertos-debug/obj/port.o
GIC_IntPrioSet                                    /home/vboxuser/Desktop/topst/cr5-bsp/sources/build/tcc805x/gcc/tcc805x-freertos-debug/obj/gic.o
GIC_IntSGI                                        /home/vboxuser/Desktop/topst/cr5-bsp/sources/build/tcc805x/gcc/tcc805x-freertos-debug/obj/gic.o
                                                  /home/vboxuser/Desktop/topst/cr5-bsp/sources/build/tcc805x/gcc/tcc805x-freertos-debug/obj/gic_test.o
GIC_IntSrcDis                                     /home/vboxuser/Desktop/topst/cr5-bsp/sources/build/tcc805x/gcc/tcc805x-freertos-debug/obj/gic.o
                                                  /home/vboxuser/Desktop/topst/cr5-bsp/sources/build/tcc805x/gcc/tcc805x-freertos-debug/obj/dse.o
                                                  /home/vboxuser/Desktop/topst/cr5-bsp/sources/build/tcc805x/gcc/tcc805x-freertos-debug/obj/wdt.o
                                                  /home/vboxuser/Desktop/topst/cr5-bsp/sources/build/tcc805x/gcc/tcc805x-freertos-debug/obj/uart.o
                                                  /home/vboxuser/Desktop/topst/cr5-bsp/sources/build/tcc805x/gcc/tcc805x-freertos-debug/obj/timer.o
                                                  /home/vboxuser/Desktop/topst/cr5-bsp/sources/build/tcc805x/gcc/tcc805x-freertos-debug/obj/gpsb.o
                                                  /home/vboxuser/Desktop/topst/cr5-bsp/sources/build/tcc805x/gcc/tcc805x-freertos-debug/obj/i2c.o
                                                  /home/vboxuser/Desktop/topst/cr5-bsp/sources/build/tcc805x/gcc/tcc805x-freertos-debug/obj/fmu.o
                                                  /home/vboxuser/Desktop/topst/cr5-bsp/sources/build/tcc805x/gcc/tcc805x-freertos-debug/obj/can_porting.o
                                                  /home/vboxuser/Desktop/topst/cr5-bsp/sources/build/tcc805x/gcc/tcc805x-freertos-debug/obj/adc.o
                                                  /home/vboxuser/Desktop/topst/cr5-bsp/sources/build/tcc805x/gcc/tcc805x-freertos-debug/obj/ipc_os.o
                                                  /home/vboxuser/Desktop/topst/cr5-bsp/sources/build/tcc805x/gcc/tcc805x-freertos-debug/obj/timer_test.o
                                                  /home/vboxuser/Desktop/topst/cr5-bsp/sources/build/tcc805x/gcc/tcc805x-freertos-debug/obj/gic_test.o
                                                  /home/vboxuser/Desktop/topst/cr5-bsp/sources/build/tcc805x/gcc/tcc805x-freertos-debug/obj/fwug.o
GIC_IntSrcEn                                      /home/vboxuser/Desktop/topst/cr5-bsp/sources/build/tcc805x/gcc/tcc805x-freertos-debug/obj/gic.o
                                                  /home/vboxuser/Desktop/topst/cr5-bsp/sources/build/tcc805x/gcc/tcc805x-freertos-debug/obj/port.o
                                                  /home/vboxuser/Desktop/topst/cr5-bsp/sources/build/tcc805x/gcc/tcc805x-freertos-debug/obj/pmu_reset.o
                                                  /home/vboxuser/Desktop/topst/cr5-bsp/sources/build/tcc805x/gcc/tcc805x-freertos-debug/obj/dse.o
                                                  /home/vboxuser/Desktop/topst/cr5-bsp/sources/build/tcc805x/gcc/tcc805x-freertos-debug/obj/wdt.o
                                                  /home/vboxuser/Desktop/topst/cr5-bsp/sources/build/tcc805x/gcc/tcc805x-freertos-debug/obj/udma.o
                                                  /home/vboxuser/Desktop/topst/cr5-bsp/sources/build/tcc805x/gcc/tcc805x-freertos-debug/obj/uart.o
                                                  /home/vboxuser/Desktop/topst/cr5-bsp/sources/build/tcc805x/gcc/tcc805x-freertos-debug/obj/gpsb.o
                                                  /home/vboxuser/Desktop/topst/cr5-bsp/sources/build/tcc805x/gcc/tcc805x-freertos-debug/obj/pmio_dev.o
                                                  /home/vboxuser/Desktop/topst/cr5-bsp/sources/build/tcc805x/gcc/tcc805x-freertos-debug/obj/mbox_dev.o
                                                  /home/vboxuser/Desktop/topst/cr5-bsp/sources/build/tcc805x/gcc/tcc805x-freertos-debug/obj/ictc.o
                                                  /home/vboxuser/Desktop/topst/cr5-bsp/sources/build/tcc805x/gcc/tcc805x-freertos-debug/obj/i2c.o
                                                  /home/vboxuser/Desktop/topst/cr5-bsp/sources/build/tcc805x/gcc/tcc805x-freertos-debug/obj/gdma.o
                                                  /home/vboxuser/Desktop/topst/cr5-bsp/sources/build/tcc805x/gcc/tcc805x-freertos-debug/obj/fmu.o
                                                  /home/vboxuser/Desktop/topst/cr5-bsp/sources/build/tcc805x/gcc/tcc805x-freertos-debug/obj/can_porting.o
                                                  /home/vboxuser/Desktop/topst/cr5-bsp/sources/build/tcc805x/gcc/tcc805x-freertos-debug/obj/adc.o
                                                  /home/vboxuser/Desktop/topst/cr5-bsp/sources/build/tcc805x/gcc/tcc805x-freertos-debug/obj/ipc_os.o
                                                  /home/vboxuser/Desktop/topst/cr5-bsp/sources/build/tcc805x/gcc/tcc805x-freertos-debug/obj/wdt_test.o
                                                  /home/vboxuser/Desktop/topst/cr5-bsp/sources/build/tcc805x/gcc/tcc805x-freertos-debug/obj/timer_test.o
                                                  /home/vboxuser/Desktop/topst/cr5-bsp/sources/build/tcc805x/gcc/tcc805x-freertos-debug/obj/gic_test.o
                                                  /home/vboxuser/Desktop/topst/cr5-bsp/sources/build/tcc805x/gcc/tcc805x-freertos-debug/obj/adc_test.o
GIC_IntVectSet                                    /home/vboxuser/Desktop/topst/cr5-bsp/sources/build/tcc805x/gcc/tcc805x-freertos-debug/obj/gic.o
                                                  /home/vboxuser/Desktop/topst/cr5-bsp/sources/build/tcc805x/gcc/tcc805x-freertos-debug/obj/port.o
                                                  /home/vboxuser/Desktop/topst/cr5-bsp/sources/build/tcc805x/gcc/tcc805x-freertos-debug/obj/pmu_reset.o
                                                  /home/vboxuser/Desktop/topst/cr5-bsp/sources/build/tcc805x/gcc/tcc805x-freertos-debug/obj/dse.o
                                                  /home/vboxuser/Desktop/topst/cr5-bsp/sources/build/tcc805x/gcc/tcc805x-freertos-debug/obj/wdt.o
                                                  /home/vboxuser/Desktop/topst/cr5-bsp/sources/build/tcc805x/gcc/tcc805x-freertos-debug/obj/udma.o
                                                  /home/vboxuser/Desktop/topst/cr5-bsp/sources/build/tcc805x/gcc/tcc805x-freertos-debug/obj/uart.o
                                                  /home/vboxuser/Desktop/topst/cr5-bsp/sources/build/tcc805x/gcc/tcc805x-freertos-debug/obj/timer.o
                                                  /home/vboxuser/Desktop/topst/cr5-bsp/sources/build/tcc805x/gcc/tcc805x-freertos-debug/obj/gpsb.o
                                                  /home/vboxuser/Desktop/topst/cr5-bsp/sources/build/tcc805x/gcc/tcc805x-freertos-debug/obj/pmio_dev.o
                                                  /home/vboxuser/Desktop/topst/cr5-bsp/sources/build/tcc805x/gcc/tcc805x-freertos-debug/obj/mbox_dev.o
                                                  /home/vboxuser/Desktop/topst/cr5-bsp/sources/build/tcc805x/gcc/tcc805x-freertos-debug/obj/ictc.o
                                                  /home/vboxuser/Desktop/topst/cr5-bsp/sources/build/tcc805x/gcc/tcc805x-freertos-debug/obj/i2c.o
                                                  /home/vboxuser/Desktop/topst/cr5-bsp/sources/build/tcc805x/gcc/tcc805x-freertos-debug/obj/gdma.o
                                                  /home/vboxuser/Desktop/topst/cr5-bsp/sources/build/tcc805x/gcc/tcc805x-freertos-debug/obj/fmu.o
                                                  /home/vboxuser/Desktop/topst/cr5-bsp/sources/build/tcc805x/gcc/tcc805x-freertos-debug/obj/can_porting.o
                                                  /home/vboxuser/Desktop/topst/cr5-bsp/sources/build/tcc805x/gcc/tcc805x-freertos-debug/obj/adc.o
                                                  /home/vboxuser/Desktop/topst/cr5-bsp/sources/build/tcc805x/gcc/tcc805x-freertos-debug/obj/ipc_os.o
                                                  /home/vboxuser/Desktop/topst/cr5-bsp/sources/build/tcc805x/gcc/tcc805x-freertos-debug/obj/timer_test.o
                                                  /home/vboxuser/Desktop/topst/cr5-bsp/sources/build/tcc805x/gcc/tcc805x-freertos-debug/obj/gic_test.o
                                                  /home/vboxuser/Desktop/topst/cr5-bsp/sources/build/tcc805x/gcc/tcc805x-freertos-debug/obj/adc_test.o
GIC_SmIrqEn                                       /home/vboxuser/Desktop/topst/cr5-bsp/sources/build/tcc805x/gcc/tcc805x-freertos-debug/obj/gic.o
                                                  /home/vboxuser/Desktop/topst/cr5-bsp/sources/build/tcc805x/gcc/tcc805x-freertos-debug/obj/gic_test.o
GIC_SmIrqSetHigh                                  /home/vboxuser/Desktop/topst/cr5-bsp/sources/build/tcc805x/gcc/tcc805x-freertos-debug/obj/gic.o
                                                  /home/vboxuser/Desktop/topst/cr5-bsp/sources/build/tcc805x/gcc/tcc805x-freertos-debug/obj/gic_test.o
GIC_Test_Sgi                                      /home/vboxuser/Desktop/topst/cr5-bsp/sources/build/tcc805x/gcc/tcc805x-freertos-debug/obj/gic_test.o
                                                  /home/vboxuser/Desktop/topst/cr5-bsp/sources/build/tcc805x/gcc/tcc805x-freertos-debug/obj/console.o
GIC_Test_SmInt                                    /home/vboxuser/Desktop/topst/cr5-bsp/sources/build/tcc805x/gcc/tcc805x-freertos-debug/obj/gic_test.o
                                                  /home/vboxuser/Desktop/topst/cr5-bsp/sources/build/tcc805x/gcc/tcc805x-freertos-debug/obj/console.o
GPIO_Config                                       /home/vboxuser/Desktop/topst/cr5-bsp/sources/build/tcc805x/gcc/tcc805x-freertos-debug/obj/gpio.o
                                                  /home/vboxuser/Desktop/topst/cr5-bsp/sources/build/tcc805x/gcc/tcc805x-freertos-debug/obj/uart.o
                                                  /home/vboxuser/Desktop/topst/cr5-bsp/sources/build/tcc805x/gcc/tcc805x-freertos-debug/obj/gpsb.o
                                                  /home/vboxuser/Desktop/topst/cr5-bsp/sources/build/tcc805x/gcc/tcc805x-freertos-debug/obj/i2c.o
                                                  /home/vboxuser/Desktop/topst/cr5-bsp/sources/build/tcc805x/gcc/tcc805x-freertos-debug/obj/can_porting.o
                                                  /home/vboxuser/Desktop/topst/cr5-bsp/sources/build/tcc805x/gcc/tcc805x-freertos-debug/obj/lin.o
                                                  /home/vboxuser/Desktop/topst/cr5-bsp/sources/build/tcc805x/gcc/tcc805x-freertos-debug/obj/mptool.o
                                                  /home/vboxuser/Desktop/topst/cr5-bsp/sources/build/tcc805x/gcc/tcc805x-freertos-debug/obj/Motor_System.o
                                                  /home/vboxuser/Desktop/topst/cr5-bsp/sources/build/tcc805x/gcc/tcc805x-freertos-debug/obj/pwm_test.o
                                                  /home/vboxuser/Desktop/topst/cr5-bsp/sources/build/tcc805x/gcc/tcc805x-freertos-debug/obj/pdm_test.o
                                                  /home/vboxuser/Desktop/topst/cr5-bsp/sources/build/tcc805x/gcc/tcc805x-freertos-debug/obj/ictc_test.o
                                                  /home/vboxuser/Desktop/topst/cr5-bsp/sources/build/tcc805x/gcc/tcc805x-freertos-debug/obj/gpio_test.o
                                                  /home/vboxuser/Desktop/topst/cr5-bsp/sources/build/tcc805x/gcc/tcc805x-freertos-debug/obj/key_gpio.o
                                                  /home/vboxuser/Desktop/topst/cr5-bsp/sources/build/tcc805x/gcc/tcc805x-freertos-debug/obj/key_adc.o
GPIO_Get                                          /home/vboxuser/Desktop/topst/cr5-bsp/sources/build/tcc805x/gcc/tcc805x-freertos-debug/obj/gpio.o
                                                  /home/vboxuser/Desktop/topst/cr5-bsp/sources/build/tcc805x/gcc/tcc805x-freertos-debug/obj/mptool.o
                                                  /home/vboxuser/Desktop/topst/cr5-bsp/sources/build/tcc805x/gcc/tcc805x-freertos-debug/obj/Motor_System.o
                                                  /home/vboxuser/Desktop/topst/cr5-bsp/sources/build/tcc805x/gcc/tcc805x-freertos-debug/obj/pwm_test.o
                                                  /home/vboxuser/Desktop/topst/cr5-bsp/sources/build/tcc805x/gcc/tcc805x-freertos-debug/obj/key_gpio.o
                                                  /home/vboxuser/Desktop/topst/cr5-bsp/sources/build/tcc805x/gcc/tcc805x-freertos-debug/obj/key_adc.o
GPIO_Set                                          /home/vboxuser/Desktop/topst/cr5-bsp/sources/build/tcc805x/gcc/tcc805x-freertos-debug/obj/gpio.o
                                                  /home/vboxuser/Desktop/topst/cr5-bsp/sources/build/tcc805x/gcc/tcc805x-freertos-debug/obj/gpsb.o
                                                  /home/vboxuser/Desktop/topst/cr5-bsp/sources/build/tcc805x/gcc/tcc805x-freertos-debug/obj/can_porting.o
                                                  /home/vboxuser/Desktop/topst/cr5-bsp/sources/build/tcc805x/gcc/tcc805x-freertos-debug/obj/lin.o
                                                  /home/vboxuser/Desktop/topst/cr5-bsp/sources/build/tcc805x/gcc/tcc805x-freertos-debug/obj/mptool.o
                                                  /home/vboxuser/Desktop/topst/cr5-bsp/sources/build/tcc805x/gcc/tcc805x-freertos-debug/obj/Motor_System.o
                                                  /home/vboxuser/Desktop/topst/cr5-bsp/sources/build/tcc805x/gcc/tcc805x-freertos-debug/obj/pwm_test.o
GPIO_StartGpioTest                                /home/vboxuser/Desktop/topst/cr5-bsp/sources/build/tcc805x/gcc/tcc805x-freertos-debug/obj/gpio_test.o
                                                  /home/vboxuser/Desktop/topst/cr5-bsp/sources/build/tcc805x/gcc/tcc805x-freertos-debug/obj/console.o
GPIO_ToNum                                        /home/vboxuser/Desktop/topst/cr5-bsp/sources/build/tcc805x/gcc/tcc805x-freertos-debug/obj/gpio.o
                                                  /home/vboxuser/Desktop/topst/cr5-bsp/sources/build/tcc805x/gcc/tcc805x-freertos-debug/obj/gpsb.o
GPSB_BitCSet                                      /home/vboxuser/Desktop/topst/cr5-bsp/sources/build/tcc805x/gcc/tcc805x-freertos-debug/obj/gpsb.o
GPSB_BitClear                                     /home/vboxuser/Desktop/topst/cr5-bsp/sources/build/tcc805x/gcc/tcc805x-freertos-debug/obj/gpsb.o
GPSB_BitSClear                                    /home/vboxuser/Desktop/topst/cr5-bsp/sources/build/tcc805x/gcc/tcc805x-freertos-debug/obj/gpsb.o
GPSB_BitSet                                       /home/vboxuser/Desktop/topst/cr5-bsp/sources/build/tcc805x/gcc/tcc805x-freertos-debug/obj/gpsb.o
GPSB_ClearLbCfg                                   /home/vboxuser/Desktop/topst/cr5-bsp/sources/build/tcc805x/gcc/tcc805x-freertos-debug/obj/gpsb.o
GPSB_Close                                        /home/vboxuser/Desktop/topst/cr5-bsp/sources/build/tcc805x/gcc/tcc805x-freertos-debug/obj/gpsb.o
                                                  /home/vboxuser/Desktop/topst/cr5-bsp/sources/build/tcc805x/gcc/tcc805x-freertos-debug/obj/sdm.o
                                                  /home/vboxuser/Desktop/topst/cr5-bsp/sources/build/tcc805x/gcc/tcc805x-freertos-debug/obj/gpsb_test.o
GPSB_CsActivate                                   /home/vboxuser/Desktop/topst/cr5-bsp/sources/build/tcc805x/gcc/tcc805x-freertos-debug/obj/gpsb.o
                                                  /home/vboxuser/Desktop/topst/cr5-bsp/sources/build/tcc805x/gcc/tcc805x-freertos-debug/obj/gpsb_test.o
GPSB_CsAlloc                                      /home/vboxuser/Desktop/topst/cr5-bsp/sources/build/tcc805x/gcc/tcc805x-freertos-debug/obj/gpsb.o
                                                  /home/vboxuser/Desktop/topst/cr5-bsp/sources/build/tcc805x/gcc/tcc805x-freertos-debug/obj/gpsb_test.o
GPSB_CsDeactivate                                 /home/vboxuser/Desktop/topst/cr5-bsp/sources/build/tcc805x/gcc/tcc805x-freertos-debug/obj/gpsb.o
                                                  /home/vboxuser/Desktop/topst/cr5-bsp/sources/build/tcc805x/gcc/tcc805x-freertos-debug/obj/gpsb_test.o
GPSB_CsInit                                       /home/vboxuser/Desktop/topst/cr5-bsp/sources/build/tcc805x/gcc/tcc805x-freertos-debug/obj/gpsb.o
                                                  /home/vboxuser/Desktop/topst/cr5-bsp/sources/build/tcc805x/gcc/tcc805x-freertos-debug/obj/gpsb_test.o
GPSB_Deinit                                       /home/vboxuser/Desktop/topst/cr5-bsp/sources/build/tcc805x/gcc/tcc805x-freertos-debug/obj/gpsb.o
GPSB_Init                                         /home/vboxuser/Desktop/topst/cr5-bsp/sources/build/tcc805x/gcc/tcc805x-freertos-debug/obj/gpsb.o
                                                  /home/vboxuser/Desktop/topst/cr5-bsp/sources/build/tcc805x/gcc/tcc805x-freertos-debug/obj/bsp.o
GPSB_Open                                         /home/vboxuser/Desktop/topst/cr5-bsp/sources/build/tcc805x/gcc/tcc805x-freertos-debug/obj/gpsb.o
                                                  /home/vboxuser/Desktop/topst/cr5-bsp/sources/build/tcc805x/gcc/tcc805x-freertos-debug/obj/sdm.o
                                                  /home/vboxuser/Desktop/topst/cr5-bsp/sources/build/tcc805x/gcc/tcc805x-freertos-debug/obj/gpsb_test.o
GPSB_Reset                                        /home/vboxuser/Desktop/topst/cr5-bsp/sources/build/tcc805x/gcc/tcc805x-freertos-debug/obj/gpsb.o
GPSB_SafetyDisableLock                            /home/vboxuser/Desktop/topst/cr5-bsp/sources/build/tcc805x/gcc/tcc805x-freertos-debug/obj/gpsb.o
                                                  /home/vboxuser/Desktop/topst/cr5-bsp/sources/build/tcc805x/gcc/tcc805x-freertos-debug/obj/gpsb_test.o
GPSB_SafetyDisableLoopback                        /home/vboxuser/Desktop/topst/cr5-bsp/sources/build/tcc805x/gcc/tcc805x-freertos-debug/obj/gpsb.o
                                                  /home/vboxuser/Desktop/topst/cr5-bsp/sources/build/tcc805x/gcc/tcc805x-freertos-debug/obj/gpsb_test.o
GPSB_SafetyDisableMonitor                         /home/vboxuser/Desktop/topst/cr5-bsp/sources/build/tcc805x/gcc/tcc805x-freertos-debug/obj/gpsb.o
                                                  /home/vboxuser/Desktop/topst/cr5-bsp/sources/build/tcc805x/gcc/tcc805x-freertos-debug/obj/gpsb_test.o
GPSB_SafetyEnableLock                             /home/vboxuser/Desktop/topst/cr5-bsp/sources/build/tcc805x/gcc/tcc805x-freertos-debug/obj/gpsb.o
                                                  /home/vboxuser/Desktop/topst/cr5-bsp/sources/build/tcc805x/gcc/tcc805x-freertos-debug/obj/gpsb_test.o
GPSB_SafetyEnableLoopback                         /home/vboxuser/Desktop/topst/cr5-bsp/sources/build/tcc805x/gcc/tcc805x-freertos-debug/obj/gpsb.o
                                                  /home/vboxuser/Desktop/topst/cr5-bsp/sources/build/tcc805x/gcc/tcc805x-freertos-debug/obj/gpsb_test.o
GPSB_SafetyEnableMonitor                          /home/vboxuser/Desktop/topst/cr5-bsp/sources/build/tcc805x/gcc/tcc805x-freertos-debug/obj/gpsb.o
                                                  /home/vboxuser/Desktop/topst/cr5-bsp/sources/build/tcc805x/gcc/tcc805x-freertos-debug/obj/gpsb_test.o
GPSB_SafetyGetStatus                              /home/vboxuser/Desktop/topst/cr5-bsp/sources/build/tcc805x/gcc/tcc805x-freertos-debug/obj/gpsb.o
                                                  /home/vboxuser/Desktop/topst/cr5-bsp/sources/build/tcc805x/gcc/tcc805x-freertos-debug/obj/gpsb_test.o
GPSB_SetBpw                                       /home/vboxuser/Desktop/topst/cr5-bsp/sources/build/tcc805x/gcc/tcc805x-freertos-debug/obj/gpsb.o
                                                  /home/vboxuser/Desktop/topst/cr5-bsp/sources/build/tcc805x/gcc/tcc805x-freertos-debug/obj/sdm.o
                                                  /home/vboxuser/Desktop/topst/cr5-bsp/sources/build/tcc805x/gcc/tcc805x-freertos-debug/obj/gpsb_test.o
GPSB_SetBpwNoSwap                                 /home/vboxuser/Desktop/topst/cr5-bsp/sources/build/tcc805x/gcc/tcc805x-freertos-debug/obj/gpsb.o
GPSB_SetLbCfg                                     /home/vboxuser/Desktop/topst/cr5-bsp/sources/build/tcc805x/gcc/tcc805x-freertos-debug/obj/gpsb.o
GPSB_SetMode                                      /home/vboxuser/Desktop/topst/cr5-bsp/sources/build/tcc805x/gcc/tcc805x-freertos-debug/obj/gpsb.o
                                                  /home/vboxuser/Desktop/topst/cr5-bsp/sources/build/tcc805x/gcc/tcc805x-freertos-debug/obj/sdm.o
                                                  /home/vboxuser/Desktop/topst/cr5-bsp/sources/build/tcc805x/gcc/tcc805x-freertos-debug/obj/gpsb_test.o
GPSB_SetRvcChannel                                /home/vboxuser/Desktop/topst/cr5-bsp/sources/build/tcc805x/gcc/tcc805x-freertos-debug/obj/gpsb.o
                                                  /home/vboxuser/Desktop/topst/cr5-bsp/sources/build/tcc805x/gcc/tcc805x-freertos-debug/obj/gpsb_test.o
GPSB_SetRvcExtPort                                /home/vboxuser/Desktop/topst/cr5-bsp/sources/build/tcc805x/gcc/tcc805x-freertos-debug/obj/gpsb.o
GPSB_SetSdmChannel                                /home/vboxuser/Desktop/topst/cr5-bsp/sources/build/tcc805x/gcc/tcc805x-freertos-debug/obj/gpsb.o
                                                  /home/vboxuser/Desktop/topst/cr5-bsp/sources/build/tcc805x/gcc/tcc805x-freertos-debug/obj/gpsb_test.o
GPSB_SetSdmExtPort                                /home/vboxuser/Desktop/topst/cr5-bsp/sources/build/tcc805x/gcc/tcc805x-freertos-debug/obj/gpsb.o
GPSB_SetSpeed                                     /home/vboxuser/Desktop/topst/cr5-bsp/sources/build/tcc805x/gcc/tcc805x-freertos-debug/obj/gpsb.o
                                                  /home/vboxuser/Desktop/topst/cr5-bsp/sources/build/tcc805x/gcc/tcc805x-freertos-debug/obj/sdm.o
                                                  /home/vboxuser/Desktop/topst/cr5-bsp/sources/build/tcc805x/gcc/tcc805x-freertos-debug/obj/gpsb_test.o
GPSB_Test                                         /home/vboxuser/Desktop/topst/cr5-bsp/sources/build/tcc805x/gcc/tcc805x-freertos-debug/obj/gpsb_test.o
                                                  /home/vboxuser/Desktop/topst/cr5-bsp/sources/build/tcc805x/gcc/tcc805x-freertos-debug/obj/console.o
GPSB_Xfer                                         /home/vboxuser/Desktop/topst/cr5-bsp/sources/build/tcc805x/gcc/tcc805x-freertos-debug/obj/gpsb.o
                                                  /home/vboxuser/Desktop/topst/cr5-bsp/sources/build/tcc805x/gcc/tcc805x-freertos-debug/obj/sdm.o
                                                  /home/vboxuser/Desktop/topst/cr5-bsp/sources/build/tcc805x/gcc/tcc805x-freertos-debug/obj/gpsb_test.o
GPSB_XferAbort                                    /home/vboxuser/Desktop/topst/cr5-bsp/sources/build/tcc805x/gcc/tcc805x-freertos-debug/obj/gpsb.o
HSM_BlockApSystem                                 /home/vboxuser/Desktop/topst/cr5-bsp/sources/build/tcc805x/gcc/tcc805x-freertos-debug/obj/hsm_manager.o
                                                  /home/vboxuser/Desktop/topst/cr5-bsp/sources/build/tcc805x/gcc/tcc805x-freertos-debug/obj/hsm_test.o
HSM_GenHash                                       /home/vboxuser/Desktop/topst/cr5-bsp/sources/build/tcc805x/gcc/tcc805x-freertos-debug/obj/hsm_manager.o
                                                  /home/vboxuser/Desktop/topst/cr5-bsp/sources/build/tcc805x/gcc/tcc805x-freertos-debug/obj/hsm_test.o
HSM_GenMac                                        /home/vboxuser/Desktop/topst/cr5-bsp/sources/build/tcc805x/gcc/tcc805x-freertos-debug/obj/hsm_manager.o
                                                  /home/vboxuser/Desktop/topst/cr5-bsp/sources/build/tcc805x/gcc/tcc805x-freertos-debug/obj/hsm_test.o
HSM_GenMacByKt                                    /home/vboxuser/Desktop/topst/cr5-bsp/sources/build/tcc805x/gcc/tcc805x-freertos-debug/obj/hsm_manager.o
                                                  /home/vboxuser/Desktop/topst/cr5-bsp/sources/build/tcc805x/gcc/tcc805x-freertos-debug/obj/hsm_test.o
HSM_GetRand                                       /home/vboxuser/Desktop/topst/cr5-bsp/sources/build/tcc805x/gcc/tcc805x-freertos-debug/obj/hsm_manager.o
                                                  /home/vboxuser/Desktop/topst/cr5-bsp/sources/build/tcc805x/gcc/tcc805x-freertos-debug/obj/hsm_test.o
HSM_GetVersion                                    /home/vboxuser/Desktop/topst/cr5-bsp/sources/build/tcc805x/gcc/tcc805x-freertos-debug/obj/hsm_manager.o
                                                  /home/vboxuser/Desktop/topst/cr5-bsp/sources/build/tcc805x/gcc/tcc805x-freertos-debug/obj/hsm_test.o
HSM_Init                                          /home/vboxuser/Desktop/topst/cr5-bsp/sources/build/tcc805x/gcc/tcc805x-freertos-debug/obj/hsm_manager.o
                                                  /home/vboxuser/Desktop/topst/cr5-bsp/sources/build/tcc805x/gcc/tcc805x-freertos-debug/obj/hsm_test.o
                                                  /home/vboxuser/Desktop/topst/cr5-bsp/sources/build/tcc805x/gcc/tcc805x-freertos-debug/obj/fwug.o
HSM_RunAes                                        /home/vboxuser/Desktop/topst/cr5-bsp/sources/build/tcc805x/gcc/tcc805x-freertos-debug/obj/hsm_manager.o
                                                  /home/vboxuser/Desktop/topst/cr5-bsp/sources/build/tcc805x/gcc/tcc805x-freertos-debug/obj/hsm_test.o
HSM_RunAesByKt                                    /home/vboxuser/Desktop/topst/cr5-bsp/sources/build/tcc805x/gcc/tcc805x-freertos-debug/obj/hsm_manager.o
                                                  /home/vboxuser/Desktop/topst/cr5-bsp/sources/build/tcc805x/gcc/tcc805x-freertos-debug/obj/hsm_test.o
HSM_RunEcdsa                                      /home/vboxuser/Desktop/topst/cr5-bsp/sources/build/tcc805x/gcc/tcc805x-freertos-debug/obj/hsm_manager.o
                                                  /home/vboxuser/Desktop/topst/cr5-bsp/sources/build/tcc805x/gcc/tcc805x-freertos-debug/obj/hsm_test.o
HSM_RunRsa                                        /home/vboxuser/Desktop/topst/cr5-bsp/sources/build/tcc805x/gcc/tcc805x-freertos-debug/obj/hsm_manager.o
                                                  /home/vboxuser/Desktop/topst/cr5-bsp/sources/build/tcc805x/gcc/tcc805x-freertos-debug/obj/hsm_test.o
HSM_SetKey                                        /home/vboxuser/Desktop/topst/cr5-bsp/sources/build/tcc805x/gcc/tcc805x-freertos-debug/obj/hsm_manager.o
                                                  /home/vboxuser/Desktop/topst/cr5-bsp/sources/build/tcc805x/gcc/tcc805x-freertos-debug/obj/hsm_test.o
HSM_Test                                          /home/vboxuser/Desktop/topst/cr5-bsp/sources/build/tcc805x/gcc/tcc805x-freertos-debug/obj/hsm_test.o
                                                  /home/vboxuser/Desktop/topst/cr5-bsp/sources/build/tcc805x/gcc/tcc805x-freertos-debug/obj/console.o
HSM_VerifyFw                                      /home/vboxuser/Desktop/topst/cr5-bsp/sources/build/tcc805x/gcc/tcc805x-freertos-debug/obj/hsm_manager.o
                                                  /home/vboxuser/Desktop/topst/cr5-bsp/sources/build/tcc805x/gcc/tcc805x-freertos-debug/obj/fwug.o
HSM_Write                                         /home/vboxuser/Desktop/topst/cr5-bsp/sources/build/tcc805x/gcc/tcc805x-freertos-debug/obj/hsm_manager.o
                                                  /home/vboxuser/Desktop/topst/cr5-bsp/sources/build/tcc805x/gcc/tcc805x-freertos-debug/obj/hsm_test.o
I2C_Close                                         /home/vboxuser/Desktop/topst/cr5-bsp/sources/build/tcc805x/gcc/tcc805x-freertos-debug/obj/i2c.o
                                                  /home/vboxuser/Desktop/topst/cr5-bsp/sources/build/tcc805x/gcc/tcc805x-freertos-debug/obj/i2c_test.o
I2C_Deinit                                        /home/vboxuser/Desktop/topst/cr5-bsp/sources/build/tcc805x/gcc/tcc805x-freertos-debug/obj/i2c.o
I2C_GetMachineState                               /home/vboxuser/Desktop/topst/cr5-bsp/sources/build/tcc805x/gcc/tcc805x-freertos-debug/obj/i2c.o
I2C_Init                                          /home/vboxuser/Desktop/topst/cr5-bsp/sources/build/tcc805x/gcc/tcc805x-freertos-debug/obj/i2c.o
                                                  /home/vboxuser/Desktop/topst/cr5-bsp/sources/build/tcc805x/gcc/tcc805x-freertos-debug/obj/bsp.o
I2C_Open                                          /home/vboxuser/Desktop/topst/cr5-bsp/sources/build/tcc805x/gcc/tcc805x-freertos-debug/obj/i2c.o
                                                  /home/vboxuser/Desktop/topst/cr5-bsp/sources/build/tcc805x/gcc/tcc805x-freertos-debug/obj/i2c_test.o
                                                  /home/vboxuser/Desktop/topst/cr5-bsp/sources/build/tcc805x/gcc/tcc805x-freertos-debug/obj/key_i2c.o
I2C_ScanSlave                                     /home/vboxuser/Desktop/topst/cr5-bsp/sources/build/tcc805x/gcc/tcc805x-freertos-debug/obj/i2c.o
                                                  /home/vboxuser/Desktop/topst/cr5-bsp/sources/build/tcc805x/gcc/tcc805x-freertos-debug/obj/i2c_test.o
I2C_TestMain                                      /home/vboxuser/Desktop/topst/cr5-bsp/sources/build/tcc805x/gcc/tcc805x-freertos-debug/obj/i2c_test.o
                                                  /home/vboxuser/Desktop/topst/cr5-bsp/sources/build/tcc805x/gcc/tcc805x-freertos-debug/obj/console.o
I2C_Xfer                                          /home/vboxuser/Desktop/topst/cr5-bsp/sources/build/tcc805x/gcc/tcc805x-freertos-debug/obj/i2c.o
                                                  /home/vboxuser/Desktop/topst/cr5-bsp/sources/build/tcc805x/gcc/tcc805x-freertos-debug/obj/key_i2c.o
I2C_XferCmd                                       /home/vboxuser/Desktop/topst/cr5-bsp/sources/build/tcc805x/gcc/tcc805x-freertos-debug/obj/i2c.o
                                                  /home/vboxuser/Desktop/topst/cr5-bsp/sources/build/tcc805x/gcc/tcc805x-freertos-debug/obj/i2c_test.o
                                                  /home/vboxuser/Desktop/topst/cr5-bsp/sources/build/tcc805x/gcc/tcc805x-freertos-debug/obj/key_i2c.o
ICTC_Deinit                                       /home/vboxuser/Desktop/topst/cr5-bsp/sources/build/tcc805x/gcc/tcc805x-freertos-debug/obj/ictc.o
ICTC_DisableCapture                               /home/vboxuser/Desktop/topst/cr5-bsp/sources/build/tcc805x/gcc/tcc805x-freertos-debug/obj/ictc.o
                                                  /home/vboxuser/Desktop/topst/cr5-bsp/sources/build/tcc805x/gcc/tcc805x-freertos-debug/obj/ictc_test.o
ICTC_EnableCapture                                /home/vboxuser/Desktop/topst/cr5-bsp/sources/build/tcc805x/gcc/tcc805x-freertos-debug/obj/ictc.o
                                                  /home/vboxuser/Desktop/topst/cr5-bsp/sources/build/tcc805x/gcc/tcc805x-freertos-debug/obj/ictc_test.o
ICTC_GetCurEdgeCnt                                /home/vboxuser/Desktop/topst/cr5-bsp/sources/build/tcc805x/gcc/tcc805x-freertos-debug/obj/ictc.o
ICTC_GetFEdgeTstmpCnt                             /home/vboxuser/Desktop/topst/cr5-bsp/sources/build/tcc805x/gcc/tcc805x-freertos-debug/obj/ictc.o
ICTC_GetPreDutyCnt                                /home/vboxuser/Desktop/topst/cr5-bsp/sources/build/tcc805x/gcc/tcc805x-freertos-debug/obj/ictc.o
ICTC_GetPrevPeriodCnt                             /home/vboxuser/Desktop/topst/cr5-bsp/sources/build/tcc805x/gcc/tcc805x-freertos-debug/obj/ictc.o
ICTC_GetPrvEdgeCnt                                /home/vboxuser/Desktop/topst/cr5-bsp/sources/build/tcc805x/gcc/tcc805x-freertos-debug/obj/ictc.o
ICTC_GetREdgeTstmpCnt                             /home/vboxuser/Desktop/topst/cr5-bsp/sources/build/tcc805x/gcc/tcc805x-freertos-debug/obj/ictc.o
ICTC_Init                                         /home/vboxuser/Desktop/topst/cr5-bsp/sources/build/tcc805x/gcc/tcc805x-freertos-debug/obj/ictc.o
                                                  /home/vboxuser/Desktop/topst/cr5-bsp/sources/build/tcc805x/gcc/tcc805x-freertos-debug/obj/ictc_test.o
ICTC_SelectTestCase                               /home/vboxuser/Desktop/topst/cr5-bsp/sources/build/tcc805x/gcc/tcc805x-freertos-debug/obj/ictc_test.o
                                                  /home/vboxuser/Desktop/topst/cr5-bsp/sources/build/tcc805x/gcc/tcc805x-freertos-debug/obj/console.o
ICTC_SetCallBackFunc                              /home/vboxuser/Desktop/topst/cr5-bsp/sources/build/tcc805x/gcc/tcc805x-freertos-debug/obj/ictc.o
                                                  /home/vboxuser/Desktop/topst/cr5-bsp/sources/build/tcc805x/gcc/tcc805x-freertos-debug/obj/ictc_test.o
ICTC_SetCompareRoundValue                         /home/vboxuser/Desktop/topst/cr5-bsp/sources/build/tcc805x/gcc/tcc805x-freertos-debug/obj/ictc.o
                                                  /home/vboxuser/Desktop/topst/cr5-bsp/sources/build/tcc805x/gcc/tcc805x-freertos-debug/obj/ictc_test.o
ICTC_SetEdgeMatchingValue                         /home/vboxuser/Desktop/topst/cr5-bsp/sources/build/tcc805x/gcc/tcc805x-freertos-debug/obj/ictc.o
                                                  /home/vboxuser/Desktop/topst/cr5-bsp/sources/build/tcc805x/gcc/tcc805x-freertos-debug/obj/ictc_test.o
ICTC_SetIRQCtrlReg                                /home/vboxuser/Desktop/topst/cr5-bsp/sources/build/tcc805x/gcc/tcc805x-freertos-debug/obj/ictc.o
                                                  /home/vboxuser/Desktop/topst/cr5-bsp/sources/build/tcc805x/gcc/tcc805x-freertos-debug/obj/ictc_test.o
ICTC_SetOpEnCtrlCounter                           /home/vboxuser/Desktop/topst/cr5-bsp/sources/build/tcc805x/gcc/tcc805x-freertos-debug/obj/ictc.o
                                                  /home/vboxuser/Desktop/topst/cr5-bsp/sources/build/tcc805x/gcc/tcc805x-freertos-debug/obj/ictc_test.o
ICTC_SetOpModeCtrlReg                             /home/vboxuser/Desktop/topst/cr5-bsp/sources/build/tcc805x/gcc/tcc805x-freertos-debug/obj/ictc.o
                                                  /home/vboxuser/Desktop/topst/cr5-bsp/sources/build/tcc805x/gcc/tcc805x-freertos-debug/obj/ictc_test.o
ICTC_SetTimeoutValue                              /home/vboxuser/Desktop/topst/cr5-bsp/sources/build/tcc805x/gcc/tcc805x-freertos-debug/obj/ictc.o
                                                  /home/vboxuser/Desktop/topst/cr5-bsp/sources/build/tcc805x/gcc/tcc805x-freertos-debug/obj/ictc_test.o
IPC_BufferDataAvailable                           /home/vboxuser/Desktop/topst/cr5-bsp/sources/build/tcc805x/gcc/tcc805x-freertos-debug/obj/ipc_buffer.o
                                                  /home/vboxuser/Desktop/topst/cr5-bsp/sources/build/tcc805x/gcc/tcc805x-freertos-debug/obj/ipc_ctl.o
IPC_BufferFlush                                   /home/vboxuser/Desktop/topst/cr5-bsp/sources/build/tcc805x/gcc/tcc805x-freertos-debug/obj/ipc_buffer.o
                                                  /home/vboxuser/Desktop/topst/cr5-bsp/sources/build/tcc805x/gcc/tcc805x-freertos-debug/obj/ipc_ctl.o
IPC_BufferFlushByte                               /home/vboxuser/Desktop/topst/cr5-bsp/sources/build/tcc805x/gcc/tcc805x-freertos-debug/obj/ipc_buffer.o
IPC_BufferFreeSpace                               /home/vboxuser/Desktop/topst/cr5-bsp/sources/build/tcc805x/gcc/tcc805x-freertos-debug/obj/ipc_buffer.o
                                                  /home/vboxuser/Desktop/topst/cr5-bsp/sources/build/tcc805x/gcc/tcc805x-freertos-debug/obj/ipc_ctl.o
IPC_BufferGetHead                                 /home/vboxuser/Desktop/topst/cr5-bsp/sources/build/tcc805x/gcc/tcc805x-freertos-debug/obj/ipc_buffer.o
IPC_BufferGetTail                                 /home/vboxuser/Desktop/topst/cr5-bsp/sources/build/tcc805x/gcc/tcc805x-freertos-debug/obj/ipc_buffer.o
IPC_BufferInit                                    /home/vboxuser/Desktop/topst/cr5-bsp/sources/build/tcc805x/gcc/tcc805x-freertos-debug/obj/ipc_buffer.o
                                                  /home/vboxuser/Desktop/topst/cr5-bsp/sources/build/tcc805x/gcc/tcc805x-freertos-debug/obj/ipc_ctl.o
IPC_BufferOverFlowWaitEventTimeOut                /home/vboxuser/Desktop/topst/cr5-bsp/sources/build/tcc805x/gcc/tcc805x-freertos-debug/obj/ipc_os.o
IPC_BufferOverFlowWakeUp                          /home/vboxuser/Desktop/topst/cr5-bsp/sources/build/tcc805x/gcc/tcc805x-freertos-debug/obj/ipc_os.o
                                                  /home/vboxuser/Desktop/topst/cr5-bsp/sources/build/tcc805x/gcc/tcc805x-freertos-debug/obj/ipc_ctl.o
IPC_BufferSetHead                                 /home/vboxuser/Desktop/topst/cr5-bsp/sources/build/tcc805x/gcc/tcc805x-freertos-debug/obj/ipc_buffer.o
IPC_BufferSetTail                                 /home/vboxuser/Desktop/topst/cr5-bsp/sources/build/tcc805x/gcc/tcc805x-freertos-debug/obj/ipc_buffer.o
IPC_CalcCrc16                                     /home/vboxuser/Desktop/topst/cr5-bsp/sources/build/tcc805x/gcc/tcc805x-freertos-debug/obj/ipc_api.o
                                                  /home/vboxuser/Desktop/topst/cr5-bsp/sources/build/tcc805x/gcc/tcc805x-freertos-debug/obj/ipc_parser.o
IPC_Close                                         /home/vboxuser/Desktop/topst/cr5-bsp/sources/build/tcc805x/gcc/tcc805x-freertos-debug/obj/ipc_api.o
IPC_CmdWaitEventTimeOut                           /home/vboxuser/Desktop/topst/cr5-bsp/sources/build/tcc805x/gcc/tcc805x-freertos-debug/obj/ipc_os.o
                                                  /home/vboxuser/Desktop/topst/cr5-bsp/sources/build/tcc805x/gcc/tcc805x-freertos-debug/obj/ipc_cmd.o
IPC_CmdWakePreSet                                 /home/vboxuser/Desktop/topst/cr5-bsp/sources/build/tcc805x/gcc/tcc805x-freertos-debug/obj/ipc_os.o
                                                  /home/vboxuser/Desktop/topst/cr5-bsp/sources/build/tcc805x/gcc/tcc805x-freertos-debug/obj/ipc_cmd.o
IPC_CmdWakeUp                                     /home/vboxuser/Desktop/topst/cr5-bsp/sources/build/tcc805x/gcc/tcc805x-freertos-debug/obj/ipc_os.o
                                                  /home/vboxuser/Desktop/topst/cr5-bsp/sources/build/tcc805x/gcc/tcc805x-freertos-debug/obj/ipc_ctl.o
IPC_CommonLock                                    /home/vboxuser/Desktop/topst/cr5-bsp/sources/build/tcc805x/gcc/tcc805x-freertos-debug/obj/ipc_os.o
                                                  /home/vboxuser/Desktop/topst/cr5-bsp/sources/build/tcc805x/gcc/tcc805x-freertos-debug/obj/ipc_api.o
                                                  /home/vboxuser/Desktop/topst/cr5-bsp/sources/build/tcc805x/gcc/tcc805x-freertos-debug/obj/ipc_ctl.o
                                                  /home/vboxuser/Desktop/topst/cr5-bsp/sources/build/tcc805x/gcc/tcc805x-freertos-debug/obj/ipc_cmd.o
IPC_CommonUnlock                                  /home/vboxuser/Desktop/topst/cr5-bsp/sources/build/tcc805x/gcc/tcc805x-freertos-debug/obj/ipc_os.o
                                                  /home/vboxuser/Desktop/topst/cr5-bsp/sources/build/tcc805x/gcc/tcc805x-freertos-debug/obj/ipc_api.o
                                                  /home/vboxuser/Desktop/topst/cr5-bsp/sources/build/tcc805x/gcc/tcc805x-freertos-debug/obj/ipc_ctl.o
                                                  /home/vboxuser/Desktop/topst/cr5-bsp/sources/build/tcc805x/gcc/tcc805x-freertos-debug/obj/ipc_cmd.o
IPC_Create                                        /home/vboxuser/Desktop/topst/cr5-bsp/sources/build/tcc805x/gcc/tcc805x-freertos-debug/obj/ipc.o
                                                  /home/vboxuser/Desktop/topst/cr5-bsp/sources/build/tcc805x/gcc/tcc805x-freertos-debug/obj/main.o
IPC_CreateIPCParserTask                           /home/vboxuser/Desktop/topst/cr5-bsp/sources/build/tcc805x/gcc/tcc805x-freertos-debug/obj/ipc_parser.o
                                                  /home/vboxuser/Desktop/topst/cr5-bsp/sources/build/tcc805x/gcc/tcc805x-freertos-debug/obj/ipc.o
IPC_Flush                                         /home/vboxuser/Desktop/topst/cr5-bsp/sources/build/tcc805x/gcc/tcc805x-freertos-debug/obj/ipc_ctl.o
IPC_FreeIrq                                       /home/vboxuser/Desktop/topst/cr5-bsp/sources/build/tcc805x/gcc/tcc805x-freertos-debug/obj/ipc_os.o
IPC_GetMsec                                       /home/vboxuser/Desktop/topst/cr5-bsp/sources/build/tcc805x/gcc/tcc805x-freertos-debug/obj/ipc_os.o
                                                  /home/vboxuser/Desktop/topst/cr5-bsp/sources/build/tcc805x/gcc/tcc805x-freertos-debug/obj/ipc_ctl.o
IPC_GetStatus                                     /home/vboxuser/Desktop/topst/cr5-bsp/sources/build/tcc805x/gcc/tcc805x-freertos-debug/obj/ipc_ctl.o
IPC_GetUsec                                       /home/vboxuser/Desktop/topst/cr5-bsp/sources/build/tcc805x/gcc/tcc805x-freertos-debug/obj/ipc_os.o
IPC_Initialize                                    /home/vboxuser/Desktop/topst/cr5-bsp/sources/build/tcc805x/gcc/tcc805x-freertos-debug/obj/ipc_ctl.o
                                                  /home/vboxuser/Desktop/topst/cr5-bsp/sources/build/tcc805x/gcc/tcc805x-freertos-debug/obj/ipc_api.o
IPC_Ioctl                                         /home/vboxuser/Desktop/topst/cr5-bsp/sources/build/tcc805x/gcc/tcc805x-freertos-debug/obj/ipc_api.o
                                                  /home/vboxuser/Desktop/topst/cr5-bsp/sources/build/tcc805x/gcc/tcc805x-freertos-debug/obj/ipc.o
                                                  /home/vboxuser/Desktop/topst/cr5-bsp/sources/build/tcc805x/gcc/tcc805x-freertos-debug/obj/ipc_parser.o
IPC_IsReady                                       /home/vboxuser/Desktop/topst/cr5-bsp/sources/build/tcc805x/gcc/tcc805x-freertos-debug/obj/ipc.o
                                                  /home/vboxuser/Desktop/topst/cr5-bsp/sources/build/tcc805x/gcc/tcc805x-freertos-debug/obj/system_monitoring.o
IPC_MboxLock                                      /home/vboxuser/Desktop/topst/cr5-bsp/sources/build/tcc805x/gcc/tcc805x-freertos-debug/obj/ipc_os.o
IPC_MboxUnlock                                    /home/vboxuser/Desktop/topst/cr5-bsp/sources/build/tcc805x/gcc/tcc805x-freertos-debug/obj/ipc_os.o
IPC_Mdelay                                        /home/vboxuser/Desktop/topst/cr5-bsp/sources/build/tcc805x/gcc/tcc805x-freertos-debug/obj/ipc_os.o
IPC_Open                                          /home/vboxuser/Desktop/topst/cr5-bsp/sources/build/tcc805x/gcc/tcc805x-freertos-debug/obj/ipc_api.o
                                                  /home/vboxuser/Desktop/topst/cr5-bsp/sources/build/tcc805x/gcc/tcc805x-freertos-debug/obj/ipc_parser.o
IPC_OsResourceInit                                /home/vboxuser/Desktop/topst/cr5-bsp/sources/build/tcc805x/gcc/tcc805x-freertos-debug/obj/ipc_os.o
                                                  /home/vboxuser/Desktop/topst/cr5-bsp/sources/build/tcc805x/gcc/tcc805x-freertos-debug/obj/ipc_ctl.o
IPC_OsResourceRelease                             /home/vboxuser/Desktop/topst/cr5-bsp/sources/build/tcc805x/gcc/tcc805x-freertos-debug/obj/ipc_os.o
                                                  /home/vboxuser/Desktop/topst/cr5-bsp/sources/build/tcc805x/gcc/tcc805x-freertos-debug/obj/ipc_ctl.o
IPC_PingTest                                      /home/vboxuser/Desktop/topst/cr5-bsp/sources/build/tcc805x/gcc/tcc805x-freertos-debug/obj/ipc_ctl.o
                                                  /home/vboxuser/Desktop/topst/cr5-bsp/sources/build/tcc805x/gcc/tcc805x-freertos-debug/obj/ipc_api.o
IPC_PopBuffer                                     /home/vboxuser/Desktop/topst/cr5-bsp/sources/build/tcc805x/gcc/tcc805x-freertos-debug/obj/ipc_buffer.o
                                                  /home/vboxuser/Desktop/topst/cr5-bsp/sources/build/tcc805x/gcc/tcc805x-freertos-debug/obj/ipc_ctl.o
IPC_PopOneByte                                    /home/vboxuser/Desktop/topst/cr5-bsp/sources/build/tcc805x/gcc/tcc805x-freertos-debug/obj/ipc_buffer.o
IPC_PushBuffer                                    /home/vboxuser/Desktop/topst/cr5-bsp/sources/build/tcc805x/gcc/tcc805x-freertos-debug/obj/ipc_buffer.o
                                                  /home/vboxuser/Desktop/topst/cr5-bsp/sources/build/tcc805x/gcc/tcc805x-freertos-debug/obj/ipc_ctl.o
IPC_PushBufferOverWrite                           /home/vboxuser/Desktop/topst/cr5-bsp/sources/build/tcc805x/gcc/tcc805x-freertos-debug/obj/ipc_buffer.o
                                                  /home/vboxuser/Desktop/topst/cr5-bsp/sources/build/tcc805x/gcc/tcc805x-freertos-debug/obj/ipc_ctl.o
IPC_PushOneByte                                   /home/vboxuser/Desktop/topst/cr5-bsp/sources/build/tcc805x/gcc/tcc805x-freertos-debug/obj/ipc_buffer.o
IPC_PushOneByteOverWrite                          /home/vboxuser/Desktop/topst/cr5-bsp/sources/build/tcc805x/gcc/tcc805x-freertos-debug/obj/ipc_buffer.o
IPC_RbufferLock                                   /home/vboxuser/Desktop/topst/cr5-bsp/sources/build/tcc805x/gcc/tcc805x-freertos-debug/obj/ipc_os.o
                                                  /home/vboxuser/Desktop/topst/cr5-bsp/sources/build/tcc805x/gcc/tcc805x-freertos-debug/obj/ipc_ctl.o
IPC_RbufferUnlock                                 /home/vboxuser/Desktop/topst/cr5-bsp/sources/build/tcc805x/gcc/tcc805x-freertos-debug/obj/ipc_os.o
                                                  /home/vboxuser/Desktop/topst/cr5-bsp/sources/build/tcc805x/gcc/tcc805x-freertos-debug/obj/ipc_ctl.o
IPC_Read                                          /home/vboxuser/Desktop/topst/cr5-bsp/sources/build/tcc805x/gcc/tcc805x-freertos-debug/obj/ipc_ctl.o
                                                  /home/vboxuser/Desktop/topst/cr5-bsp/sources/build/tcc805x/gcc/tcc805x-freertos-debug/obj/ipc_api.o
IPC_ReadClearEvent                                /home/vboxuser/Desktop/topst/cr5-bsp/sources/build/tcc805x/gcc/tcc805x-freertos-debug/obj/ipc_os.o
                                                  /home/vboxuser/Desktop/topst/cr5-bsp/sources/build/tcc805x/gcc/tcc805x-freertos-debug/obj/ipc_ctl.o
IPC_ReadLock                                      /home/vboxuser/Desktop/topst/cr5-bsp/sources/build/tcc805x/gcc/tcc805x-freertos-debug/obj/ipc_os.o
                                                  /home/vboxuser/Desktop/topst/cr5-bsp/sources/build/tcc805x/gcc/tcc805x-freertos-debug/obj/ipc_ctl.o
IPC_ReadUnlock                                    /home/vboxuser/Desktop/topst/cr5-bsp/sources/build/tcc805x/gcc/tcc805x-freertos-debug/obj/ipc_os.o
                                                  /home/vboxuser/Desktop/topst/cr5-bsp/sources/build/tcc805x/gcc/tcc805x-freertos-debug/obj/ipc_ctl.o
IPC_ReadWaitEventTimeOut                          /home/vboxuser/Desktop/topst/cr5-bsp/sources/build/tcc805x/gcc/tcc805x-freertos-debug/obj/ipc_os.o
                                                  /home/vboxuser/Desktop/topst/cr5-bsp/sources/build/tcc805x/gcc/tcc805x-freertos-debug/obj/ipc_ctl.o
IPC_ReadWakeUp                                    /home/vboxuser/Desktop/topst/cr5-bsp/sources/build/tcc805x/gcc/tcc805x-freertos-debug/obj/ipc_os.o
                                                  /home/vboxuser/Desktop/topst/cr5-bsp/sources/build/tcc805x/gcc/tcc805x-freertos-debug/obj/ipc_ctl.o
IPC_RegisterCbFunc                                /home/vboxuser/Desktop/topst/cr5-bsp/sources/build/tcc805x/gcc/tcc805x-freertos-debug/obj/ipc.o
                                                  /home/vboxuser/Desktop/topst/cr5-bsp/sources/build/tcc805x/gcc/tcc805x-freertos-debug/obj/system_monitoring.o
IPC_Release                                       /home/vboxuser/Desktop/topst/cr5-bsp/sources/build/tcc805x/gcc/tcc805x-freertos-debug/obj/ipc_ctl.o
                                                  /home/vboxuser/Desktop/topst/cr5-bsp/sources/build/tcc805x/gcc/tcc805x-freertos-debug/obj/ipc_api.o
IPC_RequestIrq                                    /home/vboxuser/Desktop/topst/cr5-bsp/sources/build/tcc805x/gcc/tcc805x-freertos-debug/obj/ipc_os.o
IPC_SendAck                                       /home/vboxuser/Desktop/topst/cr5-bsp/sources/build/tcc805x/gcc/tcc805x-freertos-debug/obj/ipc_cmd.o
                                                  /home/vboxuser/Desktop/topst/cr5-bsp/sources/build/tcc805x/gcc/tcc805x-freertos-debug/obj/ipc_ctl.o
IPC_SendClose                                     /home/vboxuser/Desktop/topst/cr5-bsp/sources/build/tcc805x/gcc/tcc805x-freertos-debug/obj/ipc_cmd.o
                                                  /home/vboxuser/Desktop/topst/cr5-bsp/sources/build/tcc805x/gcc/tcc805x-freertos-debug/obj/ipc_ctl.o
IPC_SendOpen                                      /home/vboxuser/Desktop/topst/cr5-bsp/sources/build/tcc805x/gcc/tcc805x-freertos-debug/obj/ipc_cmd.o
                                                  /home/vboxuser/Desktop/topst/cr5-bsp/sources/build/tcc805x/gcc/tcc805x-freertos-debug/obj/ipc_ctl.o
IPC_SendPacket                                    /home/vboxuser/Desktop/topst/cr5-bsp/sources/build/tcc805x/gcc/tcc805x-freertos-debug/obj/ipc.o
                                                  /home/vboxuser/Desktop/topst/cr5-bsp/sources/build/tcc805x/gcc/tcc805x-freertos-debug/obj/system_monitoring.o
IPC_SendPacketWithIPCHeader                       /home/vboxuser/Desktop/topst/cr5-bsp/sources/build/tcc805x/gcc/tcc805x-freertos-debug/obj/ipc_api.o
                                                  /home/vboxuser/Desktop/topst/cr5-bsp/sources/build/tcc805x/gcc/tcc805x-freertos-debug/obj/ipc.o
IPC_SendPing                                      /home/vboxuser/Desktop/topst/cr5-bsp/sources/build/tcc805x/gcc/tcc805x-freertos-debug/obj/ipc_cmd.o
                                                  /home/vboxuser/Desktop/topst/cr5-bsp/sources/build/tcc805x/gcc/tcc805x-freertos-debug/obj/ipc_ctl.o
IPC_SendWrite                                     /home/vboxuser/Desktop/topst/cr5-bsp/sources/build/tcc805x/gcc/tcc805x-freertos-debug/obj/ipc_cmd.o
                                                  /home/vboxuser/Desktop/topst/cr5-bsp/sources/build/tcc805x/gcc/tcc805x-freertos-debug/obj/ipc_ctl.o
IPC_StructInit                                    /home/vboxuser/Desktop/topst/cr5-bsp/sources/build/tcc805x/gcc/tcc805x-freertos-debug/obj/ipc_ctl.o
                                                  /home/vboxuser/Desktop/topst/cr5-bsp/sources/build/tcc805x/gcc/tcc805x-freertos-debug/obj/ipc_api.o
IPC_Udelay                                        /home/vboxuser/Desktop/topst/cr5-bsp/sources/build/tcc805x/gcc/tcc805x-freertos-debug/obj/ipc_os.o
IPC_WbufferLock                                   /home/vboxuser/Desktop/topst/cr5-bsp/sources/build/tcc805x/gcc/tcc805x-freertos-debug/obj/ipc_os.o
                                                  /home/vboxuser/Desktop/topst/cr5-bsp/sources/build/tcc805x/gcc/tcc805x-freertos-debug/obj/ipc_ctl.o
IPC_WbufferUnlock                                 /home/vboxuser/Desktop/topst/cr5-bsp/sources/build/tcc805x/gcc/tcc805x-freertos-debug/obj/ipc_os.o
                                                  /home/vboxuser/Desktop/topst/cr5-bsp/sources/build/tcc805x/gcc/tcc805x-freertos-debug/obj/ipc_ctl.o
IPC_Write                                         /home/vboxuser/Desktop/topst/cr5-bsp/sources/build/tcc805x/gcc/tcc805x-freertos-debug/obj/ipc_ctl.o
                                                  /home/vboxuser/Desktop/topst/cr5-bsp/sources/build/tcc805x/gcc/tcc805x-freertos-debug/obj/ipc_api.o
IPC_WriteLock                                     /home/vboxuser/Desktop/topst/cr5-bsp/sources/build/tcc805x/gcc/tcc805x-freertos-debug/obj/ipc_os.o
                                                  /home/vboxuser/Desktop/topst/cr5-bsp/sources/build/tcc805x/gcc/tcc805x-freertos-debug/obj/ipc_api.o
                                                  /home/vboxuser/Desktop/topst/cr5-bsp/sources/build/tcc805x/gcc/tcc805x-freertos-debug/obj/ipc_ctl.o
IPC_WriteUnlock                                   /home/vboxuser/Desktop/topst/cr5-bsp/sources/build/tcc805x/gcc/tcc805x-freertos-debug/obj/ipc_os.o
                                                  /home/vboxuser/Desktop/topst/cr5-bsp/sources/build/tcc805x/gcc/tcc805x-freertos-debug/obj/ipc_api.o
                                                  /home/vboxuser/Desktop/topst/cr5-bsp/sources/build/tcc805x/gcc/tcc805x-freertos-debug/obj/ipc_ctl.o
KEY_AdcOpen                                       /home/vboxuser/Desktop/topst/cr5-bsp/sources/build/tcc805x/gcc/tcc805x-freertos-debug/obj/key_adc.o
KEY_AdcScan                                       /home/vboxuser/Desktop/topst/cr5-bsp/sources/build/tcc805x/gcc/tcc805x-freertos-debug/obj/key_adc.o
KEY_GpioGetRotaryValue                            /home/vboxuser/Desktop/topst/cr5-bsp/sources/build/tcc805x/gcc/tcc805x-freertos-debug/obj/key_gpio.o
KEY_GpioKeyOpen                                   /home/vboxuser/Desktop/topst/cr5-bsp/sources/build/tcc805x/gcc/tcc805x-freertos-debug/obj/key_gpio.o
KEY_I2cOpen                                       /home/vboxuser/Desktop/topst/cr5-bsp/sources/build/tcc805x/gcc/tcc805x-freertos-debug/obj/key_i2c.o
KEY_I2cRead                                       /home/vboxuser/Desktop/topst/cr5-bsp/sources/build/tcc805x/gcc/tcc805x-freertos-debug/obj/key_i2c.o
KEY_I2cScan                                       /home/vboxuser/Desktop/topst/cr5-bsp/sources/build/tcc805x/gcc/tcc805x-freertos-debug/obj/key_i2c.o
KEY_I2cWrite                                      /home/vboxuser/Desktop/topst/cr5-bsp/sources/build/tcc805x/gcc/tcc805x-freertos-debug/obj/key_i2c.o
LIN_Init                                          /home/vboxuser/Desktop/topst/cr5-bsp/sources/build/tcc805x/gcc/tcc805x-freertos-debug/obj/lin.o
                                                  /home/vboxuser/Desktop/topst/cr5-bsp/sources/build/tcc805x/gcc/tcc805x-freertos-debug/obj/lin_test.o
LIN_ReadData                                      /home/vboxuser/Desktop/topst/cr5-bsp/sources/build/tcc805x/gcc/tcc805x-freertos-debug/obj/lin.o
                                                  /home/vboxuser/Desktop/topst/cr5-bsp/sources/build/tcc805x/gcc/tcc805x-freertos-debug/obj/lin_test.o
LIN_SampleTest                                    /home/vboxuser/Desktop/topst/cr5-bsp/sources/build/tcc805x/gcc/tcc805x-freertos-debug/obj/lin_test.o
                                                  /home/vboxuser/Desktop/topst/cr5-bsp/sources/build/tcc805x/gcc/tcc805x-freertos-debug/obj/console.o
LIN_SendData                                      /home/vboxuser/Desktop/topst/cr5-bsp/sources/build/tcc805x/gcc/tcc805x-freertos-debug/obj/lin.o
                                                  /home/vboxuser/Desktop/topst/cr5-bsp/sources/build/tcc805x/gcc/tcc805x-freertos-debug/obj/lin_test.o
LIN_TestUsage                                     /home/vboxuser/Desktop/topst/cr5-bsp/sources/build/tcc805x/gcc/tcc805x-freertos-debug/obj/lin_test.o
LIN_TransceiverWakeup                             /home/vboxuser/Desktop/topst/cr5-bsp/sources/build/tcc805x/gcc/tcc805x-freertos-debug/obj/lin.o
MBOX_DevInit                                      /home/vboxuser/Desktop/topst/cr5-bsp/sources/build/tcc805x/gcc/tcc805x-freertos-debug/obj/mbox_dev.o
                                                  /home/vboxuser/Desktop/topst/cr5-bsp/sources/build/tcc805x/gcc/tcc805x-freertos-debug/obj/mbox.o
MBOX_DevIoctl                                     /home/vboxuser/Desktop/topst/cr5-bsp/sources/build/tcc805x/gcc/tcc805x-freertos-debug/obj/mbox_dev.o
                                                  /home/vboxuser/Desktop/topst/cr5-bsp/sources/build/tcc805x/gcc/tcc805x-freertos-debug/obj/ipc_cmd.o
MBOX_DevOpen                                      /home/vboxuser/Desktop/topst/cr5-bsp/sources/build/tcc805x/gcc/tcc805x-freertos-debug/obj/mbox_dev.o
                                                  /home/vboxuser/Desktop/topst/cr5-bsp/sources/build/tcc805x/gcc/tcc805x-freertos-debug/obj/pmio_dev.o
                                                  /home/vboxuser/Desktop/topst/cr5-bsp/sources/build/tcc805x/gcc/tcc805x-freertos-debug/obj/hsm_manager.o
                                                  /home/vboxuser/Desktop/topst/cr5-bsp/sources/build/tcc805x/gcc/tcc805x-freertos-debug/obj/ipc_ctl.o
                                                  /home/vboxuser/Desktop/topst/cr5-bsp/sources/build/tcc805x/gcc/tcc805x-freertos-debug/obj/fwug.o
MBOX_DevRecv                                      /home/vboxuser/Desktop/topst/cr5-bsp/sources/build/tcc805x/gcc/tcc805x-freertos-debug/obj/mbox_dev.o
                                                  /home/vboxuser/Desktop/topst/cr5-bsp/sources/build/tcc805x/gcc/tcc805x-freertos-debug/obj/ipc_ctl.o
                                                  /home/vboxuser/Desktop/topst/cr5-bsp/sources/build/tcc805x/gcc/tcc805x-freertos-debug/obj/fwug.o
MBOX_DevRecvCmd                                   /home/vboxuser/Desktop/topst/cr5-bsp/sources/build/tcc805x/gcc/tcc805x-freertos-debug/obj/mbox_dev.o
                                                  /home/vboxuser/Desktop/topst/cr5-bsp/sources/build/tcc805x/gcc/tcc805x-freertos-debug/obj/pmio_dev.o
                                                  /home/vboxuser/Desktop/topst/cr5-bsp/sources/build/tcc805x/gcc/tcc805x-freertos-debug/obj/bootctrl.o
MBOX_DevRecvData                                  /home/vboxuser/Desktop/topst/cr5-bsp/sources/build/tcc805x/gcc/tcc805x-freertos-debug/obj/mbox_dev.o
MBOX_DevRecvSss                                   /home/vboxuser/Desktop/topst/cr5-bsp/sources/build/tcc805x/gcc/tcc805x-freertos-debug/obj/mbox_dev.o
                                                  /home/vboxuser/Desktop/topst/cr5-bsp/sources/build/tcc805x/gcc/tcc805x-freertos-debug/obj/hsm_manager.o
MBOX_DevSend                                      /home/vboxuser/Desktop/topst/cr5-bsp/sources/build/tcc805x/gcc/tcc805x-freertos-debug/obj/mbox_dev.o
                                                  /home/vboxuser/Desktop/topst/cr5-bsp/sources/build/tcc805x/gcc/tcc805x-freertos-debug/obj/ipc_cmd.o
MBOX_DevSendCmd                                   /home/vboxuser/Desktop/topst/cr5-bsp/sources/build/tcc805x/gcc/tcc805x-freertos-debug/obj/mbox_dev.o
                                                  /home/vboxuser/Desktop/topst/cr5-bsp/sources/build/tcc805x/gcc/tcc805x-freertos-debug/obj/pmio_dev.o
                                                  /home/vboxuser/Desktop/topst/cr5-bsp/sources/build/tcc805x/gcc/tcc805x-freertos-debug/obj/ipc_cmd.o
                                                  /home/vboxuser/Desktop/topst/cr5-bsp/sources/build/tcc805x/gcc/tcc805x-freertos-debug/obj/bootctrl.o
MBOX_DevSendData                                  /home/vboxuser/Desktop/topst/cr5-bsp/sources/build/tcc805x/gcc/tcc805x-freertos-debug/obj/mbox_dev.o
MBOX_DevSendSss                                   /home/vboxuser/Desktop/topst/cr5-bsp/sources/build/tcc805x/gcc/tcc805x-freertos-debug/obj/mbox_dev.o
                                                  /home/vboxuser/Desktop/topst/cr5-bsp/sources/build/tcc805x/gcc/tcc805x-freertos-debug/obj/hsm_manager.o
MBOX_Init                                         /home/vboxuser/Desktop/topst/cr5-bsp/sources/build/tcc805x/gcc/tcc805x-freertos-debug/obj/mbox.o
                                                  /home/vboxuser/Desktop/topst/cr5-bsp/sources/build/tcc805x/gcc/tcc805x-freertos-debug/obj/bsp.o
MBOX_PhyBitClearCtrl                              /home/vboxuser/Desktop/topst/cr5-bsp/sources/build/tcc805x/gcc/tcc805x-freertos-debug/obj/mbox_phy.o
                                                  /home/vboxuser/Desktop/topst/cr5-bsp/sources/build/tcc805x/gcc/tcc805x-freertos-debug/obj/mbox_dev.o
MBOX_PhyBitSetCtrl                                /home/vboxuser/Desktop/topst/cr5-bsp/sources/build/tcc805x/gcc/tcc805x-freertos-debug/obj/mbox_phy.o
                                                  /home/vboxuser/Desktop/topst/cr5-bsp/sources/build/tcc805x/gcc/tcc805x-freertos-debug/obj/mbox_dev.o
MBOX_PhyCountMcmd                                 /home/vboxuser/Desktop/topst/cr5-bsp/sources/build/tcc805x/gcc/tcc805x-freertos-debug/obj/mbox_phy.o
                                                  /home/vboxuser/Desktop/topst/cr5-bsp/sources/build/tcc805x/gcc/tcc805x-freertos-debug/obj/mbox_dev.o
MBOX_PhyCountMdata                                /home/vboxuser/Desktop/topst/cr5-bsp/sources/build/tcc805x/gcc/tcc805x-freertos-debug/obj/mbox_phy.o
                                                  /home/vboxuser/Desktop/topst/cr5-bsp/sources/build/tcc805x/gcc/tcc805x-freertos-debug/obj/mbox_dev.o
MBOX_PhyCountScmd                                 /home/vboxuser/Desktop/topst/cr5-bsp/sources/build/tcc805x/gcc/tcc805x-freertos-debug/obj/mbox_phy.o
                                                  /home/vboxuser/Desktop/topst/cr5-bsp/sources/build/tcc805x/gcc/tcc805x-freertos-debug/obj/mbox_dev.o
MBOX_PhyCountSdata                                /home/vboxuser/Desktop/topst/cr5-bsp/sources/build/tcc805x/gcc/tcc805x-freertos-debug/obj/mbox_phy.o
                                                  /home/vboxuser/Desktop/topst/cr5-bsp/sources/build/tcc805x/gcc/tcc805x-freertos-debug/obj/mbox_dev.o
MBOX_PhyEmptyMcmd                                 /home/vboxuser/Desktop/topst/cr5-bsp/sources/build/tcc805x/gcc/tcc805x-freertos-debug/obj/mbox_phy.o
                                                  /home/vboxuser/Desktop/topst/cr5-bsp/sources/build/tcc805x/gcc/tcc805x-freertos-debug/obj/mbox_dev.o
MBOX_PhyEmptyMdata                                /home/vboxuser/Desktop/topst/cr5-bsp/sources/build/tcc805x/gcc/tcc805x-freertos-debug/obj/mbox_phy.o
                                                  /home/vboxuser/Desktop/topst/cr5-bsp/sources/build/tcc805x/gcc/tcc805x-freertos-debug/obj/mbox_dev.o
MBOX_PhyEmptyScmd                                 /home/vboxuser/Desktop/topst/cr5-bsp/sources/build/tcc805x/gcc/tcc805x-freertos-debug/obj/mbox_phy.o
                                                  /home/vboxuser/Desktop/topst/cr5-bsp/sources/build/tcc805x/gcc/tcc805x-freertos-debug/obj/mbox_dev.o
MBOX_PhyEmptySdata                                /home/vboxuser/Desktop/topst/cr5-bsp/sources/build/tcc805x/gcc/tcc805x-freertos-debug/obj/mbox_phy.o
                                                  /home/vboxuser/Desktop/topst/cr5-bsp/sources/build/tcc805x/gcc/tcc805x-freertos-debug/obj/mbox_dev.o
MBOX_PhyFullMcmd                                  /home/vboxuser/Desktop/topst/cr5-bsp/sources/build/tcc805x/gcc/tcc805x-freertos-debug/obj/mbox_phy.o
                                                  /home/vboxuser/Desktop/topst/cr5-bsp/sources/build/tcc805x/gcc/tcc805x-freertos-debug/obj/mbox_dev.o
MBOX_PhyFullMdata                                 /home/vboxuser/Desktop/topst/cr5-bsp/sources/build/tcc805x/gcc/tcc805x-freertos-debug/obj/mbox_phy.o
                                                  /home/vboxuser/Desktop/topst/cr5-bsp/sources/build/tcc805x/gcc/tcc805x-freertos-debug/obj/mbox_dev.o
MBOX_PhyFullScmd                                  /home/vboxuser/Desktop/topst/cr5-bsp/sources/build/tcc805x/gcc/tcc805x-freertos-debug/obj/mbox_phy.o
                                                  /home/vboxuser/Desktop/topst/cr5-bsp/sources/build/tcc805x/gcc/tcc805x-freertos-debug/obj/mbox_dev.o
MBOX_PhyFullSdata                                 /home/vboxuser/Desktop/topst/cr5-bsp/sources/build/tcc805x/gcc/tcc805x-freertos-debug/obj/mbox_phy.o
                                                  /home/vboxuser/Desktop/topst/cr5-bsp/sources/build/tcc805x/gcc/tcc805x-freertos-debug/obj/mbox_dev.o
MBOX_PhyGetOppTmnSts                              /home/vboxuser/Desktop/topst/cr5-bsp/sources/build/tcc805x/gcc/tcc805x-freertos-debug/obj/mbox_phy.o
                                                  /home/vboxuser/Desktop/topst/cr5-bsp/sources/build/tcc805x/gcc/tcc805x-freertos-debug/obj/mbox_dev.o
MBOX_PhyGetOwnTmnSts                              /home/vboxuser/Desktop/topst/cr5-bsp/sources/build/tcc805x/gcc/tcc805x-freertos-debug/obj/mbox_phy.o
                                                  /home/vboxuser/Desktop/topst/cr5-bsp/sources/build/tcc805x/gcc/tcc805x-freertos-debug/obj/mbox_dev.o
MBOX_PhyIsFlushedCmd                              /home/vboxuser/Desktop/topst/cr5-bsp/sources/build/tcc805x/gcc/tcc805x-freertos-debug/obj/mbox_phy.o
                                                  /home/vboxuser/Desktop/topst/cr5-bsp/sources/build/tcc805x/gcc/tcc805x-freertos-debug/obj/mbox_dev.o
MBOX_PhyIsFlushedData                             /home/vboxuser/Desktop/topst/cr5-bsp/sources/build/tcc805x/gcc/tcc805x-freertos-debug/obj/mbox_phy.o
                                                  /home/vboxuser/Desktop/topst/cr5-bsp/sources/build/tcc805x/gcc/tcc805x-freertos-debug/obj/mbox_dev.o
MBOX_PhyIsIenSet                                  /home/vboxuser/Desktop/topst/cr5-bsp/sources/build/tcc805x/gcc/tcc805x-freertos-debug/obj/mbox_phy.o
                                                  /home/vboxuser/Desktop/topst/cr5-bsp/sources/build/tcc805x/gcc/tcc805x-freertos-debug/obj/mbox_dev.o
MBOX_PhyIsIlevelSet                               /home/vboxuser/Desktop/topst/cr5-bsp/sources/build/tcc805x/gcc/tcc805x-freertos-debug/obj/mbox_phy.o
                                                  /home/vboxuser/Desktop/topst/cr5-bsp/sources/build/tcc805x/gcc/tcc805x-freertos-debug/obj/mbox_dev.o
MBOX_PhyIsOenSet                                  /home/vboxuser/Desktop/topst/cr5-bsp/sources/build/tcc805x/gcc/tcc805x-freertos-debug/obj/mbox_phy.o
                                                  /home/vboxuser/Desktop/topst/cr5-bsp/sources/build/tcc805x/gcc/tcc805x-freertos-debug/obj/mbox_dev.o
MBOX_PhyReadCmd                                   /home/vboxuser/Desktop/topst/cr5-bsp/sources/build/tcc805x/gcc/tcc805x-freertos-debug/obj/mbox_phy.o
                                                  /home/vboxuser/Desktop/topst/cr5-bsp/sources/build/tcc805x/gcc/tcc805x-freertos-debug/obj/mbox_dev.o
MBOX_PhyReadData                                  /home/vboxuser/Desktop/topst/cr5-bsp/sources/build/tcc805x/gcc/tcc805x-freertos-debug/obj/mbox_phy.o
                                                  /home/vboxuser/Desktop/topst/cr5-bsp/sources/build/tcc805x/gcc/tcc805x-freertos-debug/obj/mbox_dev.o
MBOX_PhyReady                                     /home/vboxuser/Desktop/topst/cr5-bsp/sources/build/tcc805x/gcc/tcc805x-freertos-debug/obj/mbox_phy.o
                                                  /home/vboxuser/Desktop/topst/cr5-bsp/sources/build/tcc805x/gcc/tcc805x-freertos-debug/obj/mbox_dev.o
MBOX_PhySetOwnTmnSts                              /home/vboxuser/Desktop/topst/cr5-bsp/sources/build/tcc805x/gcc/tcc805x-freertos-debug/obj/mbox_phy.o
                                                  /home/vboxuser/Desktop/topst/cr5-bsp/sources/build/tcc805x/gcc/tcc805x-freertos-debug/obj/mbox_dev.o
MBOX_PhyWriteCmd                                  /home/vboxuser/Desktop/topst/cr5-bsp/sources/build/tcc805x/gcc/tcc805x-freertos-debug/obj/mbox_phy.o
                                                  /home/vboxuser/Desktop/topst/cr5-bsp/sources/build/tcc805x/gcc/tcc805x-freertos-debug/obj/mbox_dev.o
MBOX_PhyWriteData                                 /home/vboxuser/Desktop/topst/cr5-bsp/sources/build/tcc805x/gcc/tcc805x-freertos-debug/obj/mbox_phy.o
                                                  /home/vboxuser/Desktop/topst/cr5-bsp/sources/build/tcc805x/gcc/tcc805x-freertos-debug/obj/mbox_dev.o
MIDF_ConfigSoftFaultCheckSafetyMechanism          /home/vboxuser/Desktop/topst/cr5-bsp/sources/build/tcc805x/gcc/tcc805x-freertos-debug/obj/midf.o
MIDF_FilterInitialize                             /home/vboxuser/Desktop/topst/cr5-bsp/sources/build/tcc805x/gcc/tcc805x-freertos-debug/obj/midf.o
                                                  /home/vboxuser/Desktop/topst/cr5-bsp/sources/build/tcc805x/gcc/tcc805x-freertos-debug/obj/console.o
MIDF_RegisterFilterRegion                         /home/vboxuser/Desktop/topst/cr5-bsp/sources/build/tcc805x/gcc/tcc805x-freertos-debug/obj/midf.o
                                                  /home/vboxuser/Desktop/topst/cr5-bsp/sources/build/tcc805x/gcc/tcc805x-freertos-debug/obj/console.o
MIDF_RegisterWriteLockSafetyMechanism             /home/vboxuser/Desktop/topst/cr5-bsp/sources/build/tcc805x/gcc/tcc805x-freertos-debug/obj/midf.o
MIDF_UnregisterFilterRegion                       /home/vboxuser/Desktop/topst/cr5-bsp/sources/build/tcc805x/gcc/tcc805x-freertos-debug/obj/midf.o
                                                  /home/vboxuser/Desktop/topst/cr5-bsp/sources/build/tcc805x/gcc/tcc805x-freertos-debug/obj/console.o
MPTool_CreateApp                                  /home/vboxuser/Desktop/topst/cr5-bsp/sources/build/tcc805x/gcc/tcc805x-freertos-debug/obj/mptool.o
MPU_Disable                                       /home/vboxuser/Desktop/topst/cr5-bsp/sources/build/tcc805x/gcc/tcc805x-freertos-debug/obj/mpu.o
                                                  /home/vboxuser/Desktop/topst/cr5-bsp/sources/build/tcc805x/gcc/tcc805x-freertos-debug/obj/fwug.o
MPU_Enable                                        /home/vboxuser/Desktop/topst/cr5-bsp/sources/build/tcc805x/gcc/tcc805x-freertos-debug/obj/mpu.o
                                                  /home/vboxuser/Desktop/topst/cr5-bsp/sources/build/tcc805x/gcc/tcc805x-freertos-debug/obj/fwug.o
MPU_GetDMABaseAddress                             /home/vboxuser/Desktop/topst/cr5-bsp/sources/build/tcc805x/gcc/tcc805x-freertos-debug/obj/mpu.o
                                                  /home/vboxuser/Desktop/topst/cr5-bsp/sources/build/tcc805x/gcc/tcc805x-freertos-debug/obj/uart.o
                                                  /home/vboxuser/Desktop/topst/cr5-bsp/sources/build/tcc805x/gcc/tcc805x-freertos-debug/obj/gpsb_test.o
MPU_Init                                          /home/vboxuser/Desktop/topst/cr5-bsp/sources/build/tcc805x/gcc/tcc805x-freertos-debug/obj/mpu.o
                                                  /home/vboxuser/Desktop/topst/cr5-bsp/sources/build/tcc805x/gcc/tcc805x-freertos-debug/obj/startup.o
MPU_SetRegion                                     /home/vboxuser/Desktop/topst/cr5-bsp/sources/build/tcc805x/gcc/tcc805x-freertos-debug/obj/mpu.o
                                                  /home/vboxuser/Desktop/topst/cr5-bsp/sources/build/tcc805x/gcc/tcc805x-freertos-debug/obj/fwug.o
PDM_Deinit                                        /home/vboxuser/Desktop/topst/cr5-bsp/sources/build/tcc805x/gcc/tcc805x-freertos-debug/obj/pdm.o
PDM_Disable                                       /home/vboxuser/Desktop/topst/cr5-bsp/sources/build/tcc805x/gcc/tcc805x-freertos-debug/obj/pdm.o
                                                  /home/vboxuser/Desktop/topst/cr5-bsp/sources/build/tcc805x/gcc/tcc805x-freertos-debug/obj/Motor_System.o
                                                  /home/vboxuser/Desktop/topst/cr5-bsp/sources/build/tcc805x/gcc/tcc805x-freertos-debug/obj/pwm_test.o
                                                  /home/vboxuser/Desktop/topst/cr5-bsp/sources/build/tcc805x/gcc/tcc805x-freertos-debug/obj/pdm_test.o
PDM_DisableClock                                  /home/vboxuser/Desktop/topst/cr5-bsp/sources/build/tcc805x/gcc/tcc805x-freertos-debug/obj/pdm.o
PDM_Enable                                        /home/vboxuser/Desktop/topst/cr5-bsp/sources/build/tcc805x/gcc/tcc805x-freertos-debug/obj/pdm.o
                                                  /home/vboxuser/Desktop/topst/cr5-bsp/sources/build/tcc805x/gcc/tcc805x-freertos-debug/obj/Motor_System.o
                                                  /home/vboxuser/Desktop/topst/cr5-bsp/sources/build/tcc805x/gcc/tcc805x-freertos-debug/obj/pwm_test.o
                                                  /home/vboxuser/Desktop/topst/cr5-bsp/sources/build/tcc805x/gcc/tcc805x-freertos-debug/obj/pdm_test.o
PDM_EnableClock                                   /home/vboxuser/Desktop/topst/cr5-bsp/sources/build/tcc805x/gcc/tcc805x-freertos-debug/obj/pdm.o
PDM_GetChannelStatus                              /home/vboxuser/Desktop/topst/cr5-bsp/sources/build/tcc805x/gcc/tcc805x-freertos-debug/obj/pdm.o
PDM_Init                                          /home/vboxuser/Desktop/topst/cr5-bsp/sources/build/tcc805x/gcc/tcc805x-freertos-debug/obj/pdm.o
                                                  /home/vboxuser/Desktop/topst/cr5-bsp/sources/build/tcc805x/gcc/tcc805x-freertos-debug/obj/pwm_test.o
                                                  /home/vboxuser/Desktop/topst/cr5-bsp/sources/build/tcc805x/gcc/tcc805x-freertos-debug/obj/pdm_test.o
PDM_SelectTestCase                                /home/vboxuser/Desktop/topst/cr5-bsp/sources/build/tcc805x/gcc/tcc805x-freertos-debug/obj/pdm_test.o
                                                  /home/vboxuser/Desktop/topst/cr5-bsp/sources/build/tcc805x/gcc/tcc805x-freertos-debug/obj/console.o
PDM_SetConfig                                     /home/vboxuser/Desktop/topst/cr5-bsp/sources/build/tcc805x/gcc/tcc805x-freertos-debug/obj/pdm.o
                                                  /home/vboxuser/Desktop/topst/cr5-bsp/sources/build/tcc805x/gcc/tcc805x-freertos-debug/obj/Motor_System.o
                                                  /home/vboxuser/Desktop/topst/cr5-bsp/sources/build/tcc805x/gcc/tcc805x-freertos-debug/obj/pwm_test.o
                                                  /home/vboxuser/Desktop/topst/cr5-bsp/sources/build/tcc805x/gcc/tcc805x-freertos-debug/obj/pdm_test.o
PMIO_APBootOk                                     /home/vboxuser/Desktop/topst/cr5-bsp/sources/build/tcc805x/gcc/tcc805x-freertos-debug/obj/pmio_dev.o
                                                  /home/vboxuser/Desktop/topst/cr5-bsp/sources/build/tcc805x/gcc/tcc805x-freertos-debug/obj/bootctrl.o
PMIO_ClearBackupRAM                               /home/vboxuser/Desktop/topst/cr5-bsp/sources/build/tcc805x/gcc/tcc805x-freertos-debug/obj/pmio_dev.o
PMIO_DebugPrintPowerStatus                        /home/vboxuser/Desktop/topst/cr5-bsp/sources/build/tcc805x/gcc/tcc805x-freertos-debug/obj/pmio_dev.o
                                                  /home/vboxuser/Desktop/topst/cr5-bsp/sources/build/tcc805x/gcc/tcc805x-freertos-debug/obj/pmio_test.o
PMIO_EarlyWakeUp                                  /home/vboxuser/Desktop/topst/cr5-bsp/sources/build/tcc805x/gcc/tcc805x-freertos-debug/obj/pmio_dev.o
                                                  /home/vboxuser/Desktop/topst/cr5-bsp/sources/build/tcc805x/gcc/tcc805x-freertos-debug/obj/startup.o
PMIO_ForceSTRModeTest                             /home/vboxuser/Desktop/topst/cr5-bsp/sources/build/tcc805x/gcc/tcc805x-freertos-debug/obj/pmio_dev.o
                                                  /home/vboxuser/Desktop/topst/cr5-bsp/sources/build/tcc805x/gcc/tcc805x-freertos-debug/obj/pmio_test.o
PMIO_GetBackupRam                                 /home/vboxuser/Desktop/topst/cr5-bsp/sources/build/tcc805x/gcc/tcc805x-freertos-debug/obj/pmio_dev.o
PMIO_GetBootReason                                /home/vboxuser/Desktop/topst/cr5-bsp/sources/build/tcc805x/gcc/tcc805x-freertos-debug/obj/pmio_dev.o
PMIO_GetWdtReset                                  /home/vboxuser/Desktop/topst/cr5-bsp/sources/build/tcc805x/gcc/tcc805x-freertos-debug/obj/pmio_dev.o
PMIO_Init                                         /home/vboxuser/Desktop/topst/cr5-bsp/sources/build/tcc805x/gcc/tcc805x-freertos-debug/obj/pmio_dev.o
                                                  /home/vboxuser/Desktop/topst/cr5-bsp/sources/build/tcc805x/gcc/tcc805x-freertos-debug/obj/bsp.o
PMIO_PowerDown                                    /home/vboxuser/Desktop/topst/cr5-bsp/sources/build/tcc805x/gcc/tcc805x-freertos-debug/obj/pmio_dev.o
PMIO_SetBackupRam                                 /home/vboxuser/Desktop/topst/cr5-bsp/sources/build/tcc805x/gcc/tcc805x-freertos-debug/obj/pmio_dev.o
PMIO_SetGPK                                       /home/vboxuser/Desktop/topst/cr5-bsp/sources/build/tcc805x/gcc/tcc805x-freertos-debug/obj/pmio_dev.o
                                                  /home/vboxuser/Desktop/topst/cr5-bsp/sources/build/tcc805x/gcc/tcc805x-freertos-debug/obj/can_porting.o
                                                  /home/vboxuser/Desktop/topst/cr5-bsp/sources/build/tcc805x/gcc/tcc805x-freertos-debug/obj/lin.o
                                                  /home/vboxuser/Desktop/topst/cr5-bsp/sources/build/tcc805x/gcc/tcc805x-freertos-debug/obj/key_adc.o
PMIO_TEST_GetByAddress                            /home/vboxuser/Desktop/topst/cr5-bsp/sources/build/tcc805x/gcc/tcc805x-freertos-debug/obj/pmio_test.o
PMIO_TEST_GetByName                               /home/vboxuser/Desktop/topst/cr5-bsp/sources/build/tcc805x/gcc/tcc805x-freertos-debug/obj/pmio_test.o
                                                  /home/vboxuser/Desktop/topst/cr5-bsp/sources/build/tcc805x/gcc/tcc805x-freertos-debug/obj/console.o
PMIO_TEST_PrintStatus                             /home/vboxuser/Desktop/topst/cr5-bsp/sources/build/tcc805x/gcc/tcc805x-freertos-debug/obj/pmio_test.o
                                                  /home/vboxuser/Desktop/topst/cr5-bsp/sources/build/tcc805x/gcc/tcc805x-freertos-debug/obj/console.o
PMIO_TEST_Run                                     /home/vboxuser/Desktop/topst/cr5-bsp/sources/build/tcc805x/gcc/tcc805x-freertos-debug/obj/pmio_test.o
                                                  /home/vboxuser/Desktop/topst/cr5-bsp/sources/build/tcc805x/gcc/tcc805x-freertos-debug/obj/console.o
PMIO_TEST_SetByAddress                            /home/vboxuser/Desktop/topst/cr5-bsp/sources/build/tcc805x/gcc/tcc805x-freertos-debug/obj/pmio_test.o
PMIO_TEST_SetByName                               /home/vboxuser/Desktop/topst/cr5-bsp/sources/build/tcc805x/gcc/tcc805x-freertos-debug/obj/pmio_test.o
                                                  /home/vboxuser/Desktop/topst/cr5-bsp/sources/build/tcc805x/gcc/tcc805x-freertos-debug/obj/console.o
PMU_ResetAPSystemReboot                           /home/vboxuser/Desktop/topst/cr5-bsp/sources/build/tcc805x/gcc/tcc805x-freertos-debug/obj/pmu_reset.o
                                                  /home/vboxuser/Desktop/topst/cr5-bsp/sources/build/tcc805x/gcc/tcc805x-freertos-debug/obj/reset_demo.o
PMU_ResetColdReset                                /home/vboxuser/Desktop/topst/cr5-bsp/sources/build/tcc805x/gcc/tcc805x-freertos-debug/obj/pmu_reset.o
                                                  /home/vboxuser/Desktop/topst/cr5-bsp/sources/build/tcc805x/gcc/tcc805x-freertos-debug/obj/reset_demo.o
PMU_ResetPreCfg                                   /home/vboxuser/Desktop/topst/cr5-bsp/sources/build/tcc805x/gcc/tcc805x-freertos-debug/obj/pmu_reset.o
                                                  /home/vboxuser/Desktop/topst/cr5-bsp/sources/build/tcc805x/gcc/tcc805x-freertos-debug/obj/bsp.o
PMU_ResetSCWDTInit                                /home/vboxuser/Desktop/topst/cr5-bsp/sources/build/tcc805x/gcc/tcc805x-freertos-debug/obj/pmu_reset.o
                                                  /home/vboxuser/Desktop/topst/cr5-bsp/sources/build/tcc805x/gcc/tcc805x-freertos-debug/obj/bsp.o
PMU_ResetSDMRstMskCfg                             /home/vboxuser/Desktop/topst/cr5-bsp/sources/build/tcc805x/gcc/tcc805x-freertos-debug/obj/pmu_reset.o
                                                  /home/vboxuser/Desktop/topst/cr5-bsp/sources/build/tcc805x/gcc/tcc805x-freertos-debug/obj/sdm.o
PMU_ResetTRVCRstMskCfg                            /home/vboxuser/Desktop/topst/cr5-bsp/sources/build/tcc805x/gcc/tcc805x-freertos-debug/obj/pmu_reset.o
PMU_ResetTest                                     /home/vboxuser/Desktop/topst/cr5-bsp/sources/build/tcc805x/gcc/tcc805x-freertos-debug/obj/reset_demo.o
                                                  /home/vboxuser/Desktop/topst/cr5-bsp/sources/build/tcc805x/gcc/tcc805x-freertos-debug/obj/console.o
PWM_SelectTestCase                                /home/vboxuser/Desktop/topst/cr5-bsp/sources/build/tcc805x/gcc/tcc805x-freertos-debug/obj/pwm_test.o
                                                  /home/vboxuser/Desktop/topst/cr5-bsp/sources/build/tcc805x/gcc/tcc805x-freertos-debug/obj/console.o
PWM_SwitchCtrl                                    /home/vboxuser/Desktop/topst/cr5-bsp/sources/build/tcc805x/gcc/tcc805x-freertos-debug/obj/pwm_test.o
PWM_TestLED                                       /home/vboxuser/Desktop/topst/cr5-bsp/sources/build/tcc805x/gcc/tcc805x-freertos-debug/obj/pwm_test.o
PWM_TestMotorGpio                                 /home/vboxuser/Desktop/topst/cr5-bsp/sources/build/tcc805x/gcc/tcc805x-freertos-debug/obj/pwm_test.o
                                                  /home/vboxuser/Desktop/topst/cr5-bsp/sources/build/tcc805x/gcc/tcc805x-freertos-debug/obj/Motor_System.o
PWM_TestSetGpio                                   /home/vboxuser/Desktop/topst/cr5-bsp/sources/build/tcc805x/gcc/tcc805x-freertos-debug/obj/pwm_test.o
PWM_TestSleepForSec                               /home/vboxuser/Desktop/topst/cr5-bsp/sources/build/tcc805x/gcc/tcc805x-freertos-debug/obj/pwm_test.o
PWM_TestSwitchGpio                                /home/vboxuser/Desktop/topst/cr5-bsp/sources/build/tcc805x/gcc/tcc805x-freertos-debug/obj/pwm_test.o
RxBufferFIFO0InfoPar                              /home/vboxuser/Desktop/topst/cr5-bsp/sources/build/tcc805x/gcc/tcc805x-freertos-debug/obj/can_par.o
                                                  /home/vboxuser/Desktop/topst/cr5-bsp/sources/build/tcc805x/gcc/tcc805x-freertos-debug/obj/can_drv.o
RxBufferFIFO1InfoPar                              /home/vboxuser/Desktop/topst/cr5-bsp/sources/build/tcc805x/gcc/tcc805x-freertos-debug/obj/can_par.o
                                                  /home/vboxuser/Desktop/topst/cr5-bsp/sources/build/tcc805x/gcc/tcc805x-freertos-debug/obj/can_drv.o
RxBufferInfoPar                                   /home/vboxuser/Desktop/topst/cr5-bsp/sources/build/tcc805x/gcc/tcc805x-freertos-debug/obj/can_par.o
                                                  /home/vboxuser/Desktop/topst/cr5-bsp/sources/build/tcc805x/gcc/tcc805x-freertos-debug/obj/can_drv.o
SAL_Init                                          /home/vboxuser/Desktop/topst/cr5-bsp/sources/build/tcc805x/gcc/tcc805x-freertos-debug/obj/sal_freertos_impl.o
                                                  /home/vboxuser/Desktop/topst/cr5-bsp/sources/build/tcc805x/gcc/tcc805x-freertos-debug/obj/main.o
SAL_RegisterFunction                              /home/vboxuser/Desktop/topst/cr5-bsp/sources/build/tcc805x/gcc/tcc805x-freertos-debug/obj/sal_api.o
                                                  /home/vboxuser/Desktop/topst/cr5-bsp/sources/build/tcc805x/gcc/tcc805x-freertos-debug/obj/sal_freertos_impl.o
SDM_Init                                          /home/vboxuser/Desktop/topst/cr5-bsp/sources/build/tcc805x/gcc/tcc805x-freertos-debug/obj/sdm.o
                                                  /home/vboxuser/Desktop/topst/cr5-bsp/sources/build/tcc805x/gcc/tcc805x-freertos-debug/obj/main.o
SDM_ReadReg                                       /home/vboxuser/Desktop/topst/cr5-bsp/sources/build/tcc805x/gcc/tcc805x-freertos-debug/obj/sdm.o
                                                  /home/vboxuser/Desktop/topst/cr5-bsp/sources/build/tcc805x/gcc/tcc805x-freertos-debug/obj/console.o
SDM_WriteReg                                      /home/vboxuser/Desktop/topst/cr5-bsp/sources/build/tcc805x/gcc/tcc805x-freertos-debug/obj/sdm.o
                                                  /home/vboxuser/Desktop/topst/cr5-bsp/sources/build/tcc805x/gcc/tcc805x-freertos-debug/obj/console.o
SM_CreateAppTask                                  /home/vboxuser/Desktop/topst/cr5-bsp/sources/build/tcc805x/gcc/tcc805x-freertos-debug/obj/system_monitoring.o
StandardIDFilterPar                               /home/vboxuser/Desktop/topst/cr5-bsp/sources/build/tcc805x/gcc/tcc805x-freertos-debug/obj/can_par.o
                                                  /home/vboxuser/Desktop/topst/cr5-bsp/sources/build/tcc805x/gcc/tcc805x-freertos-debug/obj/can_drv.o
TIMER_Disable                                     /home/vboxuser/Desktop/topst/cr5-bsp/sources/build/tcc805x/gcc/tcc805x-freertos-debug/obj/timer.o
                                                  /home/vboxuser/Desktop/topst/cr5-bsp/sources/build/tcc805x/gcc/tcc805x-freertos-debug/obj/pmio_dev.o
                                                  /home/vboxuser/Desktop/topst/cr5-bsp/sources/build/tcc805x/gcc/tcc805x-freertos-debug/obj/Motor_System.o
                                                  /home/vboxuser/Desktop/topst/cr5-bsp/sources/build/tcc805x/gcc/tcc805x-freertos-debug/obj/timer_test.o
TIMER_Enable                                      /home/vboxuser/Desktop/topst/cr5-bsp/sources/build/tcc805x/gcc/tcc805x-freertos-debug/obj/timer.o
                                                  /home/vboxuser/Desktop/topst/cr5-bsp/sources/build/tcc805x/gcc/tcc805x-freertos-debug/obj/port.o
                                                  /home/vboxuser/Desktop/topst/cr5-bsp/sources/build/tcc805x/gcc/tcc805x-freertos-debug/obj/pmio_dev.o
                                                  /home/vboxuser/Desktop/topst/cr5-bsp/sources/build/tcc805x/gcc/tcc805x-freertos-debug/obj/wdt_test.o
TIMER_EnableWithCfg                               /home/vboxuser/Desktop/topst/cr5-bsp/sources/build/tcc805x/gcc/tcc805x-freertos-debug/obj/timer.o
                                                  /home/vboxuser/Desktop/topst/cr5-bsp/sources/build/tcc805x/gcc/tcc805x-freertos-debug/obj/timer_test.o
TIMER_EnableWithMode                              /home/vboxuser/Desktop/topst/cr5-bsp/sources/build/tcc805x/gcc/tcc805x-freertos-debug/obj/timer.o
                                                  /home/vboxuser/Desktop/topst/cr5-bsp/sources/build/tcc805x/gcc/tcc805x-freertos-debug/obj/wdt_test.o
                                                  /home/vboxuser/Desktop/topst/cr5-bsp/sources/build/tcc805x/gcc/tcc805x-freertos-debug/obj/timer_test.o
TIMER_GetCurrentMainCounter                       /home/vboxuser/Desktop/topst/cr5-bsp/sources/build/tcc805x/gcc/tcc805x-freertos-debug/obj/timer.o
                                                  /home/vboxuser/Desktop/topst/cr5-bsp/sources/build/tcc805x/gcc/tcc805x-freertos-debug/obj/Motor_System.o
                                                  /home/vboxuser/Desktop/topst/cr5-bsp/sources/build/tcc805x/gcc/tcc805x-freertos-debug/obj/timer_test.o
TIMER_GetCurrentMainCounter1                      /home/vboxuser/Desktop/topst/cr5-bsp/sources/build/tcc805x/gcc/tcc805x-freertos-debug/obj/timer.o
TIMER_Init                                        /home/vboxuser/Desktop/topst/cr5-bsp/sources/build/tcc805x/gcc/tcc805x-freertos-debug/obj/timer.o
                                                  /home/vboxuser/Desktop/topst/cr5-bsp/sources/build/tcc805x/gcc/tcc805x-freertos-debug/obj/bsp.o
TIMER_InterruptClear                              /home/vboxuser/Desktop/topst/cr5-bsp/sources/build/tcc805x/gcc/tcc805x-freertos-debug/obj/timer.o
                                                  /home/vboxuser/Desktop/topst/cr5-bsp/sources/build/tcc805x/gcc/tcc805x-freertos-debug/obj/port.o
TIMER_StartTimerTest                              /home/vboxuser/Desktop/topst/cr5-bsp/sources/build/tcc805x/gcc/tcc805x-freertos-debug/obj/timer_test.o
                                                  /home/vboxuser/Desktop/topst/cr5-bsp/sources/build/tcc805x/gcc/tcc805x-freertos-debug/obj/console.o
TxBufferInfoPar                                   /home/vboxuser/Desktop/topst/cr5-bsp/sources/build/tcc805x/gcc/tcc805x-freertos-debug/obj/can_par.o
                                                  /home/vboxuser/Desktop/topst/cr5-bsp/sources/build/tcc805x/gcc/tcc805x-freertos-debug/obj/can_drv.o
UART_Close                                        /home/vboxuser/Desktop/topst/cr5-bsp/sources/build/tcc805x/gcc/tcc805x-freertos-debug/obj/uart.o
UART_GetChar                                      /home/vboxuser/Desktop/topst/cr5-bsp/sources/build/tcc805x/gcc/tcc805x-freertos-debug/obj/uart.o
                                                  /home/vboxuser/Desktop/topst/cr5-bsp/sources/build/tcc805x/gcc/tcc805x-freertos-debug/obj/console.o
UART_GetData                                      /home/vboxuser/Desktop/topst/cr5-bsp/sources/build/tcc805x/gcc/tcc805x-freertos-debug/obj/uart.o
                                                  /home/vboxuser/Desktop/topst/cr5-bsp/sources/build/tcc805x/gcc/tcc805x-freertos-debug/obj/lin.o
UART_GetRawInterruptStatusReg                     /home/vboxuser/Desktop/topst/cr5-bsp/sources/build/tcc805x/gcc/tcc805x-freertos-debug/obj/uart.o
UART_GetReceiveStatusReg                          /home/vboxuser/Desktop/topst/cr5-bsp/sources/build/tcc805x/gcc/tcc805x-freertos-debug/obj/uart.o
UART_ISR                                          /home/vboxuser/Desktop/topst/cr5-bsp/sources/build/tcc805x/gcc/tcc805x-freertos-debug/obj/uart.o
UART_Init                                         /home/vboxuser/Desktop/topst/cr5-bsp/sources/build/tcc805x/gcc/tcc805x-freertos-debug/obj/uart.o
                                                  /home/vboxuser/Desktop/topst/cr5-bsp/sources/build/tcc805x/gcc/tcc805x-freertos-debug/obj/bsp.o
UART_Open                                         /home/vboxuser/Desktop/topst/cr5-bsp/sources/build/tcc805x/gcc/tcc805x-freertos-debug/obj/uart.o
                                                  /home/vboxuser/Desktop/topst/cr5-bsp/sources/build/tcc805x/gcc/tcc805x-freertos-debug/obj/lin.o
UART_PutChar                                      /home/vboxuser/Desktop/topst/cr5-bsp/sources/build/tcc805x/gcc/tcc805x-freertos-debug/obj/uart.o
                                                  /home/vboxuser/Desktop/topst/cr5-bsp/sources/build/tcc805x/gcc/tcc805x-freertos-debug/obj/debug.o
                                                  /home/vboxuser/Desktop/topst/cr5-bsp/sources/build/tcc805x/gcc/tcc805x-freertos-debug/obj/lin.o
UART_Read                                         /home/vboxuser/Desktop/topst/cr5-bsp/sources/build/tcc805x/gcc/tcc805x-freertos-debug/obj/uart.o
                                                  /home/vboxuser/Desktop/topst/cr5-bsp/sources/build/tcc805x/gcc/tcc805x-freertos-debug/obj/Motor_System.o
UART_SetErrorClearReg                             /home/vboxuser/Desktop/topst/cr5-bsp/sources/build/tcc805x/gcc/tcc805x-freertos-debug/obj/uart.o
UART_SetInterruptClearReg                         /home/vboxuser/Desktop/topst/cr5-bsp/sources/build/tcc805x/gcc/tcc805x-freertos-debug/obj/uart.o
UART_SetLineControlReg                            /home/vboxuser/Desktop/topst/cr5-bsp/sources/build/tcc805x/gcc/tcc805x-freertos-debug/obj/uart.o
                                                  /home/vboxuser/Desktop/topst/cr5-bsp/sources/build/tcc805x/gcc/tcc805x-freertos-debug/obj/lin.o
UART_Write                                        /home/vboxuser/Desktop/topst/cr5-bsp/sources/build/tcc805x/gcc/tcc805x-freertos-debug/obj/uart.o
                                                  /home/vboxuser/Desktop/topst/cr5-bsp/sources/build/tcc805x/gcc/tcc805x-freertos-debug/obj/Motor_System.o
                                                  /home/vboxuser/Desktop/topst/cr5-bsp/sources/build/tcc805x/gcc/tcc805x-freertos-debug/obj/console.o
UDMA_ChannelDisable                               /home/vboxuser/Desktop/topst/cr5-bsp/sources/build/tcc805x/gcc/tcc805x-freertos-debug/obj/udma.o
UDMA_ChannelEnable                                /home/vboxuser/Desktop/topst/cr5-bsp/sources/build/tcc805x/gcc/tcc805x-freertos-debug/obj/udma.o
                                                  /home/vboxuser/Desktop/topst/cr5-bsp/sources/build/tcc805x/gcc/tcc805x-freertos-debug/obj/uart.o
UDMA_GetDestAddr                                  /home/vboxuser/Desktop/topst/cr5-bsp/sources/build/tcc805x/gcc/tcc805x-freertos-debug/obj/udma.o
UDMA_GetTransferSize                              /home/vboxuser/Desktop/topst/cr5-bsp/sources/build/tcc805x/gcc/tcc805x-freertos-debug/obj/udma.o
                                                  /home/vboxuser/Desktop/topst/cr5-bsp/sources/build/tcc805x/gcc/tcc805x-freertos-debug/obj/uart.o
UDMA_Init                                         /home/vboxuser/Desktop/topst/cr5-bsp/sources/build/tcc805x/gcc/tcc805x-freertos-debug/obj/udma.o
                                                  /home/vboxuser/Desktop/topst/cr5-bsp/sources/build/tcc805x/gcc/tcc805x-freertos-debug/obj/uart.o
UDMA_InterruptDisable                             /home/vboxuser/Desktop/topst/cr5-bsp/sources/build/tcc805x/gcc/tcc805x-freertos-debug/obj/udma.o
UDMA_InterruptEnable                              /home/vboxuser/Desktop/topst/cr5-bsp/sources/build/tcc805x/gcc/tcc805x-freertos-debug/obj/udma.o
                                                  /home/vboxuser/Desktop/topst/cr5-bsp/sources/build/tcc805x/gcc/tcc805x-freertos-debug/obj/uart.o
UDMA_Reset                                        /home/vboxuser/Desktop/topst/cr5-bsp/sources/build/tcc805x/gcc/tcc805x-freertos-debug/obj/udma.o
                                                  /home/vboxuser/Desktop/topst/cr5-bsp/sources/build/tcc805x/gcc/tcc805x-freertos-debug/obj/uart.o
UDMA_SetAddrIncrement                             /home/vboxuser/Desktop/topst/cr5-bsp/sources/build/tcc805x/gcc/tcc805x-freertos-debug/obj/udma.o
                                                  /home/vboxuser/Desktop/topst/cr5-bsp/sources/build/tcc805x/gcc/tcc805x-freertos-debug/obj/uart.o
UDMA_SetBurstSize                                 /home/vboxuser/Desktop/topst/cr5-bsp/sources/build/tcc805x/gcc/tcc805x-freertos-debug/obj/udma.o
                                                  /home/vboxuser/Desktop/topst/cr5-bsp/sources/build/tcc805x/gcc/tcc805x-freertos-debug/obj/uart.o
UDMA_SetDestAddr                                  /home/vboxuser/Desktop/topst/cr5-bsp/sources/build/tcc805x/gcc/tcc805x-freertos-debug/obj/udma.o
                                                  /home/vboxuser/Desktop/topst/cr5-bsp/sources/build/tcc805x/gcc/tcc805x-freertos-debug/obj/uart.o
UDMA_SetFlowControl                               /home/vboxuser/Desktop/topst/cr5-bsp/sources/build/tcc805x/gcc/tcc805x-freertos-debug/obj/udma.o
                                                  /home/vboxuser/Desktop/topst/cr5-bsp/sources/build/tcc805x/gcc/tcc805x-freertos-debug/obj/uart.o
UDMA_SetPeri                                      /home/vboxuser/Desktop/topst/cr5-bsp/sources/build/tcc805x/gcc/tcc805x-freertos-debug/obj/udma.o
                                                  /home/vboxuser/Desktop/topst/cr5-bsp/sources/build/tcc805x/gcc/tcc805x-freertos-debug/obj/uart.o
UDMA_SetSrcAddr                                   /home/vboxuser/Desktop/topst/cr5-bsp/sources/build/tcc805x/gcc/tcc805x-freertos-debug/obj/udma.o
                                                  /home/vboxuser/Desktop/topst/cr5-bsp/sources/build/tcc805x/gcc/tcc805x-freertos-debug/obj/uart.o
UDMA_SetTransferSize                              /home/vboxuser/Desktop/topst/cr5-bsp/sources/build/tcc805x/gcc/tcc805x-freertos-debug/obj/udma.o
                                                  /home/vboxuser/Desktop/topst/cr5-bsp/sources/build/tcc805x/gcc/tcc805x-freertos-debug/obj/uart.o
UDMA_SetTransferWidth                             /home/vboxuser/Desktop/topst/cr5-bsp/sources/build/tcc805x/gcc/tcc805x-freertos-debug/obj/udma.o
                                                  /home/vboxuser/Desktop/topst/cr5-bsp/sources/build/tcc805x/gcc/tcc805x-freertos-debug/obj/uart.o
UDMA_SetlliAddr                                   /home/vboxuser/Desktop/topst/cr5-bsp/sources/build/tcc805x/gcc/tcc805x-freertos-debug/obj/udma.o
UDMA_TransferMem2Mem                              /home/vboxuser/Desktop/topst/cr5-bsp/sources/build/tcc805x/gcc/tcc805x-freertos-debug/obj/udma.o
Uart_PWM                                          /home/vboxuser/Desktop/topst/cr5-bsp/sources/build/tcc805x/gcc/tcc805x-freertos-debug/obj/Motor_System.o
UltraSonic_main                                   /home/vboxuser/Desktop/topst/cr5-bsp/sources/build/tcc805x/gcc/tcc805x-freertos-debug/obj/Motor_System.o
Ultravalue                                        /home/vboxuser/Desktop/topst/cr5-bsp/sources/build/tcc805x/gcc/tcc805x-freertos-debug/obj/Motor_System.o
WDT_Init                                          /home/vboxuser/Desktop/topst/cr5-bsp/sources/build/tcc805x/gcc/tcc805x-freertos-debug/obj/wdt.o
                                                  /home/vboxuser/Desktop/topst/cr5-bsp/sources/build/tcc805x/gcc/tcc805x-freertos-debug/obj/bsp.o
                                                  /home/vboxuser/Desktop/topst/cr5-bsp/sources/build/tcc805x/gcc/tcc805x-freertos-debug/obj/wdt_test.o
WDT_KickPing                                      /home/vboxuser/Desktop/topst/cr5-bsp/sources/build/tcc805x/gcc/tcc805x-freertos-debug/obj/wdt.o
                                                  /home/vboxuser/Desktop/topst/cr5-bsp/sources/build/tcc805x/gcc/tcc805x-freertos-debug/obj/wdt_test.o
                                                  /home/vboxuser/Desktop/topst/cr5-bsp/sources/build/tcc805x/gcc/tcc805x-freertos-debug/obj/timer_test.o
WDT_ResetSystem                                   /home/vboxuser/Desktop/topst/cr5-bsp/sources/build/tcc805x/gcc/tcc805x-freertos-debug/obj/wdt.o
                                                  /home/vboxuser/Desktop/topst/cr5-bsp/sources/build/tcc805x/gcc/tcc805x-freertos-debug/obj/wdt_test.o
WDT_SmMode                                        /home/vboxuser/Desktop/topst/cr5-bsp/sources/build/tcc805x/gcc/tcc805x-freertos-debug/obj/wdt.o
                                                  /home/vboxuser/Desktop/topst/cr5-bsp/sources/build/tcc805x/gcc/tcc805x-freertos-debug/obj/wdt_test.o
                                                  /home/vboxuser/Desktop/topst/cr5-bsp/sources/build/tcc805x/gcc/tcc805x-freertos-debug/obj/timer_test.o
WDT_StartTest                                     /home/vboxuser/Desktop/topst/cr5-bsp/sources/build/tcc805x/gcc/tcc805x-freertos-debug/obj/wdt_test.o
                                                  /home/vboxuser/Desktop/topst/cr5-bsp/sources/build/tcc805x/gcc/tcc805x-freertos-debug/obj/console.o
WDT_Stop                                          /home/vboxuser/Desktop/topst/cr5-bsp/sources/build/tcc805x/gcc/tcc805x-freertos-debug/obj/wdt.o
                                                  /home/vboxuser/Desktop/topst/cr5-bsp/sources/build/tcc805x/gcc/tcc805x-freertos-debug/obj/wdt_test.o
                                                  /home/vboxuser/Desktop/topst/cr5-bsp/sources/build/tcc805x/gcc/tcc805x-freertos-debug/obj/timer_test.o
                                                  /home/vboxuser/Desktop/topst/cr5-bsp/sources/build/tcc805x/gcc/tcc805x-freertos-debug/obj/fwug.o
_Balloc                                           /home/vboxuser/Desktop/topst/buildtools/gcc-linaro-7.2.1-2017.11-x86_64_arm-eabi/arm-eabi/libc/usr/lib/libc.a(lib_a-mprec.o)
                                                  /home/vboxuser/Desktop/topst/buildtools/gcc-linaro-7.2.1-2017.11-x86_64_arm-eabi/arm-eabi/libc/usr/lib/libc.a(lib_a-dtoa.o)
_Bfree                                            /home/vboxuser/Desktop/topst/buildtools/gcc-linaro-7.2.1-2017.11-x86_64_arm-eabi/arm-eabi/libc/usr/lib/libc.a(lib_a-mprec.o)
                                                  /home/vboxuser/Desktop/topst/buildtools/gcc-linaro-7.2.1-2017.11-x86_64_arm-eabi/arm-eabi/libc/usr/lib/libc.a(lib_a-dtoa.o)
_PathLocale                                       /home/vboxuser/Desktop/topst/buildtools/gcc-linaro-7.2.1-2017.11-x86_64_arm-eabi/arm-eabi/libc/usr/lib/libc.a(lib_a-locale.o)
__BSS_END__                                       /home/vboxuser/Desktop/topst/cr5-bsp/sources/build/tcc805x/gcc/tcc805x-freertos-debug/obj/startup.o
__BSS_START__                                     /home/vboxuser/Desktop/topst/cr5-bsp/sources/build/tcc805x/gcc/tcc805x-freertos-debug/obj/startup.o
__C_locale                                        /home/vboxuser/Desktop/topst/buildtools/gcc-linaro-7.2.1-2017.11-x86_64_arm-eabi/arm-eabi/libc/usr/lib/libc.a(lib_a-locale.o)
__DATA_END__                                      /home/vboxuser/Desktop/topst/cr5-bsp/sources/build/tcc805x/gcc/tcc805x-freertos-debug/obj/startup.o
__DATA_START_LOAD                                 /home/vboxuser/Desktop/topst/cr5-bsp/sources/build/tcc805x/gcc/tcc805x-freertos-debug/obj/startup.o
__DATA_START__                                    /home/vboxuser/Desktop/topst/cr5-bsp/sources/build/tcc805x/gcc/tcc805x-freertos-debug/obj/startup.o
__DSB                                             /home/vboxuser/Desktop/topst/cr5-bsp/sources/build/tcc805x/gcc/tcc805x-freertos-debug/obj/freertos.o
                                                  /home/vboxuser/Desktop/topst/cr5-bsp/sources/build/tcc805x/gcc/tcc805x-freertos-debug/obj/sal_freertos_impl.o
__RODATA_END__                                    /home/vboxuser/Desktop/topst/cr5-bsp/sources/build/tcc805x/gcc/tcc805x-freertos-debug/obj/startup.o
__TEXT_START__                                    /home/vboxuser/Desktop/topst/cr5-bsp/sources/build/tcc805x/gcc/tcc805x-freertos-debug/obj/startup.o
__VECTOR_END__                                    /home/vboxuser/Desktop/topst/cr5-bsp/sources/build/tcc805x/gcc/tcc805x-freertos-debug/obj/startup.o
__VECTOR_START_LOAD                               /home/vboxuser/Desktop/topst/cr5-bsp/sources/build/tcc805x/gcc/tcc805x-freertos-debug/obj/startup.o
__VECTOR_START__                                  /home/vboxuser/Desktop/topst/cr5-bsp/sources/build/tcc805x/gcc/tcc805x-freertos-debug/obj/startup.o
__action_table                                    /home/vboxuser/Desktop/topst/buildtools/gcc-linaro-7.2.1-2017.11-x86_64_arm-eabi/arm-eabi/libc/usr/lib/libc.a(lib_a-svfiprintf.o)
                                                  /home/vboxuser/Desktop/topst/buildtools/gcc-linaro-7.2.1-2017.11-x86_64_arm-eabi/arm-eabi/libc/usr/lib/libc.a(lib_a-svfprintf.o)
__adddf3                                          /home/vboxuser/Desktop/topst/buildtools/gcc-linaro-7.2.1-2017.11-x86_64_arm-eabi/arm-eabi/libc/usr/lib/libgcc.a(_arm_addsubdf3.o)
__addsf3                                          /home/vboxuser/Desktop/topst/buildtools/gcc-linaro-7.2.1-2017.11-x86_64_arm-eabi/arm-eabi/libc/usr/lib/libgcc.a(_arm_addsubsf3.o)
__aeabi_cdcmpeq                                   /home/vboxuser/Desktop/topst/buildtools/gcc-linaro-7.2.1-2017.11-x86_64_arm-eabi/arm-eabi/libc/usr/lib/libgcc.a(_arm_cmpdf2.o)
__aeabi_cdcmple                                   /home/vboxuser/Desktop/topst/buildtools/gcc-linaro-7.2.1-2017.11-x86_64_arm-eabi/arm-eabi/libc/usr/lib/libgcc.a(_arm_cmpdf2.o)
__aeabi_cdrcmple                                  /home/vboxuser/Desktop/topst/buildtools/gcc-linaro-7.2.1-2017.11-x86_64_arm-eabi/arm-eabi/libc/usr/lib/libgcc.a(_arm_cmpdf2.o)
__aeabi_d2iz                                      /home/vboxuser/Desktop/topst/buildtools/gcc-linaro-7.2.1-2017.11-x86_64_arm-eabi/arm-eabi/libc/usr/lib/libgcc.a(_arm_fixdfsi.o)
                                                  /home/vboxuser/Desktop/topst/buildtools/gcc-linaro-7.2.1-2017.11-x86_64_arm-eabi/arm-eabi/libc/usr/lib/libc.a(lib_a-dtoa.o)
                                                  /home/vboxuser/Desktop/topst/buildtools/gcc-linaro-7.2.1-2017.11-x86_64_arm-eabi/arm-eabi/libc/usr/lib/libc.a(lib_a-svfprintf.o)
__aeabi_d2uiz                                     /home/vboxuser/Desktop/topst/buildtools/gcc-linaro-7.2.1-2017.11-x86_64_arm-eabi/arm-eabi/libc/usr/lib/libgcc.a(_arm_fixunsdfsi.o)
                                                  /home/vboxuser/Desktop/topst/cr5-bsp/sources/build/tcc805x/gcc/tcc805x-freertos-debug/obj/Motor_System.o
__aeabi_dadd                                      /home/vboxuser/Desktop/topst/buildtools/gcc-linaro-7.2.1-2017.11-x86_64_arm-eabi/arm-eabi/libc/usr/lib/libgcc.a(_arm_addsubdf3.o)
                                                  /home/vboxuser/Desktop/topst/buildtools/gcc-linaro-7.2.1-2017.11-x86_64_arm-eabi/arm-eabi/libc/usr/lib/libc.a(lib_a-dtoa.o)
__aeabi_dcmpeq                                    /home/vboxuser/Desktop/topst/buildtools/gcc-linaro-7.2.1-2017.11-x86_64_arm-eabi/arm-eabi/libc/usr/lib/libgcc.a(_arm_cmpdf2.o)
                                                  /home/vboxuser/Desktop/topst/buildtools/gcc-linaro-7.2.1-2017.11-x86_64_arm-eabi/arm-eabi/libc/usr/lib/libc.a(lib_a-dtoa.o)
                                                  /home/vboxuser/Desktop/topst/buildtools/gcc-linaro-7.2.1-2017.11-x86_64_arm-eabi/arm-eabi/libc/usr/lib/libc.a(lib_a-svfprintf.o)
__aeabi_dcmpge                                    /home/vboxuser/Desktop/topst/buildtools/gcc-linaro-7.2.1-2017.11-x86_64_arm-eabi/arm-eabi/libc/usr/lib/libgcc.a(_arm_cmpdf2.o)
                                                  /home/vboxuser/Desktop/topst/buildtools/gcc-linaro-7.2.1-2017.11-x86_64_arm-eabi/arm-eabi/libc/usr/lib/libc.a(lib_a-dtoa.o)
__aeabi_dcmpgt                                    /home/vboxuser/Desktop/topst/buildtools/gcc-linaro-7.2.1-2017.11-x86_64_arm-eabi/arm-eabi/libc/usr/lib/libgcc.a(_arm_cmpdf2.o)
                                                  /home/vboxuser/Desktop/topst/buildtools/gcc-linaro-7.2.1-2017.11-x86_64_arm-eabi/arm-eabi/libc/usr/lib/libc.a(lib_a-dtoa.o)
                                                  /home/vboxuser/Desktop/topst/buildtools/gcc-linaro-7.2.1-2017.11-x86_64_arm-eabi/arm-eabi/libc/usr/lib/libc.a(lib_a-svfprintf.o)
__aeabi_dcmple                                    /home/vboxuser/Desktop/topst/buildtools/gcc-linaro-7.2.1-2017.11-x86_64_arm-eabi/arm-eabi/libc/usr/lib/libgcc.a(_arm_cmpdf2.o)
                                                  /home/vboxuser/Desktop/topst/buildtools/gcc-linaro-7.2.1-2017.11-x86_64_arm-eabi/arm-eabi/libc/usr/lib/libc.a(lib_a-svfprintf.o)
__aeabi_dcmplt                                    /home/vboxuser/Desktop/topst/buildtools/gcc-linaro-7.2.1-2017.11-x86_64_arm-eabi/arm-eabi/libc/usr/lib/libgcc.a(_arm_cmpdf2.o)
                                                  /home/vboxuser/Desktop/topst/buildtools/gcc-linaro-7.2.1-2017.11-x86_64_arm-eabi/arm-eabi/libc/usr/lib/libc.a(lib_a-dtoa.o)
                                                  /home/vboxuser/Desktop/topst/buildtools/gcc-linaro-7.2.1-2017.11-x86_64_arm-eabi/arm-eabi/libc/usr/lib/libc.a(lib_a-svfprintf.o)
__aeabi_dcmpun                                    /home/vboxuser/Desktop/topst/buildtools/gcc-linaro-7.2.1-2017.11-x86_64_arm-eabi/arm-eabi/libc/usr/lib/libgcc.a(_arm_unorddf2.o)
                                                  /home/vboxuser/Desktop/topst/buildtools/gcc-linaro-7.2.1-2017.11-x86_64_arm-eabi/arm-eabi/libc/usr/lib/libc.a(lib_a-svfprintf.o)
__aeabi_ddiv                                      /home/vboxuser/Desktop/topst/buildtools/gcc-linaro-7.2.1-2017.11-x86_64_arm-eabi/arm-eabi/libc/usr/lib/libgcc.a(_arm_muldivdf3.o)
                                                  /home/vboxuser/Desktop/topst/buildtools/gcc-linaro-7.2.1-2017.11-x86_64_arm-eabi/arm-eabi/libc/usr/lib/libc.a(lib_a-mprec.o)
                                                  /home/vboxuser/Desktop/topst/buildtools/gcc-linaro-7.2.1-2017.11-x86_64_arm-eabi/arm-eabi/libc/usr/lib/libc.a(lib_a-dtoa.o)
                                                  /home/vboxuser/Desktop/topst/cr5-bsp/sources/build/tcc805x/gcc/tcc805x-freertos-debug/obj/Motor_System.o
__aeabi_dmul                                      /home/vboxuser/Desktop/topst/buildtools/gcc-linaro-7.2.1-2017.11-x86_64_arm-eabi/arm-eabi/libc/usr/lib/libgcc.a(_arm_muldivdf3.o)
                                                  /home/vboxuser/Desktop/topst/buildtools/gcc-linaro-7.2.1-2017.11-x86_64_arm-eabi/arm-eabi/libc/usr/lib/libc.a(lib_a-s_frexp.o)
                                                  /home/vboxuser/Desktop/topst/buildtools/gcc-linaro-7.2.1-2017.11-x86_64_arm-eabi/arm-eabi/libc/usr/lib/libc.a(lib_a-mprec.o)
                                                  /home/vboxuser/Desktop/topst/buildtools/gcc-linaro-7.2.1-2017.11-x86_64_arm-eabi/arm-eabi/libc/usr/lib/libc.a(lib_a-dtoa.o)
                                                  /home/vboxuser/Desktop/topst/buildtools/gcc-linaro-7.2.1-2017.11-x86_64_arm-eabi/arm-eabi/libc/usr/lib/libc.a(lib_a-svfprintf.o)
                                                  /home/vboxuser/Desktop/topst/cr5-bsp/sources/build/tcc805x/gcc/tcc805x-freertos-debug/obj/Motor_System.o
__aeabi_drsub                                     /home/vboxuser/Desktop/topst/buildtools/gcc-linaro-7.2.1-2017.11-x86_64_arm-eabi/arm-eabi/libc/usr/lib/libgcc.a(_arm_addsubdf3.o)
__aeabi_dsub                                      /home/vboxuser/Desktop/topst/buildtools/gcc-linaro-7.2.1-2017.11-x86_64_arm-eabi/arm-eabi/libc/usr/lib/libgcc.a(_arm_addsubdf3.o)
                                                  /home/vboxuser/Desktop/topst/buildtools/gcc-linaro-7.2.1-2017.11-x86_64_arm-eabi/arm-eabi/libc/usr/lib/libc.a(lib_a-dtoa.o)
                                                  /home/vboxuser/Desktop/topst/buildtools/gcc-linaro-7.2.1-2017.11-x86_64_arm-eabi/arm-eabi/libc/usr/lib/libc.a(lib_a-svfprintf.o)
__aeabi_f2d                                       /home/vboxuser/Desktop/topst/buildtools/gcc-linaro-7.2.1-2017.11-x86_64_arm-eabi/arm-eabi/libc/usr/lib/libgcc.a(_arm_addsubdf3.o)
__aeabi_f2uiz                                     /home/vboxuser/Desktop/topst/buildtools/gcc-linaro-7.2.1-2017.11-x86_64_arm-eabi/arm-eabi/libc/usr/lib/libgcc.a(_arm_fixunssfsi.o)
                                                  /home/vboxuser/Desktop/topst/cr5-bsp/sources/build/tcc805x/gcc/tcc805x-freertos-debug/obj/Motor_System.o
__aeabi_fadd                                      /home/vboxuser/Desktop/topst/buildtools/gcc-linaro-7.2.1-2017.11-x86_64_arm-eabi/arm-eabi/libc/usr/lib/libgcc.a(_arm_addsubsf3.o)
__aeabi_fdiv                                      /home/vboxuser/Desktop/topst/buildtools/gcc-linaro-7.2.1-2017.11-x86_64_arm-eabi/arm-eabi/libc/usr/lib/libgcc.a(_arm_muldivsf3.o)
__aeabi_fmul                                      /home/vboxuser/Desktop/topst/buildtools/gcc-linaro-7.2.1-2017.11-x86_64_arm-eabi/arm-eabi/libc/usr/lib/libgcc.a(_arm_muldivsf3.o)
                                                  /home/vboxuser/Desktop/topst/cr5-bsp/sources/build/tcc805x/gcc/tcc805x-freertos-debug/obj/Motor_System.o
__aeabi_frsub                                     /home/vboxuser/Desktop/topst/buildtools/gcc-linaro-7.2.1-2017.11-x86_64_arm-eabi/arm-eabi/libc/usr/lib/libgcc.a(_arm_addsubsf3.o)
__aeabi_fsub                                      /home/vboxuser/Desktop/topst/buildtools/gcc-linaro-7.2.1-2017.11-x86_64_arm-eabi/arm-eabi/libc/usr/lib/libgcc.a(_arm_addsubsf3.o)
__aeabi_i2d                                       /home/vboxuser/Desktop/topst/buildtools/gcc-linaro-7.2.1-2017.11-x86_64_arm-eabi/arm-eabi/libc/usr/lib/libgcc.a(_arm_addsubdf3.o)
                                                  /home/vboxuser/Desktop/topst/buildtools/gcc-linaro-7.2.1-2017.11-x86_64_arm-eabi/arm-eabi/libc/usr/lib/libc.a(lib_a-dtoa.o)
                                                  /home/vboxuser/Desktop/topst/buildtools/gcc-linaro-7.2.1-2017.11-x86_64_arm-eabi/arm-eabi/libc/usr/lib/libc.a(lib_a-svfprintf.o)
__aeabi_i2f                                       /home/vboxuser/Desktop/topst/buildtools/gcc-linaro-7.2.1-2017.11-x86_64_arm-eabi/arm-eabi/libc/usr/lib/libgcc.a(_arm_addsubsf3.o)
                                                  /home/vboxuser/Desktop/topst/cr5-bsp/sources/build/tcc805x/gcc/tcc805x-freertos-debug/obj/Motor_System.o
__aeabi_idiv0                                     /home/vboxuser/Desktop/topst/buildtools/gcc-linaro-7.2.1-2017.11-x86_64_arm-eabi/arm-eabi/libc/usr/lib/libgcc.a(_dvmd_tls.o)
                                                  /home/vboxuser/Desktop/topst/buildtools/gcc-linaro-7.2.1-2017.11-x86_64_arm-eabi/arm-eabi/libc/usr/lib/libgcc.a(_udivsi3.o)
__aeabi_l2d                                       /home/vboxuser/Desktop/topst/buildtools/gcc-linaro-7.2.1-2017.11-x86_64_arm-eabi/arm-eabi/libc/usr/lib/libgcc.a(_arm_addsubdf3.o)
__aeabi_l2f                                       /home/vboxuser/Desktop/topst/buildtools/gcc-linaro-7.2.1-2017.11-x86_64_arm-eabi/arm-eabi/libc/usr/lib/libgcc.a(_arm_addsubsf3.o)
__aeabi_ldiv0                                     /home/vboxuser/Desktop/topst/buildtools/gcc-linaro-7.2.1-2017.11-x86_64_arm-eabi/arm-eabi/libc/usr/lib/libgcc.a(_dvmd_tls.o)
                                                  /home/vboxuser/Desktop/topst/buildtools/gcc-linaro-7.2.1-2017.11-x86_64_arm-eabi/arm-eabi/libc/usr/lib/libgcc.a(_aeabi_uldivmod.o)
__aeabi_ui2d                                      /home/vboxuser/Desktop/topst/buildtools/gcc-linaro-7.2.1-2017.11-x86_64_arm-eabi/arm-eabi/libc/usr/lib/libgcc.a(_arm_addsubdf3.o)
                                                  /home/vboxuser/Desktop/topst/buildtools/gcc-linaro-7.2.1-2017.11-x86_64_arm-eabi/arm-eabi/libc/usr/lib/libc.a(lib_a-dtoa.o)
                                                  /home/vboxuser/Desktop/topst/cr5-bsp/sources/build/tcc805x/gcc/tcc805x-freertos-debug/obj/Motor_System.o
__aeabi_ui2f                                      /home/vboxuser/Desktop/topst/buildtools/gcc-linaro-7.2.1-2017.11-x86_64_arm-eabi/arm-eabi/libc/usr/lib/libgcc.a(_arm_addsubsf3.o)
__aeabi_uidiv                                     /home/vboxuser/Desktop/topst/buildtools/gcc-linaro-7.2.1-2017.11-x86_64_arm-eabi/arm-eabi/libc/usr/lib/libgcc.a(_udivsi3.o)
                                                  /home/vboxuser/Desktop/topst/buildtools/gcc-linaro-7.2.1-2017.11-x86_64_arm-eabi/arm-eabi/libc/usr/lib/libc.a(lib_a-dtoa.o)
                                                  /home/vboxuser/Desktop/topst/buildtools/gcc-linaro-7.2.1-2017.11-x86_64_arm-eabi/arm-eabi/libc/usr/lib/libc.a(lib_a-strtoul.o)
__aeabi_uidivmod                                  /home/vboxuser/Desktop/topst/buildtools/gcc-linaro-7.2.1-2017.11-x86_64_arm-eabi/arm-eabi/libc/usr/lib/libgcc.a(_udivsi3.o)
                                                  /home/vboxuser/Desktop/topst/buildtools/gcc-linaro-7.2.1-2017.11-x86_64_arm-eabi/arm-eabi/libc/usr/lib/libc.a(lib_a-strtoul.o)
                                                  /home/vboxuser/Desktop/topst/buildtools/gcc-linaro-7.2.1-2017.11-x86_64_arm-eabi/arm-eabi/libc/usr/lib/libc.a(lib_a-strtol.o)
__aeabi_ul2d                                      /home/vboxuser/Desktop/topst/buildtools/gcc-linaro-7.2.1-2017.11-x86_64_arm-eabi/arm-eabi/libc/usr/lib/libgcc.a(_arm_addsubdf3.o)
__aeabi_ul2f                                      /home/vboxuser/Desktop/topst/buildtools/gcc-linaro-7.2.1-2017.11-x86_64_arm-eabi/arm-eabi/libc/usr/lib/libgcc.a(_arm_addsubsf3.o)
__aeabi_uldivmod                                  /home/vboxuser/Desktop/topst/buildtools/gcc-linaro-7.2.1-2017.11-x86_64_arm-eabi/arm-eabi/libc/usr/lib/libgcc.a(_aeabi_uldivmod.o)
                                                  /home/vboxuser/Desktop/topst/buildtools/gcc-linaro-7.2.1-2017.11-x86_64_arm-eabi/arm-eabi/libc/usr/lib/libc.a(lib_a-svfiprintf.o)
                                                  /home/vboxuser/Desktop/topst/buildtools/gcc-linaro-7.2.1-2017.11-x86_64_arm-eabi/arm-eabi/libc/usr/lib/libc.a(lib_a-svfprintf.o)
                                                  /home/vboxuser/Desktop/topst/cr5-bsp/sources/build/tcc805x/gcc/tcc805x-freertos-debug/obj/clock_dev.o
__any_on                                          /home/vboxuser/Desktop/topst/buildtools/gcc-linaro-7.2.1-2017.11-x86_64_arm-eabi/arm-eabi/libc/usr/lib/libc.a(lib_a-mprec.o)
__ascii_mbtowc                                    /home/vboxuser/Desktop/topst/buildtools/gcc-linaro-7.2.1-2017.11-x86_64_arm-eabi/arm-eabi/libc/usr/lib/libc.a(lib_a-mbtowc_r.o)
                                                  /home/vboxuser/Desktop/topst/buildtools/gcc-linaro-7.2.1-2017.11-x86_64_arm-eabi/arm-eabi/libc/usr/lib/libc.a(lib_a-locale.o)
__ascii_wctomb                                    /home/vboxuser/Desktop/topst/buildtools/gcc-linaro-7.2.1-2017.11-x86_64_arm-eabi/arm-eabi/libc/usr/lib/libc.a(lib_a-wctomb_r.o)
                                                  /home/vboxuser/Desktop/topst/buildtools/gcc-linaro-7.2.1-2017.11-x86_64_arm-eabi/arm-eabi/libc/usr/lib/libc.a(lib_a-locale.o)
__b2d                                             /home/vboxuser/Desktop/topst/buildtools/gcc-linaro-7.2.1-2017.11-x86_64_arm-eabi/arm-eabi/libc/usr/lib/libc.a(lib_a-mprec.o)
__chclass                                         /home/vboxuser/Desktop/topst/buildtools/gcc-linaro-7.2.1-2017.11-x86_64_arm-eabi/arm-eabi/libc/usr/lib/libc.a(lib_a-svfiprintf.o)
                                                  /home/vboxuser/Desktop/topst/buildtools/gcc-linaro-7.2.1-2017.11-x86_64_arm-eabi/arm-eabi/libc/usr/lib/libc.a(lib_a-svfprintf.o)
__clzdi2                                          /home/vboxuser/Desktop/topst/buildtools/gcc-linaro-7.2.1-2017.11-x86_64_arm-eabi/arm-eabi/libc/usr/lib/libgcc.a(_clzdi2.o)
                                                  /home/vboxuser/Desktop/topst/buildtools/gcc-linaro-7.2.1-2017.11-x86_64_arm-eabi/arm-eabi/libc/usr/lib/libgcc.a(_udivmoddi4.o)
__clzsi2                                          /home/vboxuser/Desktop/topst/buildtools/gcc-linaro-7.2.1-2017.11-x86_64_arm-eabi/arm-eabi/libc/usr/lib/libgcc.a(_clzsi2.o)
                                                  /home/vboxuser/Desktop/topst/buildtools/gcc-linaro-7.2.1-2017.11-x86_64_arm-eabi/arm-eabi/libc/usr/lib/libgcc.a(_clzdi2.o)
__cmpdf2                                          /home/vboxuser/Desktop/topst/buildtools/gcc-linaro-7.2.1-2017.11-x86_64_arm-eabi/arm-eabi/libc/usr/lib/libgcc.a(_arm_cmpdf2.o)
__copybits                                        /home/vboxuser/Desktop/topst/buildtools/gcc-linaro-7.2.1-2017.11-x86_64_arm-eabi/arm-eabi/libc/usr/lib/libc.a(lib_a-mprec.o)
__d2b                                             /home/vboxuser/Desktop/topst/buildtools/gcc-linaro-7.2.1-2017.11-x86_64_arm-eabi/arm-eabi/libc/usr/lib/libc.a(lib_a-mprec.o)
                                                  /home/vboxuser/Desktop/topst/buildtools/gcc-linaro-7.2.1-2017.11-x86_64_arm-eabi/arm-eabi/libc/usr/lib/libc.a(lib_a-dtoa.o)
__default_locale                                  /home/vboxuser/Desktop/topst/buildtools/gcc-linaro-7.2.1-2017.11-x86_64_arm-eabi/arm-eabi/libc/usr/lib/libc.a(lib_a-locale.o)
__divdf3                                          /home/vboxuser/Desktop/topst/buildtools/gcc-linaro-7.2.1-2017.11-x86_64_arm-eabi/arm-eabi/libc/usr/lib/libgcc.a(_arm_muldivdf3.o)
__divsf3                                          /home/vboxuser/Desktop/topst/buildtools/gcc-linaro-7.2.1-2017.11-x86_64_arm-eabi/arm-eabi/libc/usr/lib/libgcc.a(_arm_muldivsf3.o)
__env_lock                                        /home/vboxuser/Desktop/topst/buildtools/gcc-linaro-7.2.1-2017.11-x86_64_arm-eabi/arm-eabi/libc/usr/lib/libc.a(lib_a-envlock.o)
                                                  /home/vboxuser/Desktop/topst/buildtools/gcc-linaro-7.2.1-2017.11-x86_64_arm-eabi/arm-eabi/libc/usr/lib/libc.a(lib_a-getenv_r.o)
__env_unlock                                      /home/vboxuser/Desktop/topst/buildtools/gcc-linaro-7.2.1-2017.11-x86_64_arm-eabi/arm-eabi/libc/usr/lib/libc.a(lib_a-envlock.o)
                                                  /home/vboxuser/Desktop/topst/buildtools/gcc-linaro-7.2.1-2017.11-x86_64_arm-eabi/arm-eabi/libc/usr/lib/libc.a(lib_a-getenv_r.o)
__eqdf2                                           /home/vboxuser/Desktop/topst/buildtools/gcc-linaro-7.2.1-2017.11-x86_64_arm-eabi/arm-eabi/libc/usr/lib/libgcc.a(_arm_cmpdf2.o)
__errno                                           /home/vboxuser/Desktop/topst/buildtools/gcc-linaro-7.2.1-2017.11-x86_64_arm-eabi/arm-eabi/libc/usr/lib/libc.a(lib_a-errno.o)
                                                  /home/vboxuser/Desktop/topst/buildtools/gcc-linaro-7.2.1-2017.11-x86_64_arm-eabi/arm-eabi/libc/usr/lib/libc.a(lib_a-syscalls.o)
__eucjp_mbtowc                                    /home/vboxuser/Desktop/topst/buildtools/gcc-linaro-7.2.1-2017.11-x86_64_arm-eabi/arm-eabi/libc/usr/lib/libc.a(lib_a-mbtowc_r.o)
                                                  /home/vboxuser/Desktop/topst/buildtools/gcc-linaro-7.2.1-2017.11-x86_64_arm-eabi/arm-eabi/libc/usr/lib/libc.a(lib_a-locale.o)
__eucjp_wctomb                                    /home/vboxuser/Desktop/topst/buildtools/gcc-linaro-7.2.1-2017.11-x86_64_arm-eabi/arm-eabi/libc/usr/lib/libc.a(lib_a-wctomb_r.o)
                                                  /home/vboxuser/Desktop/topst/buildtools/gcc-linaro-7.2.1-2017.11-x86_64_arm-eabi/arm-eabi/libc/usr/lib/libc.a(lib_a-locale.o)
__extendsfdf2                                     /home/vboxuser/Desktop/topst/buildtools/gcc-linaro-7.2.1-2017.11-x86_64_arm-eabi/arm-eabi/libc/usr/lib/libgcc.a(_arm_addsubdf3.o)
__fixdfsi                                         /home/vboxuser/Desktop/topst/buildtools/gcc-linaro-7.2.1-2017.11-x86_64_arm-eabi/arm-eabi/libc/usr/lib/libgcc.a(_arm_fixdfsi.o)
__fixunsdfsi                                      /home/vboxuser/Desktop/topst/buildtools/gcc-linaro-7.2.1-2017.11-x86_64_arm-eabi/arm-eabi/libc/usr/lib/libgcc.a(_arm_fixunsdfsi.o)
__fixunssfsi                                      /home/vboxuser/Desktop/topst/buildtools/gcc-linaro-7.2.1-2017.11-x86_64_arm-eabi/arm-eabi/libc/usr/lib/libgcc.a(_arm_fixunssfsi.o)
__floatdidf                                       /home/vboxuser/Desktop/topst/buildtools/gcc-linaro-7.2.1-2017.11-x86_64_arm-eabi/arm-eabi/libc/usr/lib/libgcc.a(_arm_addsubdf3.o)
__floatdisf                                       /home/vboxuser/Desktop/topst/buildtools/gcc-linaro-7.2.1-2017.11-x86_64_arm-eabi/arm-eabi/libc/usr/lib/libgcc.a(_arm_addsubsf3.o)
__floatsidf                                       /home/vboxuser/Desktop/topst/buildtools/gcc-linaro-7.2.1-2017.11-x86_64_arm-eabi/arm-eabi/libc/usr/lib/libgcc.a(_arm_addsubdf3.o)
__floatsisf                                       /home/vboxuser/Desktop/topst/buildtools/gcc-linaro-7.2.1-2017.11-x86_64_arm-eabi/arm-eabi/libc/usr/lib/libgcc.a(_arm_addsubsf3.o)
__floatundidf                                     /home/vboxuser/Desktop/topst/buildtools/gcc-linaro-7.2.1-2017.11-x86_64_arm-eabi/arm-eabi/libc/usr/lib/libgcc.a(_arm_addsubdf3.o)
__floatundisf                                     /home/vboxuser/Desktop/topst/buildtools/gcc-linaro-7.2.1-2017.11-x86_64_arm-eabi/arm-eabi/libc/usr/lib/libgcc.a(_arm_addsubsf3.o)
__floatunsidf                                     /home/vboxuser/Desktop/topst/buildtools/gcc-linaro-7.2.1-2017.11-x86_64_arm-eabi/arm-eabi/libc/usr/lib/libgcc.a(_arm_addsubdf3.o)
__floatunsisf                                     /home/vboxuser/Desktop/topst/buildtools/gcc-linaro-7.2.1-2017.11-x86_64_arm-eabi/arm-eabi/libc/usr/lib/libgcc.a(_arm_addsubsf3.o)
__fp_lock_all                                     /home/vboxuser/Desktop/topst/buildtools/gcc-linaro-7.2.1-2017.11-x86_64_arm-eabi/arm-eabi/libc/usr/lib/libc.a(lib_a-findfp.o)
__fp_unlock_all                                   /home/vboxuser/Desktop/topst/buildtools/gcc-linaro-7.2.1-2017.11-x86_64_arm-eabi/arm-eabi/libc/usr/lib/libc.a(lib_a-findfp.o)
__gedf2                                           /home/vboxuser/Desktop/topst/buildtools/gcc-linaro-7.2.1-2017.11-x86_64_arm-eabi/arm-eabi/libc/usr/lib/libgcc.a(_arm_cmpdf2.o)
__get_locale_env                                  /home/vboxuser/Desktop/topst/buildtools/gcc-linaro-7.2.1-2017.11-x86_64_arm-eabi/arm-eabi/libc/usr/lib/libc.a(lib_a-locale.o)
__global_locale                                   /home/vboxuser/Desktop/topst/buildtools/gcc-linaro-7.2.1-2017.11-x86_64_arm-eabi/arm-eabi/libc/usr/lib/libc.a(lib_a-locale.o)
                                                  /home/vboxuser/Desktop/topst/buildtools/gcc-linaro-7.2.1-2017.11-x86_64_arm-eabi/arm-eabi/libc/usr/lib/libc.a(lib_a-wctomb_r.o)
                                                  /home/vboxuser/Desktop/topst/buildtools/gcc-linaro-7.2.1-2017.11-x86_64_arm-eabi/arm-eabi/libc/usr/lib/libc.a(lib_a-wcsnrtombs.o)
                                                  /home/vboxuser/Desktop/topst/buildtools/gcc-linaro-7.2.1-2017.11-x86_64_arm-eabi/arm-eabi/libc/usr/lib/libc.a(lib_a-svfiprintf.o)
                                                  /home/vboxuser/Desktop/topst/buildtools/gcc-linaro-7.2.1-2017.11-x86_64_arm-eabi/arm-eabi/libc/usr/lib/libc.a(lib_a-mbtowc_r.o)
                                                  /home/vboxuser/Desktop/topst/buildtools/gcc-linaro-7.2.1-2017.11-x86_64_arm-eabi/arm-eabi/libc/usr/lib/libc.a(lib_a-localeconv.o)
                                                  /home/vboxuser/Desktop/topst/buildtools/gcc-linaro-7.2.1-2017.11-x86_64_arm-eabi/arm-eabi/libc/usr/lib/libc.a(lib_a-wcrtomb.o)
                                                  /home/vboxuser/Desktop/topst/buildtools/gcc-linaro-7.2.1-2017.11-x86_64_arm-eabi/arm-eabi/libc/usr/lib/libc.a(lib_a-svfprintf.o)
                                                  /home/vboxuser/Desktop/topst/buildtools/gcc-linaro-7.2.1-2017.11-x86_64_arm-eabi/arm-eabi/libc/usr/lib/libc.a(lib_a-strtoul.o)
                                                  /home/vboxuser/Desktop/topst/buildtools/gcc-linaro-7.2.1-2017.11-x86_64_arm-eabi/arm-eabi/libc/usr/lib/libc.a(lib_a-strtol.o)
__gtdf2                                           /home/vboxuser/Desktop/topst/buildtools/gcc-linaro-7.2.1-2017.11-x86_64_arm-eabi/arm-eabi/libc/usr/lib/libgcc.a(_arm_cmpdf2.o)
__hi0bits                                         /home/vboxuser/Desktop/topst/buildtools/gcc-linaro-7.2.1-2017.11-x86_64_arm-eabi/arm-eabi/libc/usr/lib/libc.a(lib_a-mprec.o)
                                                  /home/vboxuser/Desktop/topst/buildtools/gcc-linaro-7.2.1-2017.11-x86_64_arm-eabi/arm-eabi/libc/usr/lib/libc.a(lib_a-dtoa.o)
__i2b                                             /home/vboxuser/Desktop/topst/buildtools/gcc-linaro-7.2.1-2017.11-x86_64_arm-eabi/arm-eabi/libc/usr/lib/libc.a(lib_a-mprec.o)
                                                  /home/vboxuser/Desktop/topst/buildtools/gcc-linaro-7.2.1-2017.11-x86_64_arm-eabi/arm-eabi/libc/usr/lib/libc.a(lib_a-dtoa.o)
__jis_mbtowc                                      /home/vboxuser/Desktop/topst/buildtools/gcc-linaro-7.2.1-2017.11-x86_64_arm-eabi/arm-eabi/libc/usr/lib/libc.a(lib_a-mbtowc_r.o)
                                                  /home/vboxuser/Desktop/topst/buildtools/gcc-linaro-7.2.1-2017.11-x86_64_arm-eabi/arm-eabi/libc/usr/lib/libc.a(lib_a-locale.o)
__jis_wctomb                                      /home/vboxuser/Desktop/topst/buildtools/gcc-linaro-7.2.1-2017.11-x86_64_arm-eabi/arm-eabi/libc/usr/lib/libc.a(lib_a-wctomb_r.o)
                                                  /home/vboxuser/Desktop/topst/buildtools/gcc-linaro-7.2.1-2017.11-x86_64_arm-eabi/arm-eabi/libc/usr/lib/libc.a(lib_a-locale.o)
__ledf2                                           /home/vboxuser/Desktop/topst/buildtools/gcc-linaro-7.2.1-2017.11-x86_64_arm-eabi/arm-eabi/libc/usr/lib/libgcc.a(_arm_cmpdf2.o)
__lo0bits                                         /home/vboxuser/Desktop/topst/buildtools/gcc-linaro-7.2.1-2017.11-x86_64_arm-eabi/arm-eabi/libc/usr/lib/libc.a(lib_a-mprec.o)
__loadlocale                                      /home/vboxuser/Desktop/topst/buildtools/gcc-linaro-7.2.1-2017.11-x86_64_arm-eabi/arm-eabi/libc/usr/lib/libc.a(lib_a-locale.o)
__locale_ctype_ptr                                /home/vboxuser/Desktop/topst/buildtools/gcc-linaro-7.2.1-2017.11-x86_64_arm-eabi/arm-eabi/libc/usr/lib/libc.a(lib_a-locale.o)
                                                  /home/vboxuser/Desktop/topst/buildtools/gcc-linaro-7.2.1-2017.11-x86_64_arm-eabi/arm-eabi/libc/usr/lib/libc.a(lib_a-strncasecmp.o)
                                                  /home/vboxuser/Desktop/topst/buildtools/gcc-linaro-7.2.1-2017.11-x86_64_arm-eabi/arm-eabi/libc/usr/lib/libc.a(lib_a-strcasecmp.o)
__locale_ctype_ptr_l                              /home/vboxuser/Desktop/topst/buildtools/gcc-linaro-7.2.1-2017.11-x86_64_arm-eabi/arm-eabi/libc/usr/lib/libc.a(lib_a-locale.o)
                                                  /home/vboxuser/Desktop/topst/buildtools/gcc-linaro-7.2.1-2017.11-x86_64_arm-eabi/arm-eabi/libc/usr/lib/libc.a(lib_a-strtoul.o)
                                                  /home/vboxuser/Desktop/topst/buildtools/gcc-linaro-7.2.1-2017.11-x86_64_arm-eabi/arm-eabi/libc/usr/lib/libc.a(lib_a-strtol.o)
__locale_mb_cur_max                               /home/vboxuser/Desktop/topst/buildtools/gcc-linaro-7.2.1-2017.11-x86_64_arm-eabi/arm-eabi/libc/usr/lib/libc.a(lib_a-locale.o)
                                                  /home/vboxuser/Desktop/topst/buildtools/gcc-linaro-7.2.1-2017.11-x86_64_arm-eabi/arm-eabi/libc/usr/lib/libc.a(lib_a-svfiprintf.o)
                                                  /home/vboxuser/Desktop/topst/buildtools/gcc-linaro-7.2.1-2017.11-x86_64_arm-eabi/arm-eabi/libc/usr/lib/libc.a(lib_a-svfprintf.o)
__localeconv_l                                    /home/vboxuser/Desktop/topst/buildtools/gcc-linaro-7.2.1-2017.11-x86_64_arm-eabi/arm-eabi/libc/usr/lib/libc.a(lib_a-localeconv.o)
__lshift                                          /home/vboxuser/Desktop/topst/buildtools/gcc-linaro-7.2.1-2017.11-x86_64_arm-eabi/arm-eabi/libc/usr/lib/libc.a(lib_a-mprec.o)
                                                  /home/vboxuser/Desktop/topst/buildtools/gcc-linaro-7.2.1-2017.11-x86_64_arm-eabi/arm-eabi/libc/usr/lib/libc.a(lib_a-dtoa.o)
__ltdf2                                           /home/vboxuser/Desktop/topst/buildtools/gcc-linaro-7.2.1-2017.11-x86_64_arm-eabi/arm-eabi/libc/usr/lib/libgcc.a(_arm_cmpdf2.o)
__malloc_av_                                      /home/vboxuser/Desktop/topst/buildtools/gcc-linaro-7.2.1-2017.11-x86_64_arm-eabi/arm-eabi/libc/usr/lib/libc.a(lib_a-mallocr.o)
                                                  /home/vboxuser/Desktop/topst/buildtools/gcc-linaro-7.2.1-2017.11-x86_64_arm-eabi/arm-eabi/libc/usr/lib/libc.a(lib_a-reallocr.o)
                                                  /home/vboxuser/Desktop/topst/buildtools/gcc-linaro-7.2.1-2017.11-x86_64_arm-eabi/arm-eabi/libc/usr/lib/libc.a(lib_a-freer.o)
__malloc_current_mallinfo                         /home/vboxuser/Desktop/topst/buildtools/gcc-linaro-7.2.1-2017.11-x86_64_arm-eabi/arm-eabi/libc/usr/lib/libc.a(lib_a-mallocr.o)
                                                  /home/vboxuser/Desktop/topst/buildtools/gcc-linaro-7.2.1-2017.11-x86_64_arm-eabi/arm-eabi/libc/usr/lib/libc.a(lib_a-freer.o)
__malloc_lock                                     /home/vboxuser/Desktop/topst/buildtools/gcc-linaro-7.2.1-2017.11-x86_64_arm-eabi/arm-eabi/libc/usr/lib/libc.a(lib_a-mlock.o)
                                                  /home/vboxuser/Desktop/topst/buildtools/gcc-linaro-7.2.1-2017.11-x86_64_arm-eabi/arm-eabi/libc/usr/lib/libc.a(lib_a-reallocr.o)
                                                  /home/vboxuser/Desktop/topst/buildtools/gcc-linaro-7.2.1-2017.11-x86_64_arm-eabi/arm-eabi/libc/usr/lib/libc.a(lib_a-mallocr.o)
                                                  /home/vboxuser/Desktop/topst/buildtools/gcc-linaro-7.2.1-2017.11-x86_64_arm-eabi/arm-eabi/libc/usr/lib/libc.a(lib_a-freer.o)
__malloc_max_sbrked_mem                           /home/vboxuser/Desktop/topst/buildtools/gcc-linaro-7.2.1-2017.11-x86_64_arm-eabi/arm-eabi/libc/usr/lib/libc.a(lib_a-mallocr.o)
__malloc_max_total_mem                            /home/vboxuser/Desktop/topst/buildtools/gcc-linaro-7.2.1-2017.11-x86_64_arm-eabi/arm-eabi/libc/usr/lib/libc.a(lib_a-mallocr.o)
__malloc_sbrk_base                                /home/vboxuser/Desktop/topst/buildtools/gcc-linaro-7.2.1-2017.11-x86_64_arm-eabi/arm-eabi/libc/usr/lib/libc.a(lib_a-mallocr.o)
                                                  /home/vboxuser/Desktop/topst/buildtools/gcc-linaro-7.2.1-2017.11-x86_64_arm-eabi/arm-eabi/libc/usr/lib/libc.a(lib_a-freer.o)
__malloc_top_pad                                  /home/vboxuser/Desktop/topst/buildtools/gcc-linaro-7.2.1-2017.11-x86_64_arm-eabi/arm-eabi/libc/usr/lib/libc.a(lib_a-mallocr.o)
                                                  /home/vboxuser/Desktop/topst/buildtools/gcc-linaro-7.2.1-2017.11-x86_64_arm-eabi/arm-eabi/libc/usr/lib/libc.a(lib_a-freer.o)
__malloc_trim_threshold                           /home/vboxuser/Desktop/topst/buildtools/gcc-linaro-7.2.1-2017.11-x86_64_arm-eabi/arm-eabi/libc/usr/lib/libc.a(lib_a-mallocr.o)
                                                  /home/vboxuser/Desktop/topst/buildtools/gcc-linaro-7.2.1-2017.11-x86_64_arm-eabi/arm-eabi/libc/usr/lib/libc.a(lib_a-freer.o)
__malloc_unlock                                   /home/vboxuser/Desktop/topst/buildtools/gcc-linaro-7.2.1-2017.11-x86_64_arm-eabi/arm-eabi/libc/usr/lib/libc.a(lib_a-mlock.o)
                                                  /home/vboxuser/Desktop/topst/buildtools/gcc-linaro-7.2.1-2017.11-x86_64_arm-eabi/arm-eabi/libc/usr/lib/libc.a(lib_a-reallocr.o)
                                                  /home/vboxuser/Desktop/topst/buildtools/gcc-linaro-7.2.1-2017.11-x86_64_arm-eabi/arm-eabi/libc/usr/lib/libc.a(lib_a-mallocr.o)
                                                  /home/vboxuser/Desktop/topst/buildtools/gcc-linaro-7.2.1-2017.11-x86_64_arm-eabi/arm-eabi/libc/usr/lib/libc.a(lib_a-freer.o)
__mcmp                                            /home/vboxuser/Desktop/topst/buildtools/gcc-linaro-7.2.1-2017.11-x86_64_arm-eabi/arm-eabi/libc/usr/lib/libc.a(lib_a-mprec.o)
                                                  /home/vboxuser/Desktop/topst/buildtools/gcc-linaro-7.2.1-2017.11-x86_64_arm-eabi/arm-eabi/libc/usr/lib/libc.a(lib_a-dtoa.o)
__mdiff                                           /home/vboxuser/Desktop/topst/buildtools/gcc-linaro-7.2.1-2017.11-x86_64_arm-eabi/arm-eabi/libc/usr/lib/libc.a(lib_a-mprec.o)
                                                  /home/vboxuser/Desktop/topst/buildtools/gcc-linaro-7.2.1-2017.11-x86_64_arm-eabi/arm-eabi/libc/usr/lib/libc.a(lib_a-dtoa.o)
__mprec_bigtens                                   /home/vboxuser/Desktop/topst/buildtools/gcc-linaro-7.2.1-2017.11-x86_64_arm-eabi/arm-eabi/libc/usr/lib/libc.a(lib_a-mprec.o)
                                                  /home/vboxuser/Desktop/topst/buildtools/gcc-linaro-7.2.1-2017.11-x86_64_arm-eabi/arm-eabi/libc/usr/lib/libc.a(lib_a-dtoa.o)
__mprec_tens                                      /home/vboxuser/Desktop/topst/buildtools/gcc-linaro-7.2.1-2017.11-x86_64_arm-eabi/arm-eabi/libc/usr/lib/libc.a(lib_a-mprec.o)
                                                  /home/vboxuser/Desktop/topst/buildtools/gcc-linaro-7.2.1-2017.11-x86_64_arm-eabi/arm-eabi/libc/usr/lib/libc.a(lib_a-dtoa.o)
__mprec_tinytens                                  /home/vboxuser/Desktop/topst/buildtools/gcc-linaro-7.2.1-2017.11-x86_64_arm-eabi/arm-eabi/libc/usr/lib/libc.a(lib_a-mprec.o)
__muldf3                                          /home/vboxuser/Desktop/topst/buildtools/gcc-linaro-7.2.1-2017.11-x86_64_arm-eabi/arm-eabi/libc/usr/lib/libgcc.a(_arm_muldivdf3.o)
__mulsf3                                          /home/vboxuser/Desktop/topst/buildtools/gcc-linaro-7.2.1-2017.11-x86_64_arm-eabi/arm-eabi/libc/usr/lib/libgcc.a(_arm_muldivsf3.o)
__multadd                                         /home/vboxuser/Desktop/topst/buildtools/gcc-linaro-7.2.1-2017.11-x86_64_arm-eabi/arm-eabi/libc/usr/lib/libc.a(lib_a-mprec.o)
                                                  /home/vboxuser/Desktop/topst/buildtools/gcc-linaro-7.2.1-2017.11-x86_64_arm-eabi/arm-eabi/libc/usr/lib/libc.a(lib_a-dtoa.o)
__multiply                                        /home/vboxuser/Desktop/topst/buildtools/gcc-linaro-7.2.1-2017.11-x86_64_arm-eabi/arm-eabi/libc/usr/lib/libc.a(lib_a-mprec.o)
                                                  /home/vboxuser/Desktop/topst/buildtools/gcc-linaro-7.2.1-2017.11-x86_64_arm-eabi/arm-eabi/libc/usr/lib/libc.a(lib_a-dtoa.o)
__nc_dmastart                                     /home/vboxuser/Desktop/topst/cr5-bsp/sources/build/tcc805x/gcc/tcc805x-freertos-debug/obj/mpu.o
__nedf2                                           /home/vboxuser/Desktop/topst/buildtools/gcc-linaro-7.2.1-2017.11-x86_64_arm-eabi/arm-eabi/libc/usr/lib/libgcc.a(_arm_cmpdf2.o)
__pow5mult                                        /home/vboxuser/Desktop/topst/buildtools/gcc-linaro-7.2.1-2017.11-x86_64_arm-eabi/arm-eabi/libc/usr/lib/libc.a(lib_a-mprec.o)
                                                  /home/vboxuser/Desktop/topst/buildtools/gcc-linaro-7.2.1-2017.11-x86_64_arm-eabi/arm-eabi/libc/usr/lib/libc.a(lib_a-dtoa.o)
__ratio                                           /home/vboxuser/Desktop/topst/buildtools/gcc-linaro-7.2.1-2017.11-x86_64_arm-eabi/arm-eabi/libc/usr/lib/libc.a(lib_a-mprec.o)
__s2b                                             /home/vboxuser/Desktop/topst/buildtools/gcc-linaro-7.2.1-2017.11-x86_64_arm-eabi/arm-eabi/libc/usr/lib/libc.a(lib_a-mprec.o)
__sclose                                          /home/vboxuser/Desktop/topst/buildtools/gcc-linaro-7.2.1-2017.11-x86_64_arm-eabi/arm-eabi/libc/usr/lib/libc.a(lib_a-stdio.o)
                                                  /home/vboxuser/Desktop/topst/buildtools/gcc-linaro-7.2.1-2017.11-x86_64_arm-eabi/arm-eabi/libc/usr/lib/libc.a(lib_a-findfp.o)
__seofread                                        /home/vboxuser/Desktop/topst/buildtools/gcc-linaro-7.2.1-2017.11-x86_64_arm-eabi/arm-eabi/libc/usr/lib/libc.a(lib_a-stdio.o)
__set_ctype                                       /home/vboxuser/Desktop/topst/buildtools/gcc-linaro-7.2.1-2017.11-x86_64_arm-eabi/arm-eabi/libc/usr/lib/libc.a(lib_a-ctype_.o)
                                                  /home/vboxuser/Desktop/topst/buildtools/gcc-linaro-7.2.1-2017.11-x86_64_arm-eabi/arm-eabi/libc/usr/lib/libc.a(lib_a-locale.o)
__sflush_r                                        /home/vboxuser/Desktop/topst/buildtools/gcc-linaro-7.2.1-2017.11-x86_64_arm-eabi/arm-eabi/libc/usr/lib/libc.a(lib_a-fflush.o)
                                                  /home/vboxuser/Desktop/topst/buildtools/gcc-linaro-7.2.1-2017.11-x86_64_arm-eabi/arm-eabi/libc/usr/lib/libc.a(lib_a-fclose.o)
__sfmoreglue                                      /home/vboxuser/Desktop/topst/buildtools/gcc-linaro-7.2.1-2017.11-x86_64_arm-eabi/arm-eabi/libc/usr/lib/libc.a(lib_a-findfp.o)
__sfp                                             /home/vboxuser/Desktop/topst/buildtools/gcc-linaro-7.2.1-2017.11-x86_64_arm-eabi/arm-eabi/libc/usr/lib/libc.a(lib_a-findfp.o)
__sfp_lock_acquire                                /home/vboxuser/Desktop/topst/buildtools/gcc-linaro-7.2.1-2017.11-x86_64_arm-eabi/arm-eabi/libc/usr/lib/libc.a(lib_a-findfp.o)
                                                  /home/vboxuser/Desktop/topst/buildtools/gcc-linaro-7.2.1-2017.11-x86_64_arm-eabi/arm-eabi/libc/usr/lib/libc.a(lib_a-fclose.o)
__sfp_lock_release                                /home/vboxuser/Desktop/topst/buildtools/gcc-linaro-7.2.1-2017.11-x86_64_arm-eabi/arm-eabi/libc/usr/lib/libc.a(lib_a-findfp.o)
                                                  /home/vboxuser/Desktop/topst/buildtools/gcc-linaro-7.2.1-2017.11-x86_64_arm-eabi/arm-eabi/libc/usr/lib/libc.a(lib_a-fclose.o)
__sinit                                           /home/vboxuser/Desktop/topst/buildtools/gcc-linaro-7.2.1-2017.11-x86_64_arm-eabi/arm-eabi/libc/usr/lib/libc.a(lib_a-findfp.o)
                                                  /home/vboxuser/Desktop/topst/buildtools/gcc-linaro-7.2.1-2017.11-x86_64_arm-eabi/arm-eabi/libc/usr/lib/libc.a(lib_a-fflush.o)
                                                  /home/vboxuser/Desktop/topst/buildtools/gcc-linaro-7.2.1-2017.11-x86_64_arm-eabi/arm-eabi/libc/usr/lib/libc.a(lib_a-fclose.o)
                                                  /home/vboxuser/Desktop/topst/buildtools/gcc-linaro-7.2.1-2017.11-x86_64_arm-eabi/arm-eabi/libc/usr/lib/libc.a(lib_a-syscalls.o)
__sinit_lock_acquire                              /home/vboxuser/Desktop/topst/buildtools/gcc-linaro-7.2.1-2017.11-x86_64_arm-eabi/arm-eabi/libc/usr/lib/libc.a(lib_a-findfp.o)
__sinit_lock_release                              /home/vboxuser/Desktop/topst/buildtools/gcc-linaro-7.2.1-2017.11-x86_64_arm-eabi/arm-eabi/libc/usr/lib/libc.a(lib_a-findfp.o)
__sjis_mbtowc                                     /home/vboxuser/Desktop/topst/buildtools/gcc-linaro-7.2.1-2017.11-x86_64_arm-eabi/arm-eabi/libc/usr/lib/libc.a(lib_a-mbtowc_r.o)
                                                  /home/vboxuser/Desktop/topst/buildtools/gcc-linaro-7.2.1-2017.11-x86_64_arm-eabi/arm-eabi/libc/usr/lib/libc.a(lib_a-locale.o)
__sjis_wctomb                                     /home/vboxuser/Desktop/topst/buildtools/gcc-linaro-7.2.1-2017.11-x86_64_arm-eabi/arm-eabi/libc/usr/lib/libc.a(lib_a-wctomb_r.o)
                                                  /home/vboxuser/Desktop/topst/buildtools/gcc-linaro-7.2.1-2017.11-x86_64_arm-eabi/arm-eabi/libc/usr/lib/libc.a(lib_a-locale.o)
__sread                                           /home/vboxuser/Desktop/topst/buildtools/gcc-linaro-7.2.1-2017.11-x86_64_arm-eabi/arm-eabi/libc/usr/lib/libc.a(lib_a-stdio.o)
                                                  /home/vboxuser/Desktop/topst/buildtools/gcc-linaro-7.2.1-2017.11-x86_64_arm-eabi/arm-eabi/libc/usr/lib/libc.a(lib_a-findfp.o)
__sseek                                           /home/vboxuser/Desktop/topst/buildtools/gcc-linaro-7.2.1-2017.11-x86_64_arm-eabi/arm-eabi/libc/usr/lib/libc.a(lib_a-stdio.o)
                                                  /home/vboxuser/Desktop/topst/buildtools/gcc-linaro-7.2.1-2017.11-x86_64_arm-eabi/arm-eabi/libc/usr/lib/libc.a(lib_a-findfp.o)
__ssprint_r                                       /home/vboxuser/Desktop/topst/buildtools/gcc-linaro-7.2.1-2017.11-x86_64_arm-eabi/arm-eabi/libc/usr/lib/libc.a(lib_a-svfiprintf.o)
                                                  /home/vboxuser/Desktop/topst/buildtools/gcc-linaro-7.2.1-2017.11-x86_64_arm-eabi/arm-eabi/libc/usr/lib/libc.a(lib_a-svfprintf.o)
__state_table                                     /home/vboxuser/Desktop/topst/buildtools/gcc-linaro-7.2.1-2017.11-x86_64_arm-eabi/arm-eabi/libc/usr/lib/libc.a(lib_a-svfiprintf.o)
                                                  /home/vboxuser/Desktop/topst/buildtools/gcc-linaro-7.2.1-2017.11-x86_64_arm-eabi/arm-eabi/libc/usr/lib/libc.a(lib_a-svfprintf.o)
__subdf3                                          /home/vboxuser/Desktop/topst/buildtools/gcc-linaro-7.2.1-2017.11-x86_64_arm-eabi/arm-eabi/libc/usr/lib/libgcc.a(_arm_addsubdf3.o)
__subsf3                                          /home/vboxuser/Desktop/topst/buildtools/gcc-linaro-7.2.1-2017.11-x86_64_arm-eabi/arm-eabi/libc/usr/lib/libgcc.a(_arm_addsubsf3.o)
__swrite                                          /home/vboxuser/Desktop/topst/buildtools/gcc-linaro-7.2.1-2017.11-x86_64_arm-eabi/arm-eabi/libc/usr/lib/libc.a(lib_a-stdio.o)
                                                  /home/vboxuser/Desktop/topst/buildtools/gcc-linaro-7.2.1-2017.11-x86_64_arm-eabi/arm-eabi/libc/usr/lib/libc.a(lib_a-findfp.o)
__udivmoddi4                                      /home/vboxuser/Desktop/topst/buildtools/gcc-linaro-7.2.1-2017.11-x86_64_arm-eabi/arm-eabi/libc/usr/lib/libgcc.a(_udivmoddi4.o)
                                                  /home/vboxuser/Desktop/topst/buildtools/gcc-linaro-7.2.1-2017.11-x86_64_arm-eabi/arm-eabi/libc/usr/lib/libgcc.a(_aeabi_uldivmod.o)
__udivsi3                                         /home/vboxuser/Desktop/topst/buildtools/gcc-linaro-7.2.1-2017.11-x86_64_arm-eabi/arm-eabi/libc/usr/lib/libgcc.a(_udivsi3.o)
__ulp                                             /home/vboxuser/Desktop/topst/buildtools/gcc-linaro-7.2.1-2017.11-x86_64_arm-eabi/arm-eabi/libc/usr/lib/libc.a(lib_a-mprec.o)
__unorddf2                                        /home/vboxuser/Desktop/topst/buildtools/gcc-linaro-7.2.1-2017.11-x86_64_arm-eabi/arm-eabi/libc/usr/lib/libgcc.a(_arm_unorddf2.o)
__utf8_mbtowc                                     /home/vboxuser/Desktop/topst/buildtools/gcc-linaro-7.2.1-2017.11-x86_64_arm-eabi/arm-eabi/libc/usr/lib/libc.a(lib_a-mbtowc_r.o)
                                                  /home/vboxuser/Desktop/topst/buildtools/gcc-linaro-7.2.1-2017.11-x86_64_arm-eabi/arm-eabi/libc/usr/lib/libc.a(lib_a-locale.o)
__utf8_wctomb                                     /home/vboxuser/Desktop/topst/buildtools/gcc-linaro-7.2.1-2017.11-x86_64_arm-eabi/arm-eabi/libc/usr/lib/libc.a(lib_a-wctomb_r.o)
                                                  /home/vboxuser/Desktop/topst/buildtools/gcc-linaro-7.2.1-2017.11-x86_64_arm-eabi/arm-eabi/libc/usr/lib/libc.a(lib_a-locale.o)
_atoi_r                                           /home/vboxuser/Desktop/topst/buildtools/gcc-linaro-7.2.1-2017.11-x86_64_arm-eabi/arm-eabi/libc/usr/lib/libc.a(lib_a-atoi.o)
_atol_r                                           /home/vboxuser/Desktop/topst/buildtools/gcc-linaro-7.2.1-2017.11-x86_64_arm-eabi/arm-eabi/libc/usr/lib/libc.a(lib_a-atol.o)
_calloc_r                                         /home/vboxuser/Desktop/topst/buildtools/gcc-linaro-7.2.1-2017.11-x86_64_arm-eabi/arm-eabi/libc/usr/lib/libc.a(lib_a-callocr.o)
                                                  /home/vboxuser/Desktop/topst/buildtools/gcc-linaro-7.2.1-2017.11-x86_64_arm-eabi/arm-eabi/libc/usr/lib/libc.a(lib_a-mprec.o)
_cleanup                                          /home/vboxuser/Desktop/topst/buildtools/gcc-linaro-7.2.1-2017.11-x86_64_arm-eabi/arm-eabi/libc/usr/lib/libc.a(lib_a-findfp.o)
_cleanup_r                                        /home/vboxuser/Desktop/topst/buildtools/gcc-linaro-7.2.1-2017.11-x86_64_arm-eabi/arm-eabi/libc/usr/lib/libc.a(lib_a-findfp.o)
_close                                            /home/vboxuser/Desktop/topst/buildtools/gcc-linaro-7.2.1-2017.11-x86_64_arm-eabi/arm-eabi/libc/usr/lib/libc.a(lib_a-syscalls.o)
                                                  /home/vboxuser/Desktop/topst/buildtools/gcc-linaro-7.2.1-2017.11-x86_64_arm-eabi/arm-eabi/libc/usr/lib/libc.a(lib_a-closer.o)
_close_r                                          /home/vboxuser/Desktop/topst/buildtools/gcc-linaro-7.2.1-2017.11-x86_64_arm-eabi/arm-eabi/libc/usr/lib/libc.a(lib_a-closer.o)
                                                  /home/vboxuser/Desktop/topst/buildtools/gcc-linaro-7.2.1-2017.11-x86_64_arm-eabi/arm-eabi/libc/usr/lib/libc.a(lib_a-stdio.o)
_ctype_                                           /home/vboxuser/Desktop/topst/buildtools/gcc-linaro-7.2.1-2017.11-x86_64_arm-eabi/arm-eabi/libc/usr/lib/libc.a(lib_a-ctype_.o)
                                                  /home/vboxuser/Desktop/topst/buildtools/gcc-linaro-7.2.1-2017.11-x86_64_arm-eabi/arm-eabi/libc/usr/lib/libc.a(lib_a-locale.o)
_dtoa_r                                           /home/vboxuser/Desktop/topst/buildtools/gcc-linaro-7.2.1-2017.11-x86_64_arm-eabi/arm-eabi/libc/usr/lib/libc.a(lib_a-dtoa.o)
                                                  /home/vboxuser/Desktop/topst/buildtools/gcc-linaro-7.2.1-2017.11-x86_64_arm-eabi/arm-eabi/libc/usr/lib/libc.a(lib_a-svfprintf.o)
_exit                                             /home/vboxuser/Desktop/topst/buildtools/gcc-linaro-7.2.1-2017.11-x86_64_arm-eabi/arm-eabi/libc/usr/lib/libc.a(lib_a-syscalls.o)
_fclose_r                                         /home/vboxuser/Desktop/topst/buildtools/gcc-linaro-7.2.1-2017.11-x86_64_arm-eabi/arm-eabi/libc/usr/lib/libc.a(lib_a-fclose.o)
                                                  /home/vboxuser/Desktop/topst/buildtools/gcc-linaro-7.2.1-2017.11-x86_64_arm-eabi/arm-eabi/libc/usr/lib/libc.a(lib_a-findfp.o)
_fflush_r                                         /home/vboxuser/Desktop/topst/buildtools/gcc-linaro-7.2.1-2017.11-x86_64_arm-eabi/arm-eabi/libc/usr/lib/libc.a(lib_a-fflush.o)
_findenv_r                                        /home/vboxuser/Desktop/topst/buildtools/gcc-linaro-7.2.1-2017.11-x86_64_arm-eabi/arm-eabi/libc/usr/lib/libc.a(lib_a-getenv_r.o)
_free_r                                           /home/vboxuser/Desktop/topst/buildtools/gcc-linaro-7.2.1-2017.11-x86_64_arm-eabi/arm-eabi/libc/usr/lib/libc.a(lib_a-freer.o)
                                                  /home/vboxuser/Desktop/topst/buildtools/gcc-linaro-7.2.1-2017.11-x86_64_arm-eabi/arm-eabi/libc/usr/lib/libc.a(lib_a-fflush.o)
                                                  /home/vboxuser/Desktop/topst/buildtools/gcc-linaro-7.2.1-2017.11-x86_64_arm-eabi/arm-eabi/libc/usr/lib/libc.a(lib_a-fclose.o)
                                                  /home/vboxuser/Desktop/topst/buildtools/gcc-linaro-7.2.1-2017.11-x86_64_arm-eabi/arm-eabi/libc/usr/lib/libc.a(lib_a-reent.o)
                                                  /home/vboxuser/Desktop/topst/buildtools/gcc-linaro-7.2.1-2017.11-x86_64_arm-eabi/arm-eabi/libc/usr/lib/libc.a(lib_a-reallocr.o)
                                                  /home/vboxuser/Desktop/topst/buildtools/gcc-linaro-7.2.1-2017.11-x86_64_arm-eabi/arm-eabi/libc/usr/lib/libc.a(lib_a-svfiprintf.o)
                                                  /home/vboxuser/Desktop/topst/buildtools/gcc-linaro-7.2.1-2017.11-x86_64_arm-eabi/arm-eabi/libc/usr/lib/libc.a(lib_a-mallocr.o)
                                                  /home/vboxuser/Desktop/topst/buildtools/gcc-linaro-7.2.1-2017.11-x86_64_arm-eabi/arm-eabi/libc/usr/lib/libc.a(lib_a-svfprintf.o)
_fstat                                            /home/vboxuser/Desktop/topst/buildtools/gcc-linaro-7.2.1-2017.11-x86_64_arm-eabi/arm-eabi/libc/usr/lib/libc.a(lib_a-syscalls.o)
_fwalk                                            /home/vboxuser/Desktop/topst/buildtools/gcc-linaro-7.2.1-2017.11-x86_64_arm-eabi/arm-eabi/libc/usr/lib/libc.a(lib_a-fwalk.o)
                                                  /home/vboxuser/Desktop/topst/buildtools/gcc-linaro-7.2.1-2017.11-x86_64_arm-eabi/arm-eabi/libc/usr/lib/libc.a(lib_a-findfp.o)
_fwalk_reent                                      /home/vboxuser/Desktop/topst/buildtools/gcc-linaro-7.2.1-2017.11-x86_64_arm-eabi/arm-eabi/libc/usr/lib/libc.a(lib_a-fwalk.o)
                                                  /home/vboxuser/Desktop/topst/buildtools/gcc-linaro-7.2.1-2017.11-x86_64_arm-eabi/arm-eabi/libc/usr/lib/libc.a(lib_a-fflush.o)
                                                  /home/vboxuser/Desktop/topst/buildtools/gcc-linaro-7.2.1-2017.11-x86_64_arm-eabi/arm-eabi/libc/usr/lib/libc.a(lib_a-findfp.o)
_getenv_r                                         /home/vboxuser/Desktop/topst/buildtools/gcc-linaro-7.2.1-2017.11-x86_64_arm-eabi/arm-eabi/libc/usr/lib/libc.a(lib_a-getenv_r.o)
                                                  /home/vboxuser/Desktop/topst/buildtools/gcc-linaro-7.2.1-2017.11-x86_64_arm-eabi/arm-eabi/libc/usr/lib/libc.a(lib_a-locale.o)
_getpid                                           /home/vboxuser/Desktop/topst/buildtools/gcc-linaro-7.2.1-2017.11-x86_64_arm-eabi/arm-eabi/libc/usr/lib/libc.a(lib_a-syscalls.o)
_gettimeofday                                     /home/vboxuser/Desktop/topst/buildtools/gcc-linaro-7.2.1-2017.11-x86_64_arm-eabi/arm-eabi/libc/usr/lib/libc.a(lib_a-syscalls.o)
_global_impure_ptr                                /home/vboxuser/Desktop/topst/buildtools/gcc-linaro-7.2.1-2017.11-x86_64_arm-eabi/arm-eabi/libc/usr/lib/libc.a(lib_a-impure.o)
                                                  /home/vboxuser/Desktop/topst/buildtools/gcc-linaro-7.2.1-2017.11-x86_64_arm-eabi/arm-eabi/libc/usr/lib/libc.a(lib_a-fflush.o)
                                                  /home/vboxuser/Desktop/topst/buildtools/gcc-linaro-7.2.1-2017.11-x86_64_arm-eabi/arm-eabi/libc/usr/lib/libc.a(lib_a-findfp.o)
_impure_ptr                                       /home/vboxuser/Desktop/topst/buildtools/gcc-linaro-7.2.1-2017.11-x86_64_arm-eabi/arm-eabi/libc/usr/lib/libc.a(lib_a-impure.o)
                                                  /home/vboxuser/Desktop/topst/buildtools/gcc-linaro-7.2.1-2017.11-x86_64_arm-eabi/arm-eabi/libc/usr/lib/libc.a(lib_a-fflush.o)
                                                  /home/vboxuser/Desktop/topst/buildtools/gcc-linaro-7.2.1-2017.11-x86_64_arm-eabi/arm-eabi/libc/usr/lib/libc.a(lib_a-fclose.o)
                                                  /home/vboxuser/Desktop/topst/buildtools/gcc-linaro-7.2.1-2017.11-x86_64_arm-eabi/arm-eabi/libc/usr/lib/libc.a(lib_a-reent.o)
                                                  /home/vboxuser/Desktop/topst/buildtools/gcc-linaro-7.2.1-2017.11-x86_64_arm-eabi/arm-eabi/libc/usr/lib/libc.a(lib_a-findfp.o)
                                                  /home/vboxuser/Desktop/topst/buildtools/gcc-linaro-7.2.1-2017.11-x86_64_arm-eabi/arm-eabi/libc/usr/lib/libc.a(lib_a-errno.o)
                                                  /home/vboxuser/Desktop/topst/buildtools/gcc-linaro-7.2.1-2017.11-x86_64_arm-eabi/arm-eabi/libc/usr/lib/libc.a(lib_a-wctomb_r.o)
                                                  /home/vboxuser/Desktop/topst/buildtools/gcc-linaro-7.2.1-2017.11-x86_64_arm-eabi/arm-eabi/libc/usr/lib/libc.a(lib_a-wcsnrtombs.o)
                                                  /home/vboxuser/Desktop/topst/buildtools/gcc-linaro-7.2.1-2017.11-x86_64_arm-eabi/arm-eabi/libc/usr/lib/libc.a(lib_a-syscalls.o)
                                                  /home/vboxuser/Desktop/topst/buildtools/gcc-linaro-7.2.1-2017.11-x86_64_arm-eabi/arm-eabi/libc/usr/lib/libc.a(lib_a-svfiprintf.o)
                                                  /home/vboxuser/Desktop/topst/buildtools/gcc-linaro-7.2.1-2017.11-x86_64_arm-eabi/arm-eabi/libc/usr/lib/libc.a(lib_a-mbtowc_r.o)
                                                  /home/vboxuser/Desktop/topst/buildtools/gcc-linaro-7.2.1-2017.11-x86_64_arm-eabi/arm-eabi/libc/usr/lib/libc.a(lib_a-localeconv.o)
                                                  /home/vboxuser/Desktop/topst/buildtools/gcc-linaro-7.2.1-2017.11-x86_64_arm-eabi/arm-eabi/libc/usr/lib/libc.a(lib_a-locale.o)
                                                  /home/vboxuser/Desktop/topst/buildtools/gcc-linaro-7.2.1-2017.11-x86_64_arm-eabi/arm-eabi/libc/usr/lib/libc.a(lib_a-wcsrtombs.o)
                                                  /home/vboxuser/Desktop/topst/buildtools/gcc-linaro-7.2.1-2017.11-x86_64_arm-eabi/arm-eabi/libc/usr/lib/libc.a(lib_a-wcrtomb.o)
                                                  /home/vboxuser/Desktop/topst/buildtools/gcc-linaro-7.2.1-2017.11-x86_64_arm-eabi/arm-eabi/libc/usr/lib/libc.a(lib_a-svfprintf.o)
                                                  /home/vboxuser/Desktop/topst/buildtools/gcc-linaro-7.2.1-2017.11-x86_64_arm-eabi/arm-eabi/libc/usr/lib/libc.a(lib_a-strtoul.o)
                                                  /home/vboxuser/Desktop/topst/buildtools/gcc-linaro-7.2.1-2017.11-x86_64_arm-eabi/arm-eabi/libc/usr/lib/libc.a(lib_a-strtol.o)
                                                  /home/vboxuser/Desktop/topst/buildtools/gcc-linaro-7.2.1-2017.11-x86_64_arm-eabi/arm-eabi/libc/usr/lib/libc.a(lib_a-snprintf.o)
_isatty                                           /home/vboxuser/Desktop/topst/buildtools/gcc-linaro-7.2.1-2017.11-x86_64_arm-eabi/arm-eabi/libc/usr/lib/libc.a(lib_a-syscalls.o)
_kill                                             /home/vboxuser/Desktop/topst/buildtools/gcc-linaro-7.2.1-2017.11-x86_64_arm-eabi/arm-eabi/libc/usr/lib/libc.a(lib_a-syscalls.o)
_link                                             /home/vboxuser/Desktop/topst/buildtools/gcc-linaro-7.2.1-2017.11-x86_64_arm-eabi/arm-eabi/libc/usr/lib/libc.a(lib_a-syscalls.o)
_localeconv_r                                     /home/vboxuser/Desktop/topst/buildtools/gcc-linaro-7.2.1-2017.11-x86_64_arm-eabi/arm-eabi/libc/usr/lib/libc.a(lib_a-localeconv.o)
                                                  /home/vboxuser/Desktop/topst/buildtools/gcc-linaro-7.2.1-2017.11-x86_64_arm-eabi/arm-eabi/libc/usr/lib/libc.a(lib_a-svfiprintf.o)
                                                  /home/vboxuser/Desktop/topst/buildtools/gcc-linaro-7.2.1-2017.11-x86_64_arm-eabi/arm-eabi/libc/usr/lib/libc.a(lib_a-svfprintf.o)
_lseek                                            /home/vboxuser/Desktop/topst/buildtools/gcc-linaro-7.2.1-2017.11-x86_64_arm-eabi/arm-eabi/libc/usr/lib/libc.a(lib_a-syscalls.o)
                                                  /home/vboxuser/Desktop/topst/buildtools/gcc-linaro-7.2.1-2017.11-x86_64_arm-eabi/arm-eabi/libc/usr/lib/libc.a(lib_a-lseekr.o)
_lseek_r                                          /home/vboxuser/Desktop/topst/buildtools/gcc-linaro-7.2.1-2017.11-x86_64_arm-eabi/arm-eabi/libc/usr/lib/libc.a(lib_a-lseekr.o)
                                                  /home/vboxuser/Desktop/topst/buildtools/gcc-linaro-7.2.1-2017.11-x86_64_arm-eabi/arm-eabi/libc/usr/lib/libc.a(lib_a-stdio.o)
_malloc_r                                         /home/vboxuser/Desktop/topst/buildtools/gcc-linaro-7.2.1-2017.11-x86_64_arm-eabi/arm-eabi/libc/usr/lib/libc.a(lib_a-mallocr.o)
                                                  /home/vboxuser/Desktop/topst/buildtools/gcc-linaro-7.2.1-2017.11-x86_64_arm-eabi/arm-eabi/libc/usr/lib/libc.a(lib_a-reallocr.o)
                                                  /home/vboxuser/Desktop/topst/buildtools/gcc-linaro-7.2.1-2017.11-x86_64_arm-eabi/arm-eabi/libc/usr/lib/libc.a(lib_a-findfp.o)
                                                  /home/vboxuser/Desktop/topst/buildtools/gcc-linaro-7.2.1-2017.11-x86_64_arm-eabi/arm-eabi/libc/usr/lib/libc.a(lib_a-callocr.o)
                                                  /home/vboxuser/Desktop/topst/buildtools/gcc-linaro-7.2.1-2017.11-x86_64_arm-eabi/arm-eabi/libc/usr/lib/libc.a(lib_a-svfiprintf.o)
                                                  /home/vboxuser/Desktop/topst/buildtools/gcc-linaro-7.2.1-2017.11-x86_64_arm-eabi/arm-eabi/libc/usr/lib/libc.a(lib_a-svfprintf.o)
_malloc_trim_r                                    /home/vboxuser/Desktop/topst/buildtools/gcc-linaro-7.2.1-2017.11-x86_64_arm-eabi/arm-eabi/libc/usr/lib/libc.a(lib_a-freer.o)
_mbtowc_r                                         /home/vboxuser/Desktop/topst/buildtools/gcc-linaro-7.2.1-2017.11-x86_64_arm-eabi/arm-eabi/libc/usr/lib/libc.a(lib_a-mbtowc_r.o)
_mprec_log10                                      /home/vboxuser/Desktop/topst/buildtools/gcc-linaro-7.2.1-2017.11-x86_64_arm-eabi/arm-eabi/libc/usr/lib/libc.a(lib_a-mprec.o)
_open                                             /home/vboxuser/Desktop/topst/buildtools/gcc-linaro-7.2.1-2017.11-x86_64_arm-eabi/arm-eabi/libc/usr/lib/libc.a(lib_a-syscalls.o)
_raise                                            /home/vboxuser/Desktop/topst/buildtools/gcc-linaro-7.2.1-2017.11-x86_64_arm-eabi/arm-eabi/libc/usr/lib/libc.a(lib_a-syscalls.o)
_read                                             /home/vboxuser/Desktop/topst/buildtools/gcc-linaro-7.2.1-2017.11-x86_64_arm-eabi/arm-eabi/libc/usr/lib/libc.a(lib_a-syscalls.o)
                                                  /home/vboxuser/Desktop/topst/buildtools/gcc-linaro-7.2.1-2017.11-x86_64_arm-eabi/arm-eabi/libc/usr/lib/libc.a(lib_a-readr.o)
_read_r                                           /home/vboxuser/Desktop/topst/buildtools/gcc-linaro-7.2.1-2017.11-x86_64_arm-eabi/arm-eabi/libc/usr/lib/libc.a(lib_a-readr.o)
                                                  /home/vboxuser/Desktop/topst/buildtools/gcc-linaro-7.2.1-2017.11-x86_64_arm-eabi/arm-eabi/libc/usr/lib/libc.a(lib_a-stdio.o)
_realloc_r                                        /home/vboxuser/Desktop/topst/buildtools/gcc-linaro-7.2.1-2017.11-x86_64_arm-eabi/arm-eabi/libc/usr/lib/libc.a(lib_a-reallocr.o)
                                                  /home/vboxuser/Desktop/topst/buildtools/gcc-linaro-7.2.1-2017.11-x86_64_arm-eabi/arm-eabi/libc/usr/lib/libc.a(lib_a-svfiprintf.o)
_reclaim_reent                                    /home/vboxuser/Desktop/topst/buildtools/gcc-linaro-7.2.1-2017.11-x86_64_arm-eabi/arm-eabi/libc/usr/lib/libc.a(lib_a-reent.o)
_rename                                           /home/vboxuser/Desktop/topst/buildtools/gcc-linaro-7.2.1-2017.11-x86_64_arm-eabi/arm-eabi/libc/usr/lib/libc.a(lib_a-syscalls.o)
_sbrk                                             /home/vboxuser/Desktop/topst/buildtools/gcc-linaro-7.2.1-2017.11-x86_64_arm-eabi/arm-eabi/libc/usr/lib/libc.a(lib_a-syscalls.o)
                                                  /home/vboxuser/Desktop/topst/buildtools/gcc-linaro-7.2.1-2017.11-x86_64_arm-eabi/arm-eabi/libc/usr/lib/libc.a(lib_a-sbrkr.o)
_sbrk_r                                           /home/vboxuser/Desktop/topst/buildtools/gcc-linaro-7.2.1-2017.11-x86_64_arm-eabi/arm-eabi/libc/usr/lib/libc.a(lib_a-sbrkr.o)
                                                  /home/vboxuser/Desktop/topst/buildtools/gcc-linaro-7.2.1-2017.11-x86_64_arm-eabi/arm-eabi/libc/usr/lib/libc.a(lib_a-mallocr.o)
                                                  /home/vboxuser/Desktop/topst/buildtools/gcc-linaro-7.2.1-2017.11-x86_64_arm-eabi/arm-eabi/libc/usr/lib/libc.a(lib_a-freer.o)
_setlocale_r                                      /home/vboxuser/Desktop/topst/buildtools/gcc-linaro-7.2.1-2017.11-x86_64_arm-eabi/arm-eabi/libc/usr/lib/libc.a(lib_a-locale.o)
_snprintf_r                                       /home/vboxuser/Desktop/topst/buildtools/gcc-linaro-7.2.1-2017.11-x86_64_arm-eabi/arm-eabi/libc/usr/lib/libc.a(lib_a-snprintf.o)
_start                                            /home/vboxuser/Desktop/topst/cr5-bsp/sources/build/tcc805x/gcc/tcc805x-freertos-debug/obj/vector.o
_stat                                             /home/vboxuser/Desktop/topst/buildtools/gcc-linaro-7.2.1-2017.11-x86_64_arm-eabi/arm-eabi/libc/usr/lib/libc.a(lib_a-syscalls.o)
_strtol_r                                         /home/vboxuser/Desktop/topst/buildtools/gcc-linaro-7.2.1-2017.11-x86_64_arm-eabi/arm-eabi/libc/usr/lib/libc.a(lib_a-strtol.o)
                                                  /home/vboxuser/Desktop/topst/buildtools/gcc-linaro-7.2.1-2017.11-x86_64_arm-eabi/arm-eabi/libc/usr/lib/libc.a(lib_a-atol.o)
                                                  /home/vboxuser/Desktop/topst/buildtools/gcc-linaro-7.2.1-2017.11-x86_64_arm-eabi/arm-eabi/libc/usr/lib/libc.a(lib_a-atoi.o)
_strtoul_r                                        /home/vboxuser/Desktop/topst/buildtools/gcc-linaro-7.2.1-2017.11-x86_64_arm-eabi/arm-eabi/libc/usr/lib/libc.a(lib_a-strtoul.o)
_svfiprintf_r                                     /home/vboxuser/Desktop/topst/buildtools/gcc-linaro-7.2.1-2017.11-x86_64_arm-eabi/arm-eabi/libc/usr/lib/libc.a(lib_a-svfiprintf.o)
_svfprintf_r                                      /home/vboxuser/Desktop/topst/buildtools/gcc-linaro-7.2.1-2017.11-x86_64_arm-eabi/arm-eabi/libc/usr/lib/libc.a(lib_a-svfprintf.o)
                                                  /home/vboxuser/Desktop/topst/buildtools/gcc-linaro-7.2.1-2017.11-x86_64_arm-eabi/arm-eabi/libc/usr/lib/libc.a(lib_a-snprintf.o)
_swiclose                                         /home/vboxuser/Desktop/topst/buildtools/gcc-linaro-7.2.1-2017.11-x86_64_arm-eabi/arm-eabi/libc/usr/lib/libc.a(lib_a-syscalls.o)
_swilseek                                         /home/vboxuser/Desktop/topst/buildtools/gcc-linaro-7.2.1-2017.11-x86_64_arm-eabi/arm-eabi/libc/usr/lib/libc.a(lib_a-syscalls.o)
_swiopen                                          /home/vboxuser/Desktop/topst/buildtools/gcc-linaro-7.2.1-2017.11-x86_64_arm-eabi/arm-eabi/libc/usr/lib/libc.a(lib_a-syscalls.o)
_swiread                                          /home/vboxuser/Desktop/topst/buildtools/gcc-linaro-7.2.1-2017.11-x86_64_arm-eabi/arm-eabi/libc/usr/lib/libc.a(lib_a-syscalls.o)
_swiwrite                                         /home/vboxuser/Desktop/topst/buildtools/gcc-linaro-7.2.1-2017.11-x86_64_arm-eabi/arm-eabi/libc/usr/lib/libc.a(lib_a-syscalls.o)
_system                                           /home/vboxuser/Desktop/topst/buildtools/gcc-linaro-7.2.1-2017.11-x86_64_arm-eabi/arm-eabi/libc/usr/lib/libc.a(lib_a-syscalls.o)
_times                                            /home/vboxuser/Desktop/topst/buildtools/gcc-linaro-7.2.1-2017.11-x86_64_arm-eabi/arm-eabi/libc/usr/lib/libc.a(lib_a-syscalls.o)
_unlink                                           /home/vboxuser/Desktop/topst/buildtools/gcc-linaro-7.2.1-2017.11-x86_64_arm-eabi/arm-eabi/libc/usr/lib/libc.a(lib_a-syscalls.o)
_vector                                           /home/vboxuser/Desktop/topst/cr5-bsp/sources/build/tcc805x/gcc/tcc805x-freertos-debug/obj/vector.o
_wcrtomb_r                                        /home/vboxuser/Desktop/topst/buildtools/gcc-linaro-7.2.1-2017.11-x86_64_arm-eabi/arm-eabi/libc/usr/lib/libc.a(lib_a-wcrtomb.o)
                                                  /home/vboxuser/Desktop/topst/buildtools/gcc-linaro-7.2.1-2017.11-x86_64_arm-eabi/arm-eabi/libc/usr/lib/libc.a(lib_a-svfiprintf.o)
                                                  /home/vboxuser/Desktop/topst/buildtools/gcc-linaro-7.2.1-2017.11-x86_64_arm-eabi/arm-eabi/libc/usr/lib/libc.a(lib_a-svfprintf.o)
_wcsnrtombs_l                                     /home/vboxuser/Desktop/topst/buildtools/gcc-linaro-7.2.1-2017.11-x86_64_arm-eabi/arm-eabi/libc/usr/lib/libc.a(lib_a-wcsnrtombs.o)
_wcsnrtombs_r                                     /home/vboxuser/Desktop/topst/buildtools/gcc-linaro-7.2.1-2017.11-x86_64_arm-eabi/arm-eabi/libc/usr/lib/libc.a(lib_a-wcsnrtombs.o)
                                                  /home/vboxuser/Desktop/topst/buildtools/gcc-linaro-7.2.1-2017.11-x86_64_arm-eabi/arm-eabi/libc/usr/lib/libc.a(lib_a-wcsrtombs.o)
_wcsrtombs_r                                      /home/vboxuser/Desktop/topst/buildtools/gcc-linaro-7.2.1-2017.11-x86_64_arm-eabi/arm-eabi/libc/usr/lib/libc.a(lib_a-wcsrtombs.o)
                                                  /home/vboxuser/Desktop/topst/buildtools/gcc-linaro-7.2.1-2017.11-x86_64_arm-eabi/arm-eabi/libc/usr/lib/libc.a(lib_a-svfiprintf.o)
                                                  /home/vboxuser/Desktop/topst/buildtools/gcc-linaro-7.2.1-2017.11-x86_64_arm-eabi/arm-eabi/libc/usr/lib/libc.a(lib_a-svfprintf.o)
_wctomb_r                                         /home/vboxuser/Desktop/topst/buildtools/gcc-linaro-7.2.1-2017.11-x86_64_arm-eabi/arm-eabi/libc/usr/lib/libc.a(lib_a-wctomb_r.o)
_write                                            /home/vboxuser/Desktop/topst/buildtools/gcc-linaro-7.2.1-2017.11-x86_64_arm-eabi/arm-eabi/libc/usr/lib/libc.a(lib_a-syscalls.o)
                                                  /home/vboxuser/Desktop/topst/buildtools/gcc-linaro-7.2.1-2017.11-x86_64_arm-eabi/arm-eabi/libc/usr/lib/libc.a(lib_a-writer.o)
_write_r                                          /home/vboxuser/Desktop/topst/buildtools/gcc-linaro-7.2.1-2017.11-x86_64_arm-eabi/arm-eabi/libc/usr/lib/libc.a(lib_a-writer.o)
                                                  /home/vboxuser/Desktop/topst/buildtools/gcc-linaro-7.2.1-2017.11-x86_64_arm-eabi/arm-eabi/libc/usr/lib/libc.a(lib_a-stdio.o)
atoi                                              /home/vboxuser/Desktop/topst/buildtools/gcc-linaro-7.2.1-2017.11-x86_64_arm-eabi/arm-eabi/libc/usr/lib/libc.a(lib_a-atoi.o)
                                                  /home/vboxuser/Desktop/topst/cr5-bsp/sources/build/tcc805x/gcc/tcc805x-freertos-debug/obj/Motor_System.o
atol                                              /home/vboxuser/Desktop/topst/buildtools/gcc-linaro-7.2.1-2017.11-x86_64_arm-eabi/arm-eabi/libc/usr/lib/libc.a(lib_a-atol.o)
                                                  /home/vboxuser/Desktop/topst/cr5-bsp/sources/build/tcc805x/gcc/tcc805x-freertos-debug/obj/hsm_test.o
calculate_distance                                /home/vboxuser/Desktop/topst/cr5-bsp/sources/build/tcc805x/gcc/tcc805x-freertos-debug/obj/Motor_System.o
cbFunc                                            /home/vboxuser/Desktop/topst/cr5-bsp/sources/build/tcc805x/gcc/tcc805x-freertos-debug/obj/ipc_api.o
                                                  /home/vboxuser/Desktop/topst/cr5-bsp/sources/build/tcc805x/gcc/tcc805x-freertos-debug/obj/ipc.o
                                                  /home/vboxuser/Desktop/topst/cr5-bsp/sources/build/tcc805x/gcc/tcc805x-freertos-debug/obj/ipc_parser.o
cleanup_glue                                      /home/vboxuser/Desktop/topst/buildtools/gcc-linaro-7.2.1-2017.11-x86_64_arm-eabi/arm-eabi/libc/usr/lib/libc.a(lib_a-reent.o)
cmain                                             /home/vboxuser/Desktop/topst/cr5-bsp/sources/build/tcc805x/gcc/tcc805x-freertos-debug/obj/main.o
                                                  /home/vboxuser/Desktop/topst/cr5-bsp/sources/build/tcc805x/gcc/tcc805x-freertos-debug/obj/startup.o
dbgTags                                           /home/vboxuser/Desktop/topst/cr5-bsp/sources/build/tcc805x/gcc/tcc805x-freertos-debug/obj/debug.o
                                                  /home/vboxuser/Desktop/topst/cr5-bsp/sources/build/tcc805x/gcc/tcc805x-freertos-debug/obj/sal_freertos_impl.o
                                                  /home/vboxuser/Desktop/topst/cr5-bsp/sources/build/tcc805x/gcc/tcc805x-freertos-debug/obj/dse.o
                                                  /home/vboxuser/Desktop/topst/cr5-bsp/sources/build/tcc805x/gcc/tcc805x-freertos-debug/obj/wdt.o
                                                  /home/vboxuser/Desktop/topst/cr5-bsp/sources/build/tcc805x/gcc/tcc805x-freertos-debug/obj/uart.o
                                                  /home/vboxuser/Desktop/topst/cr5-bsp/sources/build/tcc805x/gcc/tcc805x-freertos-debug/obj/timer.o
                                                  /home/vboxuser/Desktop/topst/cr5-bsp/sources/build/tcc805x/gcc/tcc805x-freertos-debug/obj/gpsb.o
                                                  /home/vboxuser/Desktop/topst/cr5-bsp/sources/build/tcc805x/gcc/tcc805x-freertos-debug/obj/pdm.o
                                                  /home/vboxuser/Desktop/topst/cr5-bsp/sources/build/tcc805x/gcc/tcc805x-freertos-debug/obj/mbox.o
                                                  /home/vboxuser/Desktop/topst/cr5-bsp/sources/build/tcc805x/gcc/tcc805x-freertos-debug/obj/mbox_dev.o
                                                  /home/vboxuser/Desktop/topst/cr5-bsp/sources/build/tcc805x/gcc/tcc805x-freertos-debug/obj/ictc.o
                                                  /home/vboxuser/Desktop/topst/cr5-bsp/sources/build/tcc805x/gcc/tcc805x-freertos-debug/obj/i2c.o
                                                  /home/vboxuser/Desktop/topst/cr5-bsp/sources/build/tcc805x/gcc/tcc805x-freertos-debug/obj/gpio.o
                                                  /home/vboxuser/Desktop/topst/cr5-bsp/sources/build/tcc805x/gcc/tcc805x-freertos-debug/obj/gdma.o
                                                  /home/vboxuser/Desktop/topst/cr5-bsp/sources/build/tcc805x/gcc/tcc805x-freertos-debug/obj/fmu.o
                                                  /home/vboxuser/Desktop/topst/cr5-bsp/sources/build/tcc805x/gcc/tcc805x-freertos-debug/obj/can_drv.o
                                                  /home/vboxuser/Desktop/topst/cr5-bsp/sources/build/tcc805x/gcc/tcc805x-freertos-debug/obj/can.o
                                                  /home/vboxuser/Desktop/topst/cr5-bsp/sources/build/tcc805x/gcc/tcc805x-freertos-debug/obj/adc.o
                                                  /home/vboxuser/Desktop/topst/cr5-bsp/sources/build/tcc805x/gcc/tcc805x-freertos-debug/obj/sdm.o
                                                  /home/vboxuser/Desktop/topst/cr5-bsp/sources/build/tcc805x/gcc/tcc805x-freertos-debug/obj/lin.o
                                                  /home/vboxuser/Desktop/topst/cr5-bsp/sources/build/tcc805x/gcc/tcc805x-freertos-debug/obj/ipc_api.o
                                                  /home/vboxuser/Desktop/topst/cr5-bsp/sources/build/tcc805x/gcc/tcc805x-freertos-debug/obj/ipc_ctl.o
                                                  /home/vboxuser/Desktop/topst/cr5-bsp/sources/build/tcc805x/gcc/tcc805x-freertos-debug/obj/ipc_buffer.o
                                                  /home/vboxuser/Desktop/topst/cr5-bsp/sources/build/tcc805x/gcc/tcc805x-freertos-debug/obj/mptool.o
                                                  /home/vboxuser/Desktop/topst/cr5-bsp/sources/build/tcc805x/gcc/tcc805x-freertos-debug/obj/gdma_test.o
                                                  /home/vboxuser/Desktop/topst/cr5-bsp/sources/build/tcc805x/gcc/tcc805x-freertos-debug/obj/key_i2c.o
                                                  /home/vboxuser/Desktop/topst/cr5-bsp/sources/build/tcc805x/gcc/tcc805x-freertos-debug/obj/fwug.o
                                                  /home/vboxuser/Desktop/topst/cr5-bsp/sources/build/tcc805x/gcc/tcc805x-freertos-debug/obj/console.o
                                                  /home/vboxuser/Desktop/topst/cr5-bsp/sources/build/tcc805x/gcc/tcc805x-freertos-debug/obj/can_demo.o
delay_complete                                    /home/vboxuser/Desktop/topst/cr5-bsp/sources/build/tcc805x/gcc/tcc805x-freertos-debug/obj/timer_test.o
delay_completed                                   /home/vboxuser/Desktop/topst/cr5-bsp/sources/build/tcc805x/gcc/tcc805x-freertos-debug/obj/timer.o
delay_us2                                         /home/vboxuser/Desktop/topst/cr5-bsp/sources/build/tcc805x/gcc/tcc805x-freertos-debug/obj/timer.o
delay_us3                                         /home/vboxuser/Desktop/topst/cr5-bsp/sources/build/tcc805x/gcc/tcc805x-freertos-debug/obj/timer_test.o
                                                  /home/vboxuser/Desktop/topst/cr5-bsp/sources/build/tcc805x/gcc/tcc805x-freertos-debug/obj/Motor_System.o
dev                                               /home/vboxuser/Desktop/topst/cr5-bsp/sources/build/tcc805x/gcc/tcc805x-freertos-debug/obj/ipc_ctl.o
                                                  /home/vboxuser/Desktop/topst/cr5-bsp/sources/build/tcc805x/gcc/tcc805x-freertos-debug/obj/ipc_cmd.o
eTaskGetState                                     /home/vboxuser/Desktop/topst/cr5-bsp/sources/build/tcc805x/gcc/tcc805x-freertos-debug/obj/tasks.o
end                                               /home/vboxuser/Desktop/topst/buildtools/gcc-linaro-7.2.1-2017.11-x86_64_arm-eabi/arm-eabi/libc/usr/lib/libc.a(lib_a-syscalls.o)
environ                                           /home/vboxuser/Desktop/topst/buildtools/gcc-linaro-7.2.1-2017.11-x86_64_arm-eabi/arm-eabi/libc/usr/lib/libc.a(lib_a-environ.o)
                                                  /home/vboxuser/Desktop/topst/buildtools/gcc-linaro-7.2.1-2017.11-x86_64_arm-eabi/arm-eabi/libc/usr/lib/libc.a(lib_a-getenv_r.o)
errno                                             /home/vboxuser/Desktop/topst/buildtools/gcc-linaro-7.2.1-2017.11-x86_64_arm-eabi/arm-eabi/libc/usr/lib/libc.a(lib_a-reent.o)
                                                  /home/vboxuser/Desktop/topst/buildtools/gcc-linaro-7.2.1-2017.11-x86_64_arm-eabi/arm-eabi/libc/usr/lib/libc.a(lib_a-readr.o)
                                                  /home/vboxuser/Desktop/topst/buildtools/gcc-linaro-7.2.1-2017.11-x86_64_arm-eabi/arm-eabi/libc/usr/lib/libc.a(lib_a-lseekr.o)
                                                  /home/vboxuser/Desktop/topst/buildtools/gcc-linaro-7.2.1-2017.11-x86_64_arm-eabi/arm-eabi/libc/usr/lib/libc.a(lib_a-closer.o)
                                                  /home/vboxuser/Desktop/topst/buildtools/gcc-linaro-7.2.1-2017.11-x86_64_arm-eabi/arm-eabi/libc/usr/lib/libc.a(lib_a-writer.o)
                                                  /home/vboxuser/Desktop/topst/buildtools/gcc-linaro-7.2.1-2017.11-x86_64_arm-eabi/arm-eabi/libc/usr/lib/libc.a(lib_a-sbrkr.o)
fclose                                            /home/vboxuser/Desktop/topst/buildtools/gcc-linaro-7.2.1-2017.11-x86_64_arm-eabi/arm-eabi/libc/usr/lib/libc.a(lib_a-fclose.o)
fflush                                            /home/vboxuser/Desktop/topst/buildtools/gcc-linaro-7.2.1-2017.11-x86_64_arm-eabi/arm-eabi/libc/usr/lib/libc.a(lib_a-fflush.o)
frexp                                             /home/vboxuser/Desktop/topst/buildtools/gcc-linaro-7.2.1-2017.11-x86_64_arm-eabi/arm-eabi/libc/usr/lib/libc.a(lib_a-s_frexp.o)
                                                  /home/vboxuser/Desktop/topst/buildtools/gcc-linaro-7.2.1-2017.11-x86_64_arm-eabi/arm-eabi/libc/usr/lib/libc.a(lib_a-svfprintf.o)
gALiveMsgOnOff                                    /home/vboxuser/Desktop/topst/cr5-bsp/sources/build/tcc805x/gcc/tcc805x-freertos-debug/obj/main.o
                                                  /home/vboxuser/Desktop/topst/cr5-bsp/sources/build/tcc805x/gcc/tcc805x-freertos-debug/obj/console.o
gDebugOption                                      /home/vboxuser/Desktop/topst/cr5-bsp/sources/build/tcc805x/gcc/tcc805x-freertos-debug/obj/debug.o
                                                  /home/vboxuser/Desktop/topst/cr5-bsp/sources/build/tcc805x/gcc/tcc805x-freertos-debug/obj/sal_freertos_impl.o
                                                  /home/vboxuser/Desktop/topst/cr5-bsp/sources/build/tcc805x/gcc/tcc805x-freertos-debug/obj/dse.o
                                                  /home/vboxuser/Desktop/topst/cr5-bsp/sources/build/tcc805x/gcc/tcc805x-freertos-debug/obj/wdt.o
                                                  /home/vboxuser/Desktop/topst/cr5-bsp/sources/build/tcc805x/gcc/tcc805x-freertos-debug/obj/uart.o
                                                  /home/vboxuser/Desktop/topst/cr5-bsp/sources/build/tcc805x/gcc/tcc805x-freertos-debug/obj/timer.o
                                                  /home/vboxuser/Desktop/topst/cr5-bsp/sources/build/tcc805x/gcc/tcc805x-freertos-debug/obj/gpsb.o
                                                  /home/vboxuser/Desktop/topst/cr5-bsp/sources/build/tcc805x/gcc/tcc805x-freertos-debug/obj/pdm.o
                                                  /home/vboxuser/Desktop/topst/cr5-bsp/sources/build/tcc805x/gcc/tcc805x-freertos-debug/obj/mbox.o
                                                  /home/vboxuser/Desktop/topst/cr5-bsp/sources/build/tcc805x/gcc/tcc805x-freertos-debug/obj/mbox_dev.o
                                                  /home/vboxuser/Desktop/topst/cr5-bsp/sources/build/tcc805x/gcc/tcc805x-freertos-debug/obj/ictc.o
                                                  /home/vboxuser/Desktop/topst/cr5-bsp/sources/build/tcc805x/gcc/tcc805x-freertos-debug/obj/i2c.o
                                                  /home/vboxuser/Desktop/topst/cr5-bsp/sources/build/tcc805x/gcc/tcc805x-freertos-debug/obj/gpio.o
                                                  /home/vboxuser/Desktop/topst/cr5-bsp/sources/build/tcc805x/gcc/tcc805x-freertos-debug/obj/gdma.o
                                                  /home/vboxuser/Desktop/topst/cr5-bsp/sources/build/tcc805x/gcc/tcc805x-freertos-debug/obj/fmu.o
                                                  /home/vboxuser/Desktop/topst/cr5-bsp/sources/build/tcc805x/gcc/tcc805x-freertos-debug/obj/can_drv.o
                                                  /home/vboxuser/Desktop/topst/cr5-bsp/sources/build/tcc805x/gcc/tcc805x-freertos-debug/obj/can.o
                                                  /home/vboxuser/Desktop/topst/cr5-bsp/sources/build/tcc805x/gcc/tcc805x-freertos-debug/obj/adc.o
                                                  /home/vboxuser/Desktop/topst/cr5-bsp/sources/build/tcc805x/gcc/tcc805x-freertos-debug/obj/sdm.o
                                                  /home/vboxuser/Desktop/topst/cr5-bsp/sources/build/tcc805x/gcc/tcc805x-freertos-debug/obj/lin.o
                                                  /home/vboxuser/Desktop/topst/cr5-bsp/sources/build/tcc805x/gcc/tcc805x-freertos-debug/obj/ipc_api.o
                                                  /home/vboxuser/Desktop/topst/cr5-bsp/sources/build/tcc805x/gcc/tcc805x-freertos-debug/obj/ipc_ctl.o
                                                  /home/vboxuser/Desktop/topst/cr5-bsp/sources/build/tcc805x/gcc/tcc805x-freertos-debug/obj/ipc_buffer.o
                                                  /home/vboxuser/Desktop/topst/cr5-bsp/sources/build/tcc805x/gcc/tcc805x-freertos-debug/obj/mptool.o
                                                  /home/vboxuser/Desktop/topst/cr5-bsp/sources/build/tcc805x/gcc/tcc805x-freertos-debug/obj/gdma_test.o
                                                  /home/vboxuser/Desktop/topst/cr5-bsp/sources/build/tcc805x/gcc/tcc805x-freertos-debug/obj/key_i2c.o
                                                  /home/vboxuser/Desktop/topst/cr5-bsp/sources/build/tcc805x/gcc/tcc805x-freertos-debug/obj/fwug.o
                                                  /home/vboxuser/Desktop/topst/cr5-bsp/sources/build/tcc805x/gcc/tcc805x-freertos-debug/obj/console.o
                                                  /home/vboxuser/Desktop/topst/cr5-bsp/sources/build/tcc805x/gcc/tcc805x-freertos-debug/obj/can_demo.o
gIPCHandler                                       /home/vboxuser/Desktop/topst/cr5-bsp/sources/build/tcc805x/gcc/tcc805x-freertos-debug/obj/ipc_ctl.o
                                                  /home/vboxuser/Desktop/topst/cr5-bsp/sources/build/tcc805x/gcc/tcc805x-freertos-debug/obj/ipc_api.o
gSALCoreTable                                     /home/vboxuser/Desktop/topst/cr5-bsp/sources/build/tcc805x/gcc/tcc805x-freertos-debug/obj/sal_api.o
                                                  /home/vboxuser/Desktop/topst/cr5-bsp/sources/build/tcc805x/gcc/tcc805x-freertos-debug/obj/port.o
                                                  /home/vboxuser/Desktop/topst/cr5-bsp/sources/build/tcc805x/gcc/tcc805x-freertos-debug/obj/gpsb.o
                                                  /home/vboxuser/Desktop/topst/cr5-bsp/sources/build/tcc805x/gcc/tcc805x-freertos-debug/obj/i2c.o
                                                  /home/vboxuser/Desktop/topst/cr5-bsp/sources/build/tcc805x/gcc/tcc805x-freertos-debug/obj/gic.o
                                                  /home/vboxuser/Desktop/topst/cr5-bsp/sources/build/tcc805x/gcc/tcc805x-freertos-debug/obj/bsp.o
                                                  /home/vboxuser/Desktop/topst/cr5-bsp/sources/build/tcc805x/gcc/tcc805x-freertos-debug/obj/clock_dev.o
                                                  /home/vboxuser/Desktop/topst/cr5-bsp/sources/build/tcc805x/gcc/tcc805x-freertos-debug/obj/ipc_api.o
                                                  /home/vboxuser/Desktop/topst/cr5-bsp/sources/build/tcc805x/gcc/tcc805x-freertos-debug/obj/fwug.o
gSALDataStructTable                               /home/vboxuser/Desktop/topst/cr5-bsp/sources/build/tcc805x/gcc/tcc805x-freertos-debug/obj/sal_api.o
                                                  /home/vboxuser/Desktop/topst/cr5-bsp/sources/build/tcc805x/gcc/tcc805x-freertos-debug/obj/pmu_reset.o
                                                  /home/vboxuser/Desktop/topst/cr5-bsp/sources/build/tcc805x/gcc/tcc805x-freertos-debug/obj/ipc_ctl.o
gSALEtcTable                                      /home/vboxuser/Desktop/topst/cr5-bsp/sources/build/tcc805x/gcc/tcc805x-freertos-debug/obj/sal_api.o
                                                  /home/vboxuser/Desktop/topst/cr5-bsp/sources/build/tcc805x/gcc/tcc805x-freertos-debug/obj/timer.o
                                                  /home/vboxuser/Desktop/topst/cr5-bsp/sources/build/tcc805x/gcc/tcc805x-freertos-debug/obj/ipc_os.o
                                                  /home/vboxuser/Desktop/topst/cr5-bsp/sources/build/tcc805x/gcc/tcc805x-freertos-debug/obj/timer_test.o
                                                  /home/vboxuser/Desktop/topst/cr5-bsp/sources/build/tcc805x/gcc/tcc805x-freertos-debug/obj/system_monitoring.o
                                                  /home/vboxuser/Desktop/topst/cr5-bsp/sources/build/tcc805x/gcc/tcc805x-freertos-debug/obj/main.o
gSALFileTable                                     /home/vboxuser/Desktop/topst/cr5-bsp/sources/build/tcc805x/gcc/tcc805x-freertos-debug/obj/sal_api.o
gSALMemoryTable                                   /home/vboxuser/Desktop/topst/cr5-bsp/sources/build/tcc805x/gcc/tcc805x-freertos-debug/obj/sal_api.o
                                                  /home/vboxuser/Desktop/topst/cr5-bsp/sources/build/tcc805x/gcc/tcc805x-freertos-debug/obj/uart.o
                                                  /home/vboxuser/Desktop/topst/cr5-bsp/sources/build/tcc805x/gcc/tcc805x-freertos-debug/obj/gpsb.o
                                                  /home/vboxuser/Desktop/topst/cr5-bsp/sources/build/tcc805x/gcc/tcc805x-freertos-debug/obj/pdm.o
                                                  /home/vboxuser/Desktop/topst/cr5-bsp/sources/build/tcc805x/gcc/tcc805x-freertos-debug/obj/i2c.o
                                                  /home/vboxuser/Desktop/topst/cr5-bsp/sources/build/tcc805x/gcc/tcc805x-freertos-debug/obj/clock_dev.o
                                                  /home/vboxuser/Desktop/topst/cr5-bsp/sources/build/tcc805x/gcc/tcc805x-freertos-debug/obj/can_msg.o
                                                  /home/vboxuser/Desktop/topst/cr5-bsp/sources/build/tcc805x/gcc/tcc805x-freertos-debug/obj/can_drv.o
                                                  /home/vboxuser/Desktop/topst/cr5-bsp/sources/build/tcc805x/gcc/tcc805x-freertos-debug/obj/hsm_manager.o
                                                  /home/vboxuser/Desktop/topst/cr5-bsp/sources/build/tcc805x/gcc/tcc805x-freertos-debug/obj/sdm.o
                                                  /home/vboxuser/Desktop/topst/cr5-bsp/sources/build/tcc805x/gcc/tcc805x-freertos-debug/obj/lin.o
                                                  /home/vboxuser/Desktop/topst/cr5-bsp/sources/build/tcc805x/gcc/tcc805x-freertos-debug/obj/ipc_ctl.o
                                                  /home/vboxuser/Desktop/topst/cr5-bsp/sources/build/tcc805x/gcc/tcc805x-freertos-debug/obj/ipc_cmd.o
                                                  /home/vboxuser/Desktop/topst/cr5-bsp/sources/build/tcc805x/gcc/tcc805x-freertos-debug/obj/ipc_buffer.o
                                                  /home/vboxuser/Desktop/topst/cr5-bsp/sources/build/tcc805x/gcc/tcc805x-freertos-debug/obj/pmio_test.o
                                                  /home/vboxuser/Desktop/topst/cr5-bsp/sources/build/tcc805x/gcc/tcc805x-freertos-debug/obj/lin_test.o
                                                  /home/vboxuser/Desktop/topst/cr5-bsp/sources/build/tcc805x/gcc/tcc805x-freertos-debug/obj/hsm_test.o
                                                  /home/vboxuser/Desktop/topst/cr5-bsp/sources/build/tcc805x/gcc/tcc805x-freertos-debug/obj/gpsb_test.o
                                                  /home/vboxuser/Desktop/topst/cr5-bsp/sources/build/tcc805x/gcc/tcc805x-freertos-debug/obj/reset_demo.o
                                                  /home/vboxuser/Desktop/topst/cr5-bsp/sources/build/tcc805x/gcc/tcc805x-freertos-debug/obj/bootctrl.o
                                                  /home/vboxuser/Desktop/topst/cr5-bsp/sources/build/tcc805x/gcc/tcc805x-freertos-debug/obj/system_monitoring.o
                                                  /home/vboxuser/Desktop/topst/cr5-bsp/sources/build/tcc805x/gcc/tcc805x-freertos-debug/obj/key_adc.o
                                                  /home/vboxuser/Desktop/topst/cr5-bsp/sources/build/tcc805x/gcc/tcc805x-freertos-debug/obj/fwug.o
                                                  /home/vboxuser/Desktop/topst/cr5-bsp/sources/build/tcc805x/gcc/tcc805x-freertos-debug/obj/console.o
                                                  /home/vboxuser/Desktop/topst/cr5-bsp/sources/build/tcc805x/gcc/tcc805x-freertos-debug/obj/can_demo.o
gSALOSRunTable                                    /home/vboxuser/Desktop/topst/cr5-bsp/sources/build/tcc805x/gcc/tcc805x-freertos-debug/obj/sal_api.o
                                                  /home/vboxuser/Desktop/topst/cr5-bsp/sources/build/tcc805x/gcc/tcc805x-freertos-debug/obj/main.o
gSALSocketTable                                   /home/vboxuser/Desktop/topst/cr5-bsp/sources/build/tcc805x/gcc/tcc805x-freertos-debug/obj/sal_api.o
gSALSyncObjectTable                               /home/vboxuser/Desktop/topst/cr5-bsp/sources/build/tcc805x/gcc/tcc805x-freertos-debug/obj/sal_api.o
                                                  /home/vboxuser/Desktop/topst/cr5-bsp/sources/build/tcc805x/gcc/tcc805x-freertos-debug/obj/pmio_dev.o
                                                  /home/vboxuser/Desktop/topst/cr5-bsp/sources/build/tcc805x/gcc/tcc805x-freertos-debug/obj/mbox.o
                                                  /home/vboxuser/Desktop/topst/cr5-bsp/sources/build/tcc805x/gcc/tcc805x-freertos-debug/obj/gdma.o
                                                  /home/vboxuser/Desktop/topst/cr5-bsp/sources/build/tcc805x/gcc/tcc805x-freertos-debug/obj/ipc_os.o
gSALTaskTable                                     /home/vboxuser/Desktop/topst/cr5-bsp/sources/build/tcc805x/gcc/tcc805x-freertos-debug/obj/sal_api.o
                                                  /home/vboxuser/Desktop/topst/cr5-bsp/sources/build/tcc805x/gcc/tcc805x-freertos-debug/obj/pmu_reset.o
                                                  /home/vboxuser/Desktop/topst/cr5-bsp/sources/build/tcc805x/gcc/tcc805x-freertos-debug/obj/pmio_dev.o
                                                  /home/vboxuser/Desktop/topst/cr5-bsp/sources/build/tcc805x/gcc/tcc805x-freertos-debug/obj/lin.o
                                                  /home/vboxuser/Desktop/topst/cr5-bsp/sources/build/tcc805x/gcc/tcc805x-freertos-debug/obj/ipc_parser.o
                                                  /home/vboxuser/Desktop/topst/cr5-bsp/sources/build/tcc805x/gcc/tcc805x-freertos-debug/obj/ipc_ctl.o
                                                  /home/vboxuser/Desktop/topst/cr5-bsp/sources/build/tcc805x/gcc/tcc805x-freertos-debug/obj/ipc_os.o
                                                  /home/vboxuser/Desktop/topst/cr5-bsp/sources/build/tcc805x/gcc/tcc805x-freertos-debug/obj/mptool.o
                                                  /home/vboxuser/Desktop/topst/cr5-bsp/sources/build/tcc805x/gcc/tcc805x-freertos-debug/obj/Motor_System.o
                                                  /home/vboxuser/Desktop/topst/cr5-bsp/sources/build/tcc805x/gcc/tcc805x-freertos-debug/obj/pwm_test.o
                                                  /home/vboxuser/Desktop/topst/cr5-bsp/sources/build/tcc805x/gcc/tcc805x-freertos-debug/obj/pdm_test.o
                                                  /home/vboxuser/Desktop/topst/cr5-bsp/sources/build/tcc805x/gcc/tcc805x-freertos-debug/obj/ictc_test.o
                                                  /home/vboxuser/Desktop/topst/cr5-bsp/sources/build/tcc805x/gcc/tcc805x-freertos-debug/obj/adc_test.o
                                                  /home/vboxuser/Desktop/topst/cr5-bsp/sources/build/tcc805x/gcc/tcc805x-freertos-debug/obj/bootctrl.o
                                                  /home/vboxuser/Desktop/topst/cr5-bsp/sources/build/tcc805x/gcc/tcc805x-freertos-debug/obj/system_monitoring.o
                                                  /home/vboxuser/Desktop/topst/cr5-bsp/sources/build/tcc805x/gcc/tcc805x-freertos-debug/obj/fwug.o
                                                  /home/vboxuser/Desktop/topst/cr5-bsp/sources/build/tcc805x/gcc/tcc805x-freertos-debug/obj/console.o
                                                  /home/vboxuser/Desktop/topst/cr5-bsp/sources/build/tcc805x/gcc/tcc805x-freertos-debug/obj/can_demo.o
                                                  /home/vboxuser/Desktop/topst/cr5-bsp/sources/build/tcc805x/gcc/tcc805x-freertos-debug/obj/main.o
gSALTraceTable                                    /home/vboxuser/Desktop/topst/cr5-bsp/sources/build/tcc805x/gcc/tcc805x-freertos-debug/obj/sal_api.o
                                                  /home/vboxuser/Desktop/topst/cr5-bsp/sources/build/tcc805x/gcc/tcc805x-freertos-debug/obj/wdt.o
                                                  /home/vboxuser/Desktop/topst/cr5-bsp/sources/build/tcc805x/gcc/tcc805x-freertos-debug/obj/udma.o
                                                  /home/vboxuser/Desktop/topst/cr5-bsp/sources/build/tcc805x/gcc/tcc805x-freertos-debug/obj/uart.o
                                                  /home/vboxuser/Desktop/topst/cr5-bsp/sources/build/tcc805x/gcc/tcc805x-freertos-debug/obj/timer.o
                                                  /home/vboxuser/Desktop/topst/cr5-bsp/sources/build/tcc805x/gcc/tcc805x-freertos-debug/obj/timer_test.o
gWait_irq                                         /home/vboxuser/Desktop/topst/cr5-bsp/sources/build/tcc805x/gcc/tcc805x-freertos-debug/obj/dse.o
                                                  /home/vboxuser/Desktop/topst/cr5-bsp/sources/build/tcc805x/gcc/tcc805x-freertos-debug/obj/dse_test.o
gpsb                                              /home/vboxuser/Desktop/topst/cr5-bsp/sources/build/tcc805x/gcc/tcc805x-freertos-debug/obj/gpsb_reg.o
                                                  /home/vboxuser/Desktop/topst/cr5-bsp/sources/build/tcc805x/gcc/tcc805x-freertos-debug/obj/gpsb.o
gpsb_sm                                           /home/vboxuser/Desktop/topst/cr5-bsp/sources/build/tcc805x/gcc/tcc805x-freertos-debug/obj/gpsb_reg.o
                                                  /home/vboxuser/Desktop/topst/cr5-bsp/sources/build/tcc805x/gcc/tcc805x-freertos-debug/obj/gpsb.o
gpsbport                                          /home/vboxuser/Desktop/topst/cr5-bsp/sources/build/tcc805x/gcc/tcc805x-freertos-debug/obj/gpsb_reg.o
                                                  /home/vboxuser/Desktop/topst/cr5-bsp/sources/build/tcc805x/gcc/tcc805x-freertos-debug/obj/gpsb.o
heap_init                                         /home/vboxuser/Desktop/topst/cr5-bsp/sources/build/tcc805x/gcc/tcc805x-freertos-debug/obj/port.o
                                                  /home/vboxuser/Desktop/topst/cr5-bsp/sources/build/tcc805x/gcc/tcc805x-freertos-debug/obj/sal_freertos_impl.o
i2c                                               /home/vboxuser/Desktop/topst/cr5-bsp/sources/build/tcc805x/gcc/tcc805x-freertos-debug/obj/i2c_reg.o
                                                  /home/vboxuser/Desktop/topst/cr5-bsp/sources/build/tcc805x/gcc/tcc805x-freertos-debug/obj/i2c.o
                                                  /home/vboxuser/Desktop/topst/cr5-bsp/sources/build/tcc805x/gcc/tcc805x-freertos-debug/obj/i2c_test.o
i2cport                                           /home/vboxuser/Desktop/topst/cr5-bsp/sources/build/tcc805x/gcc/tcc805x-freertos-debug/obj/i2c_reg.o
                                                  /home/vboxuser/Desktop/topst/cr5-bsp/sources/build/tcc805x/gcc/tcc805x-freertos-debug/obj/i2c.o
initialise_monitor_handles                        /home/vboxuser/Desktop/topst/buildtools/gcc-linaro-7.2.1-2017.11-x86_64_arm-eabi/arm-eabi/libc/usr/lib/libc.a(lib_a-syscalls.o)
localeconv                                        /home/vboxuser/Desktop/topst/buildtools/gcc-linaro-7.2.1-2017.11-x86_64_arm-eabi/arm-eabi/libc/usr/lib/libc.a(lib_a-localeconv.o)
mboxInfo                                          /home/vboxuser/Desktop/topst/cr5-bsp/sources/build/tcc805x/gcc/tcc805x-freertos-debug/obj/mbox_phy.o
                                                  /home/vboxuser/Desktop/topst/cr5-bsp/sources/build/tcc805x/gcc/tcc805x-freertos-debug/obj/mbox_dev.o
memchr                                            /home/vboxuser/Desktop/topst/buildtools/gcc-linaro-7.2.1-2017.11-x86_64_arm-eabi/arm-eabi/libc/usr/lib/libc.a(lib_a-memchr-stub.o)
                                                  /home/vboxuser/Desktop/topst/buildtools/gcc-linaro-7.2.1-2017.11-x86_64_arm-eabi/arm-eabi/libc/usr/lib/libc.a(lib_a-svfiprintf.o)
                                                  /home/vboxuser/Desktop/topst/buildtools/gcc-linaro-7.2.1-2017.11-x86_64_arm-eabi/arm-eabi/libc/usr/lib/libc.a(lib_a-svfprintf.o)
memcmp                                            /home/vboxuser/Desktop/topst/buildtools/gcc-linaro-7.2.1-2017.11-x86_64_arm-eabi/arm-eabi/libc/usr/lib/libc.a(lib_a-memcmp.o)
                                                  /home/vboxuser/Desktop/topst/cr5-bsp/sources/build/tcc805x/gcc/tcc805x-freertos-debug/obj/sal_freertos_impl.o
memcpy                                            /home/vboxuser/Desktop/topst/buildtools/gcc-linaro-7.2.1-2017.11-x86_64_arm-eabi/arm-eabi/libc/usr/lib/libc.a(lib_a-memcpy-stub.o)
                                                  /home/vboxuser/Desktop/topst/buildtools/gcc-linaro-7.2.1-2017.11-x86_64_arm-eabi/arm-eabi/libc/usr/lib/libc.a(lib_a-svfiprintf.o)
                                                  /home/vboxuser/Desktop/topst/buildtools/gcc-linaro-7.2.1-2017.11-x86_64_arm-eabi/arm-eabi/libc/usr/lib/libc.a(lib_a-mprec.o)
                                                  /home/vboxuser/Desktop/topst/buildtools/gcc-linaro-7.2.1-2017.11-x86_64_arm-eabi/arm-eabi/libc/usr/lib/libc.a(lib_a-dtoa.o)
                                                  /home/vboxuser/Desktop/topst/cr5-bsp/sources/build/tcc805x/gcc/tcc805x-freertos-debug/obj/sal_freertos_impl.o
                                                  /home/vboxuser/Desktop/topst/cr5-bsp/sources/build/tcc805x/gcc/tcc805x-freertos-debug/obj/stream_buffer.o
                                                  /home/vboxuser/Desktop/topst/cr5-bsp/sources/build/tcc805x/gcc/tcc805x-freertos-debug/obj/queue.o
                                                  /home/vboxuser/Desktop/topst/cr5-bsp/sources/build/tcc805x/gcc/tcc805x-freertos-debug/obj/dse_test.o
memmove                                           /home/vboxuser/Desktop/topst/buildtools/gcc-linaro-7.2.1-2017.11-x86_64_arm-eabi/arm-eabi/libc/usr/lib/libc.a(lib_a-memmove.o)
                                                  /home/vboxuser/Desktop/topst/buildtools/gcc-linaro-7.2.1-2017.11-x86_64_arm-eabi/arm-eabi/libc/usr/lib/libc.a(lib_a-reallocr.o)
                                                  /home/vboxuser/Desktop/topst/buildtools/gcc-linaro-7.2.1-2017.11-x86_64_arm-eabi/arm-eabi/libc/usr/lib/libc.a(lib_a-svfiprintf.o)
memset                                            /home/vboxuser/Desktop/topst/buildtools/gcc-linaro-7.2.1-2017.11-x86_64_arm-eabi/arm-eabi/libc/usr/lib/libc.a(lib_a-memset.o)
                                                  /home/vboxuser/Desktop/topst/buildtools/gcc-linaro-7.2.1-2017.11-x86_64_arm-eabi/arm-eabi/libc/usr/lib/libc.a(lib_a-findfp.o)
                                                  /home/vboxuser/Desktop/topst/buildtools/gcc-linaro-7.2.1-2017.11-x86_64_arm-eabi/arm-eabi/libc/usr/lib/libc.a(lib_a-callocr.o)
                                                  /home/vboxuser/Desktop/topst/buildtools/gcc-linaro-7.2.1-2017.11-x86_64_arm-eabi/arm-eabi/libc/usr/lib/libc.a(lib_a-syscalls.o)
                                                  /home/vboxuser/Desktop/topst/buildtools/gcc-linaro-7.2.1-2017.11-x86_64_arm-eabi/arm-eabi/libc/usr/lib/libc.a(lib_a-svfiprintf.o)
                                                  /home/vboxuser/Desktop/topst/buildtools/gcc-linaro-7.2.1-2017.11-x86_64_arm-eabi/arm-eabi/libc/usr/lib/libc.a(lib_a-svfprintf.o)
                                                  /home/vboxuser/Desktop/topst/cr5-bsp/sources/build/tcc805x/gcc/tcc805x-freertos-debug/obj/sal_freertos_impl.o
                                                  /home/vboxuser/Desktop/topst/cr5-bsp/sources/build/tcc805x/gcc/tcc805x-freertos-debug/obj/stream_buffer.o
                                                  /home/vboxuser/Desktop/topst/cr5-bsp/sources/build/tcc805x/gcc/tcc805x-freertos-debug/obj/tasks.o
                                                  /home/vboxuser/Desktop/topst/cr5-bsp/sources/build/tcc805x/gcc/tcc805x-freertos-debug/obj/mbox_dev.o
                                                  /home/vboxuser/Desktop/topst/cr5-bsp/sources/build/tcc805x/gcc/tcc805x-freertos-debug/obj/hsm_manager.o
                                                  /home/vboxuser/Desktop/topst/cr5-bsp/sources/build/tcc805x/gcc/tcc805x-freertos-debug/obj/Motor_System.o
                                                  /home/vboxuser/Desktop/topst/cr5-bsp/sources/build/tcc805x/gcc/tcc805x-freertos-debug/obj/hsm_test.o
                                                  /home/vboxuser/Desktop/topst/cr5-bsp/sources/build/tcc805x/gcc/tcc805x-freertos-debug/obj/console.o
pcQueueGetName                                    /home/vboxuser/Desktop/topst/cr5-bsp/sources/build/tcc805x/gcc/tcc805x-freertos-debug/obj/queue.o
pcTaskGetName                                     /home/vboxuser/Desktop/topst/cr5-bsp/sources/build/tcc805x/gcc/tcc805x-freertos-debug/obj/tasks.o
pcTimerGetName                                    /home/vboxuser/Desktop/topst/cr5-bsp/sources/build/tcc805x/gcc/tcc805x-freertos-debug/obj/timers.o
pvPortMalloc                                      /home/vboxuser/Desktop/topst/cr5-bsp/sources/build/tcc805x/gcc/tcc805x-freertos-debug/obj/heap_5.o
                                                  /home/vboxuser/Desktop/topst/cr5-bsp/sources/build/tcc805x/gcc/tcc805x-freertos-debug/obj/sal_freertos_impl.o
                                                  /home/vboxuser/Desktop/topst/cr5-bsp/sources/build/tcc805x/gcc/tcc805x-freertos-debug/obj/stream_buffer.o
                                                  /home/vboxuser/Desktop/topst/cr5-bsp/sources/build/tcc805x/gcc/tcc805x-freertos-debug/obj/timers.o
                                                  /home/vboxuser/Desktop/topst/cr5-bsp/sources/build/tcc805x/gcc/tcc805x-freertos-debug/obj/event_groups.o
                                                  /home/vboxuser/Desktop/topst/cr5-bsp/sources/build/tcc805x/gcc/tcc805x-freertos-debug/obj/queue.o
                                                  /home/vboxuser/Desktop/topst/cr5-bsp/sources/build/tcc805x/gcc/tcc805x-freertos-debug/obj/tasks.o
pvTaskIncrementMutexHeldCount                     /home/vboxuser/Desktop/topst/cr5-bsp/sources/build/tcc805x/gcc/tcc805x-freertos-debug/obj/tasks.o
                                                  /home/vboxuser/Desktop/topst/cr5-bsp/sources/build/tcc805x/gcc/tcc805x-freertos-debug/obj/queue.o
pvTimerGetTimerID                                 /home/vboxuser/Desktop/topst/cr5-bsp/sources/build/tcc805x/gcc/tcc805x-freertos-debug/obj/timers.o
pxCurrentTCB                                      /home/vboxuser/Desktop/topst/cr5-bsp/sources/build/tcc805x/gcc/tcc805x-freertos-debug/obj/tasks.o
                                                  /home/vboxuser/Desktop/topst/cr5-bsp/sources/build/tcc805x/gcc/tcc805x-freertos-debug/obj/portASM.o
pxPortInitialiseStack                             /home/vboxuser/Desktop/topst/cr5-bsp/sources/build/tcc805x/gcc/tcc805x-freertos-debug/obj/port.o
                                                  /home/vboxuser/Desktop/topst/cr5-bsp/sources/build/tcc805x/gcc/tcc805x-freertos-debug/obj/tasks.o
reset                                             /home/vboxuser/Desktop/topst/cr5-bsp/sources/build/tcc805x/gcc/tcc805x-freertos-debug/obj/startup.o
                                                  /home/vboxuser/Desktop/topst/cr5-bsp/sources/build/tcc805x/gcc/tcc805x-freertos-debug/obj/vector.o
sMPUTable                                         /home/vboxuser/Desktop/topst/cr5-bsp/sources/build/tcc805x/gcc/tcc805x-freertos-debug/obj/mpu.o
setlocale                                         /home/vboxuser/Desktop/topst/buildtools/gcc-linaro-7.2.1-2017.11-x86_64_arm-eabi/arm-eabi/libc/usr/lib/libc.a(lib_a-locale.o)
snprintf                                          /home/vboxuser/Desktop/topst/buildtools/gcc-linaro-7.2.1-2017.11-x86_64_arm-eabi/arm-eabi/libc/usr/lib/libc.a(lib_a-snprintf.o)
                                                  /home/vboxuser/Desktop/topst/cr5-bsp/sources/build/tcc805x/gcc/tcc805x-freertos-debug/obj/Motor_System.o
spMboxDev                                         /home/vboxuser/Desktop/topst/cr5-bsp/sources/build/tcc805x/gcc/tcc805x-freertos-debug/obj/mbox_dev.o
                                                  /home/vboxuser/Desktop/topst/cr5-bsp/sources/build/tcc805x/gcc/tcc805x-freertos-debug/obj/bootctrl.o
strcasecmp                                        /home/vboxuser/Desktop/topst/buildtools/gcc-linaro-7.2.1-2017.11-x86_64_arm-eabi/arm-eabi/libc/usr/lib/libc.a(lib_a-strcasecmp.o)
                                                  /home/vboxuser/Desktop/topst/buildtools/gcc-linaro-7.2.1-2017.11-x86_64_arm-eabi/arm-eabi/libc/usr/lib/libc.a(lib_a-locale.o)
strcat                                            /home/vboxuser/Desktop/topst/buildtools/gcc-linaro-7.2.1-2017.11-x86_64_arm-eabi/arm-eabi/libc/usr/lib/libc.a(lib_a-strcat.o)
                                                  /home/vboxuser/Desktop/topst/buildtools/gcc-linaro-7.2.1-2017.11-x86_64_arm-eabi/arm-eabi/libc/usr/lib/libc.a(lib_a-locale.o)
strchr                                            /home/vboxuser/Desktop/topst/buildtools/gcc-linaro-7.2.1-2017.11-x86_64_arm-eabi/arm-eabi/libc/usr/lib/libc.a(lib_a-strchr.o)
                                                  /home/vboxuser/Desktop/topst/buildtools/gcc-linaro-7.2.1-2017.11-x86_64_arm-eabi/arm-eabi/libc/usr/lib/libc.a(lib_a-locale.o)
strcmp                                            /home/vboxuser/Desktop/topst/buildtools/gcc-linaro-7.2.1-2017.11-x86_64_arm-eabi/arm-eabi/libc/usr/lib/libc.a(lib_a-strcmp.o)
                                                  /home/vboxuser/Desktop/topst/buildtools/gcc-linaro-7.2.1-2017.11-x86_64_arm-eabi/arm-eabi/libc/usr/lib/libc.a(lib_a-locale.o)
strcpy                                            /home/vboxuser/Desktop/topst/buildtools/gcc-linaro-7.2.1-2017.11-x86_64_arm-eabi/arm-eabi/libc/usr/lib/libc.a(lib_a-strcpy.o)
                                                  /home/vboxuser/Desktop/topst/buildtools/gcc-linaro-7.2.1-2017.11-x86_64_arm-eabi/arm-eabi/libc/usr/lib/libc.a(lib_a-strcat.o)
                                                  /home/vboxuser/Desktop/topst/buildtools/gcc-linaro-7.2.1-2017.11-x86_64_arm-eabi/arm-eabi/libc/usr/lib/libc.a(lib_a-locale.o)
strlcpy                                           /home/vboxuser/Desktop/topst/buildtools/gcc-linaro-7.2.1-2017.11-x86_64_arm-eabi/arm-eabi/libc/usr/lib/libc.a(lib_a-strlcpy.o)
                                                  /home/vboxuser/Desktop/topst/buildtools/gcc-linaro-7.2.1-2017.11-x86_64_arm-eabi/arm-eabi/libc/usr/lib/libc.a(lib_a-locale.o)
strlen                                            /home/vboxuser/Desktop/topst/buildtools/gcc-linaro-7.2.1-2017.11-x86_64_arm-eabi/arm-eabi/libc/usr/lib/libc.a(lib_a-strlen-stub.o)
                                                  /home/vboxuser/Desktop/topst/buildtools/gcc-linaro-7.2.1-2017.11-x86_64_arm-eabi/arm-eabi/libc/usr/lib/libc.a(lib_a-syscalls.o)
                                                  /home/vboxuser/Desktop/topst/buildtools/gcc-linaro-7.2.1-2017.11-x86_64_arm-eabi/arm-eabi/libc/usr/lib/libc.a(lib_a-svfiprintf.o)
                                                  /home/vboxuser/Desktop/topst/buildtools/gcc-linaro-7.2.1-2017.11-x86_64_arm-eabi/arm-eabi/libc/usr/lib/libc.a(lib_a-locale.o)
                                                  /home/vboxuser/Desktop/topst/buildtools/gcc-linaro-7.2.1-2017.11-x86_64_arm-eabi/arm-eabi/libc/usr/lib/libc.a(lib_a-svfprintf.o)
                                                  /home/vboxuser/Desktop/topst/cr5-bsp/sources/build/tcc805x/gcc/tcc805x-freertos-debug/obj/tasks.o
                                                  /home/vboxuser/Desktop/topst/cr5-bsp/sources/build/tcc805x/gcc/tcc805x-freertos-debug/obj/Motor_System.o
strncasecmp                                       /home/vboxuser/Desktop/topst/buildtools/gcc-linaro-7.2.1-2017.11-x86_64_arm-eabi/arm-eabi/libc/usr/lib/libc.a(lib_a-strncasecmp.o)
                                                  /home/vboxuser/Desktop/topst/buildtools/gcc-linaro-7.2.1-2017.11-x86_64_arm-eabi/arm-eabi/libc/usr/lib/libc.a(lib_a-locale.o)
strncmp                                           /home/vboxuser/Desktop/topst/buildtools/gcc-linaro-7.2.1-2017.11-x86_64_arm-eabi/arm-eabi/libc/usr/lib/libc.a(lib_a-strncmp.o)
                                                  /home/vboxuser/Desktop/topst/buildtools/gcc-linaro-7.2.1-2017.11-x86_64_arm-eabi/arm-eabi/libc/usr/lib/libc.a(lib_a-getenv_r.o)
                                                  /home/vboxuser/Desktop/topst/buildtools/gcc-linaro-7.2.1-2017.11-x86_64_arm-eabi/arm-eabi/libc/usr/lib/libc.a(lib_a-locale.o)
                                                  /home/vboxuser/Desktop/topst/cr5-bsp/sources/build/tcc805x/gcc/tcc805x-freertos-debug/obj/sal_freertos_impl.o
strncpy                                           /home/vboxuser/Desktop/topst/buildtools/gcc-linaro-7.2.1-2017.11-x86_64_arm-eabi/arm-eabi/libc/usr/lib/libc.a(lib_a-strncpy.o)
                                                  /home/vboxuser/Desktop/topst/buildtools/gcc-linaro-7.2.1-2017.11-x86_64_arm-eabi/arm-eabi/libc/usr/lib/libc.a(lib_a-svfiprintf.o)
                                                  /home/vboxuser/Desktop/topst/buildtools/gcc-linaro-7.2.1-2017.11-x86_64_arm-eabi/arm-eabi/libc/usr/lib/libc.a(lib_a-locale.o)
                                                  /home/vboxuser/Desktop/topst/buildtools/gcc-linaro-7.2.1-2017.11-x86_64_arm-eabi/arm-eabi/libc/usr/lib/libc.a(lib_a-svfprintf.o)
                                                  /home/vboxuser/Desktop/topst/cr5-bsp/sources/build/tcc805x/gcc/tcc805x-freertos-debug/obj/sal_freertos_impl.o
strnlen                                           /home/vboxuser/Desktop/topst/buildtools/gcc-linaro-7.2.1-2017.11-x86_64_arm-eabi/arm-eabi/libc/usr/lib/libc.a(lib_a-strnlen.o)
                                                  /home/vboxuser/Desktop/topst/cr5-bsp/sources/build/tcc805x/gcc/tcc805x-freertos-debug/obj/sal_freertos_impl.o
strtol                                            /home/vboxuser/Desktop/topst/buildtools/gcc-linaro-7.2.1-2017.11-x86_64_arm-eabi/arm-eabi/libc/usr/lib/libc.a(lib_a-strtol.o)
                                                  /home/vboxuser/Desktop/topst/buildtools/gcc-linaro-7.2.1-2017.11-x86_64_arm-eabi/arm-eabi/libc/usr/lib/libc.a(lib_a-locale.o)
                                                  /home/vboxuser/Desktop/topst/buildtools/gcc-linaro-7.2.1-2017.11-x86_64_arm-eabi/arm-eabi/libc/usr/lib/libc.a(lib_a-atol.o)
                                                  /home/vboxuser/Desktop/topst/buildtools/gcc-linaro-7.2.1-2017.11-x86_64_arm-eabi/arm-eabi/libc/usr/lib/libc.a(lib_a-atoi.o)
                                                  /home/vboxuser/Desktop/topst/cr5-bsp/sources/build/tcc805x/gcc/tcc805x-freertos-debug/obj/console.o
strtol_l                                          /home/vboxuser/Desktop/topst/buildtools/gcc-linaro-7.2.1-2017.11-x86_64_arm-eabi/arm-eabi/libc/usr/lib/libc.a(lib_a-strtol.o)
strtoul                                           /home/vboxuser/Desktop/topst/buildtools/gcc-linaro-7.2.1-2017.11-x86_64_arm-eabi/arm-eabi/libc/usr/lib/libc.a(lib_a-strtoul.o)
                                                  /home/vboxuser/Desktop/topst/cr5-bsp/sources/build/tcc805x/gcc/tcc805x-freertos-debug/obj/console.o
strtoul_l                                         /home/vboxuser/Desktop/topst/buildtools/gcc-linaro-7.2.1-2017.11-x86_64_arm-eabi/arm-eabi/libc/usr/lib/libc.a(lib_a-strtoul.o)
timer_on                                          /home/vboxuser/Desktop/topst/cr5-bsp/sources/build/tcc805x/gcc/tcc805x-freertos-debug/obj/timer_test.o
                                                  /home/vboxuser/Desktop/topst/cr5-bsp/sources/build/tcc805x/gcc/tcc805x-freertos-debug/obj/Motor_System.o
ucHeap                                            /home/vboxuser/Desktop/topst/cr5-bsp/sources/build/tcc805x/gcc/tcc805x-freertos-debug/obj/port.o
ulCriticalNesting                                 /home/vboxuser/Desktop/topst/cr5-bsp/sources/build/tcc805x/gcc/tcc805x-freertos-debug/obj/port.o
                                                  /home/vboxuser/Desktop/topst/cr5-bsp/sources/build/tcc805x/gcc/tcc805x-freertos-debug/obj/portASM.o
ulICCEOIR                                         /home/vboxuser/Desktop/topst/cr5-bsp/sources/build/tcc805x/gcc/tcc805x-freertos-debug/obj/port.o
                                                  /home/vboxuser/Desktop/topst/cr5-bsp/sources/build/tcc805x/gcc/tcc805x-freertos-debug/obj/portASM.o
ulICCIAR                                          /home/vboxuser/Desktop/topst/cr5-bsp/sources/build/tcc805x/gcc/tcc805x-freertos-debug/obj/port.o
                                                  /home/vboxuser/Desktop/topst/cr5-bsp/sources/build/tcc805x/gcc/tcc805x-freertos-debug/obj/portASM.o
ulICCPMR                                          /home/vboxuser/Desktop/topst/cr5-bsp/sources/build/tcc805x/gcc/tcc805x-freertos-debug/obj/port.o
                                                  /home/vboxuser/Desktop/topst/cr5-bsp/sources/build/tcc805x/gcc/tcc805x-freertos-debug/obj/portASM.o
ulMaxAPIPriorityMask                              /home/vboxuser/Desktop/topst/cr5-bsp/sources/build/tcc805x/gcc/tcc805x-freertos-debug/obj/port.o
                                                  /home/vboxuser/Desktop/topst/cr5-bsp/sources/build/tcc805x/gcc/tcc805x-freertos-debug/obj/portASM.o
ulPortInterruptNesting                            /home/vboxuser/Desktop/topst/cr5-bsp/sources/build/tcc805x/gcc/tcc805x-freertos-debug/obj/port.o
                                                  /home/vboxuser/Desktop/topst/cr5-bsp/sources/build/tcc805x/gcc/tcc805x-freertos-debug/obj/portASM.o
ulPortSetInterruptMask                            /home/vboxuser/Desktop/topst/cr5-bsp/sources/build/tcc805x/gcc/tcc805x-freertos-debug/obj/port.o
                                                  /home/vboxuser/Desktop/topst/cr5-bsp/sources/build/tcc805x/gcc/tcc805x-freertos-debug/obj/stream_buffer.o
                                                  /home/vboxuser/Desktop/topst/cr5-bsp/sources/build/tcc805x/gcc/tcc805x-freertos-debug/obj/event_groups.o
                                                  /home/vboxuser/Desktop/topst/cr5-bsp/sources/build/tcc805x/gcc/tcc805x-freertos-debug/obj/queue.o
                                                  /home/vboxuser/Desktop/topst/cr5-bsp/sources/build/tcc805x/gcc/tcc805x-freertos-debug/obj/tasks.o
ulPortTaskHasFPUContext                           /home/vboxuser/Desktop/topst/cr5-bsp/sources/build/tcc805x/gcc/tcc805x-freertos-debug/obj/port.o
                                                  /home/vboxuser/Desktop/topst/cr5-bsp/sources/build/tcc805x/gcc/tcc805x-freertos-debug/obj/portASM.o
ulPortYieldRequired                               /home/vboxuser/Desktop/topst/cr5-bsp/sources/build/tcc805x/gcc/tcc805x-freertos-debug/obj/port.o
                                                  /home/vboxuser/Desktop/topst/cr5-bsp/sources/build/tcc805x/gcc/tcc805x-freertos-debug/obj/portASM.o
                                                  /home/vboxuser/Desktop/topst/cr5-bsp/sources/build/tcc805x/gcc/tcc805x-freertos-debug/obj/sal_freertos_impl.o
ulTaskNotifyTake                                  /home/vboxuser/Desktop/topst/cr5-bsp/sources/build/tcc805x/gcc/tcc805x-freertos-debug/obj/tasks.o
ulTaskNotifyValueClear                            /home/vboxuser/Desktop/topst/cr5-bsp/sources/build/tcc805x/gcc/tcc805x-freertos-debug/obj/tasks.o
ultrasonic_read_distance                          /home/vboxuser/Desktop/topst/cr5-bsp/sources/build/tcc805x/gcc/tcc805x-freertos-debug/obj/Motor_System.o
uxListRemove                                      /home/vboxuser/Desktop/topst/cr5-bsp/sources/build/tcc805x/gcc/tcc805x-freertos-debug/obj/list.o
                                                  /home/vboxuser/Desktop/topst/cr5-bsp/sources/build/tcc805x/gcc/tcc805x-freertos-debug/obj/timers.o
                                                  /home/vboxuser/Desktop/topst/cr5-bsp/sources/build/tcc805x/gcc/tcc805x-freertos-debug/obj/tasks.o
uxQueueMessagesWaiting                            /home/vboxuser/Desktop/topst/cr5-bsp/sources/build/tcc805x/gcc/tcc805x-freertos-debug/obj/queue.o
uxQueueMessagesWaitingFromISR                     /home/vboxuser/Desktop/topst/cr5-bsp/sources/build/tcc805x/gcc/tcc805x-freertos-debug/obj/queue.o
uxQueueSpacesAvailable                            /home/vboxuser/Desktop/topst/cr5-bsp/sources/build/tcc805x/gcc/tcc805x-freertos-debug/obj/queue.o
uxTaskGetNumberOfTasks                            /home/vboxuser/Desktop/topst/cr5-bsp/sources/build/tcc805x/gcc/tcc805x-freertos-debug/obj/tasks.o
uxTaskPriorityGet                                 /home/vboxuser/Desktop/topst/cr5-bsp/sources/build/tcc805x/gcc/tcc805x-freertos-debug/obj/tasks.o
uxTaskPriorityGetFromISR                          /home/vboxuser/Desktop/topst/cr5-bsp/sources/build/tcc805x/gcc/tcc805x-freertos-debug/obj/tasks.o
uxTaskResetEventItemValue                         /home/vboxuser/Desktop/topst/cr5-bsp/sources/build/tcc805x/gcc/tcc805x-freertos-debug/obj/tasks.o
                                                  /home/vboxuser/Desktop/topst/cr5-bsp/sources/build/tcc805x/gcc/tcc805x-freertos-debug/obj/event_groups.o
uxTimerGetReloadMode                              /home/vboxuser/Desktop/topst/cr5-bsp/sources/build/tcc805x/gcc/tcc805x-freertos-debug/obj/timers.o
vApplicationFPUSafeIRQHandler                     /home/vboxuser/Desktop/topst/cr5-bsp/sources/build/tcc805x/gcc/tcc805x-freertos-debug/obj/port.o
                                                  /home/vboxuser/Desktop/topst/cr5-bsp/sources/build/tcc805x/gcc/tcc805x-freertos-debug/obj/portASM.o
vApplicationGetIdleTaskMemory                     /home/vboxuser/Desktop/topst/cr5-bsp/sources/build/tcc805x/gcc/tcc805x-freertos-debug/obj/port.o
                                                  /home/vboxuser/Desktop/topst/cr5-bsp/sources/build/tcc805x/gcc/tcc805x-freertos-debug/obj/tasks.o
vApplicationGetTimerTaskMemory                    /home/vboxuser/Desktop/topst/cr5-bsp/sources/build/tcc805x/gcc/tcc805x-freertos-debug/obj/port.o
                                                  /home/vboxuser/Desktop/topst/cr5-bsp/sources/build/tcc805x/gcc/tcc805x-freertos-debug/obj/timers.o
vApplicationIRQHandler                            /home/vboxuser/Desktop/topst/cr5-bsp/sources/build/tcc805x/gcc/tcc805x-freertos-debug/obj/portASM.o
vApplicationStackOverflowHook                     /home/vboxuser/Desktop/topst/cr5-bsp/sources/build/tcc805x/gcc/tcc805x-freertos-debug/obj/port.o
                                                  /home/vboxuser/Desktop/topst/cr5-bsp/sources/build/tcc805x/gcc/tcc805x-freertos-debug/obj/tasks.o
vClearTickInterrupt                               /home/vboxuser/Desktop/topst/cr5-bsp/sources/build/tcc805x/gcc/tcc805x-freertos-debug/obj/port.o
vConfigureTickInterrupt                           /home/vboxuser/Desktop/topst/cr5-bsp/sources/build/tcc805x/gcc/tcc805x-freertos-debug/obj/port.o
vEventGroupClearBitsCallback                      /home/vboxuser/Desktop/topst/cr5-bsp/sources/build/tcc805x/gcc/tcc805x-freertos-debug/obj/event_groups.o
                                                  /home/vboxuser/Desktop/topst/cr5-bsp/sources/build/tcc805x/gcc/tcc805x-freertos-debug/obj/sal_freertos_impl.o
vEventGroupDelete                                 /home/vboxuser/Desktop/topst/cr5-bsp/sources/build/tcc805x/gcc/tcc805x-freertos-debug/obj/event_groups.o
vEventGroupSetBitsCallback                        /home/vboxuser/Desktop/topst/cr5-bsp/sources/build/tcc805x/gcc/tcc805x-freertos-debug/obj/event_groups.o
                                                  /home/vboxuser/Desktop/topst/cr5-bsp/sources/build/tcc805x/gcc/tcc805x-freertos-debug/obj/sal_freertos_impl.o
vInitialiseTimerForRunTimeStats                   /home/vboxuser/Desktop/topst/cr5-bsp/sources/build/tcc805x/gcc/tcc805x-freertos-debug/obj/port.o
                                                  /home/vboxuser/Desktop/topst/cr5-bsp/sources/build/tcc805x/gcc/tcc805x-freertos-debug/obj/tasks.o
vListInitialise                                   /home/vboxuser/Desktop/topst/cr5-bsp/sources/build/tcc805x/gcc/tcc805x-freertos-debug/obj/list.o
                                                  /home/vboxuser/Desktop/topst/cr5-bsp/sources/build/tcc805x/gcc/tcc805x-freertos-debug/obj/timers.o
                                                  /home/vboxuser/Desktop/topst/cr5-bsp/sources/build/tcc805x/gcc/tcc805x-freertos-debug/obj/event_groups.o
                                                  /home/vboxuser/Desktop/topst/cr5-bsp/sources/build/tcc805x/gcc/tcc805x-freertos-debug/obj/queue.o
                                                  /home/vboxuser/Desktop/topst/cr5-bsp/sources/build/tcc805x/gcc/tcc805x-freertos-debug/obj/tasks.o
vListInitialiseItem                               /home/vboxuser/Desktop/topst/cr5-bsp/sources/build/tcc805x/gcc/tcc805x-freertos-debug/obj/list.o
                                                  /home/vboxuser/Desktop/topst/cr5-bsp/sources/build/tcc805x/gcc/tcc805x-freertos-debug/obj/timers.o
                                                  /home/vboxuser/Desktop/topst/cr5-bsp/sources/build/tcc805x/gcc/tcc805x-freertos-debug/obj/tasks.o
vListInsert                                       /home/vboxuser/Desktop/topst/cr5-bsp/sources/build/tcc805x/gcc/tcc805x-freertos-debug/obj/list.o
                                                  /home/vboxuser/Desktop/topst/cr5-bsp/sources/build/tcc805x/gcc/tcc805x-freertos-debug/obj/timers.o
                                                  /home/vboxuser/Desktop/topst/cr5-bsp/sources/build/tcc805x/gcc/tcc805x-freertos-debug/obj/tasks.o
vListInsertEnd                                    /home/vboxuser/Desktop/topst/cr5-bsp/sources/build/tcc805x/gcc/tcc805x-freertos-debug/obj/list.o
                                                  /home/vboxuser/Desktop/topst/cr5-bsp/sources/build/tcc805x/gcc/tcc805x-freertos-debug/obj/tasks.o
vPortClearInterruptMask                           /home/vboxuser/Desktop/topst/cr5-bsp/sources/build/tcc805x/gcc/tcc805x-freertos-debug/obj/port.o
                                                  /home/vboxuser/Desktop/topst/cr5-bsp/sources/build/tcc805x/gcc/tcc805x-freertos-debug/obj/stream_buffer.o
                                                  /home/vboxuser/Desktop/topst/cr5-bsp/sources/build/tcc805x/gcc/tcc805x-freertos-debug/obj/event_groups.o
                                                  /home/vboxuser/Desktop/topst/cr5-bsp/sources/build/tcc805x/gcc/tcc805x-freertos-debug/obj/queue.o
                                                  /home/vboxuser/Desktop/topst/cr5-bsp/sources/build/tcc805x/gcc/tcc805x-freertos-debug/obj/tasks.o
vPortDefineHeapRegions                            /home/vboxuser/Desktop/topst/cr5-bsp/sources/build/tcc805x/gcc/tcc805x-freertos-debug/obj/heap_5.o
                                                  /home/vboxuser/Desktop/topst/cr5-bsp/sources/build/tcc805x/gcc/tcc805x-freertos-debug/obj/port.o
vPortEndScheduler                                 /home/vboxuser/Desktop/topst/cr5-bsp/sources/build/tcc805x/gcc/tcc805x-freertos-debug/obj/port.o
                                                  /home/vboxuser/Desktop/topst/cr5-bsp/sources/build/tcc805x/gcc/tcc805x-freertos-debug/obj/tasks.o
vPortEnterCritical                                /home/vboxuser/Desktop/topst/cr5-bsp/sources/build/tcc805x/gcc/tcc805x-freertos-debug/obj/port.o
                                                  /home/vboxuser/Desktop/topst/cr5-bsp/sources/build/tcc805x/gcc/tcc805x-freertos-debug/obj/heap_5.o
                                                  /home/vboxuser/Desktop/topst/cr5-bsp/sources/build/tcc805x/gcc/tcc805x-freertos-debug/obj/stream_buffer.o
                                                  /home/vboxuser/Desktop/topst/cr5-bsp/sources/build/tcc805x/gcc/tcc805x-freertos-debug/obj/timers.o
                                                  /home/vboxuser/Desktop/topst/cr5-bsp/sources/build/tcc805x/gcc/tcc805x-freertos-debug/obj/event_groups.o
                                                  /home/vboxuser/Desktop/topst/cr5-bsp/sources/build/tcc805x/gcc/tcc805x-freertos-debug/obj/queue.o
                                                  /home/vboxuser/Desktop/topst/cr5-bsp/sources/build/tcc805x/gcc/tcc805x-freertos-debug/obj/tasks.o
vPortExitCritical                                 /home/vboxuser/Desktop/topst/cr5-bsp/sources/build/tcc805x/gcc/tcc805x-freertos-debug/obj/port.o
                                                  /home/vboxuser/Desktop/topst/cr5-bsp/sources/build/tcc805x/gcc/tcc805x-freertos-debug/obj/heap_5.o
                                                  /home/vboxuser/Desktop/topst/cr5-bsp/sources/build/tcc805x/gcc/tcc805x-freertos-debug/obj/stream_buffer.o
                                                  /home/vboxuser/Desktop/topst/cr5-bsp/sources/build/tcc805x/gcc/tcc805x-freertos-debug/obj/timers.o
                                                  /home/vboxuser/Desktop/topst/cr5-bsp/sources/build/tcc805x/gcc/tcc805x-freertos-debug/obj/event_groups.o
                                                  /home/vboxuser/Desktop/topst/cr5-bsp/sources/build/tcc805x/gcc/tcc805x-freertos-debug/obj/queue.o
                                                  /home/vboxuser/Desktop/topst/cr5-bsp/sources/build/tcc805x/gcc/tcc805x-freertos-debug/obj/tasks.o
vPortFree                                         /home/vboxuser/Desktop/topst/cr5-bsp/sources/build/tcc805x/gcc/tcc805x-freertos-debug/obj/heap_5.o
                                                  /home/vboxuser/Desktop/topst/cr5-bsp/sources/build/tcc805x/gcc/tcc805x-freertos-debug/obj/stream_buffer.o
                                                  /home/vboxuser/Desktop/topst/cr5-bsp/sources/build/tcc805x/gcc/tcc805x-freertos-debug/obj/timers.o
                                                  /home/vboxuser/Desktop/topst/cr5-bsp/sources/build/tcc805x/gcc/tcc805x-freertos-debug/obj/event_groups.o
                                                  /home/vboxuser/Desktop/topst/cr5-bsp/sources/build/tcc805x/gcc/tcc805x-freertos-debug/obj/queue.o
                                                  /home/vboxuser/Desktop/topst/cr5-bsp/sources/build/tcc805x/gcc/tcc805x-freertos-debug/obj/tasks.o
vPortGetHeapStats                                 /home/vboxuser/Desktop/topst/cr5-bsp/sources/build/tcc805x/gcc/tcc805x-freertos-debug/obj/heap_5.o
vPortRestoreTaskContext                           /home/vboxuser/Desktop/topst/cr5-bsp/sources/build/tcc805x/gcc/tcc805x-freertos-debug/obj/portASM.o
                                                  /home/vboxuser/Desktop/topst/cr5-bsp/sources/build/tcc805x/gcc/tcc805x-freertos-debug/obj/port.o
vPortTaskUsesFPU                                  /home/vboxuser/Desktop/topst/cr5-bsp/sources/build/tcc805x/gcc/tcc805x-freertos-debug/obj/port.o
vPortValidateInterruptPriority                    /home/vboxuser/Desktop/topst/cr5-bsp/sources/build/tcc805x/gcc/tcc805x-freertos-debug/obj/port.o
                                                  /home/vboxuser/Desktop/topst/cr5-bsp/sources/build/tcc805x/gcc/tcc805x-freertos-debug/obj/queue.o
                                                  /home/vboxuser/Desktop/topst/cr5-bsp/sources/build/tcc805x/gcc/tcc805x-freertos-debug/obj/tasks.o
vQueueAddToRegistry                               /home/vboxuser/Desktop/topst/cr5-bsp/sources/build/tcc805x/gcc/tcc805x-freertos-debug/obj/queue.o
                                                  /home/vboxuser/Desktop/topst/cr5-bsp/sources/build/tcc805x/gcc/tcc805x-freertos-debug/obj/timers.o
vQueueDelete                                      /home/vboxuser/Desktop/topst/cr5-bsp/sources/build/tcc805x/gcc/tcc805x-freertos-debug/obj/queue.o
vQueueUnregisterQueue                             /home/vboxuser/Desktop/topst/cr5-bsp/sources/build/tcc805x/gcc/tcc805x-freertos-debug/obj/queue.o
vQueueWaitForMessageRestricted                    /home/vboxuser/Desktop/topst/cr5-bsp/sources/build/tcc805x/gcc/tcc805x-freertos-debug/obj/queue.o
                                                  /home/vboxuser/Desktop/topst/cr5-bsp/sources/build/tcc805x/gcc/tcc805x-freertos-debug/obj/timers.o
vStreamBufferDelete                               /home/vboxuser/Desktop/topst/cr5-bsp/sources/build/tcc805x/gcc/tcc805x-freertos-debug/obj/stream_buffer.o
vTaskDelay                                        /home/vboxuser/Desktop/topst/cr5-bsp/sources/build/tcc805x/gcc/tcc805x-freertos-debug/obj/tasks.o
                                                  /home/vboxuser/Desktop/topst/cr5-bsp/sources/build/tcc805x/gcc/tcc805x-freertos-debug/obj/sal_freertos_impl.o
vTaskDelayUntil                                   /home/vboxuser/Desktop/topst/cr5-bsp/sources/build/tcc805x/gcc/tcc805x-freertos-debug/obj/tasks.o
vTaskDelete                                       /home/vboxuser/Desktop/topst/cr5-bsp/sources/build/tcc805x/gcc/tcc805x-freertos-debug/obj/tasks.o
vTaskEndScheduler                                 /home/vboxuser/Desktop/topst/cr5-bsp/sources/build/tcc805x/gcc/tcc805x-freertos-debug/obj/tasks.o
vTaskInternalSetTimeOutState                      /home/vboxuser/Desktop/topst/cr5-bsp/sources/build/tcc805x/gcc/tcc805x-freertos-debug/obj/tasks.o
                                                  /home/vboxuser/Desktop/topst/cr5-bsp/sources/build/tcc805x/gcc/tcc805x-freertos-debug/obj/queue.o
vTaskMissedYield                                  /home/vboxuser/Desktop/topst/cr5-bsp/sources/build/tcc805x/gcc/tcc805x-freertos-debug/obj/tasks.o
                                                  /home/vboxuser/Desktop/topst/cr5-bsp/sources/build/tcc805x/gcc/tcc805x-freertos-debug/obj/queue.o
vTaskNotifyGiveFromISR                            /home/vboxuser/Desktop/topst/cr5-bsp/sources/build/tcc805x/gcc/tcc805x-freertos-debug/obj/tasks.o
vTaskPlaceOnEventList                             /home/vboxuser/Desktop/topst/cr5-bsp/sources/build/tcc805x/gcc/tcc805x-freertos-debug/obj/tasks.o
                                                  /home/vboxuser/Desktop/topst/cr5-bsp/sources/build/tcc805x/gcc/tcc805x-freertos-debug/obj/queue.o
vTaskPlaceOnEventListRestricted                   /home/vboxuser/Desktop/topst/cr5-bsp/sources/build/tcc805x/gcc/tcc805x-freertos-debug/obj/tasks.o
                                                  /home/vboxuser/Desktop/topst/cr5-bsp/sources/build/tcc805x/gcc/tcc805x-freertos-debug/obj/queue.o
vTaskPlaceOnUnorderedEventList                    /home/vboxuser/Desktop/topst/cr5-bsp/sources/build/tcc805x/gcc/tcc805x-freertos-debug/obj/tasks.o
                                                  /home/vboxuser/Desktop/topst/cr5-bsp/sources/build/tcc805x/gcc/tcc805x-freertos-debug/obj/event_groups.o
vTaskPriorityDisinheritAfterTimeout               /home/vboxuser/Desktop/topst/cr5-bsp/sources/build/tcc805x/gcc/tcc805x-freertos-debug/obj/tasks.o
                                                  /home/vboxuser/Desktop/topst/cr5-bsp/sources/build/tcc805x/gcc/tcc805x-freertos-debug/obj/queue.o
vTaskPrioritySet                                  /home/vboxuser/Desktop/topst/cr5-bsp/sources/build/tcc805x/gcc/tcc805x-freertos-debug/obj/tasks.o
vTaskRemoveFromUnorderedEventList                 /home/vboxuser/Desktop/topst/cr5-bsp/sources/build/tcc805x/gcc/tcc805x-freertos-debug/obj/tasks.o
                                                  /home/vboxuser/Desktop/topst/cr5-bsp/sources/build/tcc805x/gcc/tcc805x-freertos-debug/obj/event_groups.o
vTaskResume                                       /home/vboxuser/Desktop/topst/cr5-bsp/sources/build/tcc805x/gcc/tcc805x-freertos-debug/obj/tasks.o
vTaskSetTimeOutState                              /home/vboxuser/Desktop/topst/cr5-bsp/sources/build/tcc805x/gcc/tcc805x-freertos-debug/obj/tasks.o
                                                  /home/vboxuser/Desktop/topst/cr5-bsp/sources/build/tcc805x/gcc/tcc805x-freertos-debug/obj/stream_buffer.o
vTaskStartScheduler                               /home/vboxuser/Desktop/topst/cr5-bsp/sources/build/tcc805x/gcc/tcc805x-freertos-debug/obj/tasks.o
                                                  /home/vboxuser/Desktop/topst/cr5-bsp/sources/build/tcc805x/gcc/tcc805x-freertos-debug/obj/sal_freertos_impl.o
vTaskSuspend                                      /home/vboxuser/Desktop/topst/cr5-bsp/sources/build/tcc805x/gcc/tcc805x-freertos-debug/obj/tasks.o
vTaskSuspendAll                                   /home/vboxuser/Desktop/topst/cr5-bsp/sources/build/tcc805x/gcc/tcc805x-freertos-debug/obj/tasks.o
                                                  /home/vboxuser/Desktop/topst/cr5-bsp/sources/build/tcc805x/gcc/tcc805x-freertos-debug/obj/heap_5.o
                                                  /home/vboxuser/Desktop/topst/cr5-bsp/sources/build/tcc805x/gcc/tcc805x-freertos-debug/obj/stream_buffer.o
                                                  /home/vboxuser/Desktop/topst/cr5-bsp/sources/build/tcc805x/gcc/tcc805x-freertos-debug/obj/timers.o
                                                  /home/vboxuser/Desktop/topst/cr5-bsp/sources/build/tcc805x/gcc/tcc805x-freertos-debug/obj/event_groups.o
                                                  /home/vboxuser/Desktop/topst/cr5-bsp/sources/build/tcc805x/gcc/tcc805x-freertos-debug/obj/queue.o
vTaskSwitchContext                                /home/vboxuser/Desktop/topst/cr5-bsp/sources/build/tcc805x/gcc/tcc805x-freertos-debug/obj/tasks.o
                                                  /home/vboxuser/Desktop/topst/cr5-bsp/sources/build/tcc805x/gcc/tcc805x-freertos-debug/obj/portASM.o
vTimerSetReloadMode                               /home/vboxuser/Desktop/topst/cr5-bsp/sources/build/tcc805x/gcc/tcc805x-freertos-debug/obj/timers.o
vTimerSetTimerID                                  /home/vboxuser/Desktop/topst/cr5-bsp/sources/build/tcc805x/gcc/tcc805x-freertos-debug/obj/timers.o
vfp_init                                          /home/vboxuser/Desktop/topst/cr5-bsp/sources/build/tcc805x/gcc/tcc805x-freertos-debug/obj/vfp_init.o
                                                  /home/vboxuser/Desktop/topst/cr5-bsp/sources/build/tcc805x/gcc/tcc805x-freertos-debug/obj/startup.o
wcrtomb                                           /home/vboxuser/Desktop/topst/buildtools/gcc-linaro-7.2.1-2017.11-x86_64_arm-eabi/arm-eabi/libc/usr/lib/libc.a(lib_a-wcrtomb.o)
wcsnrtombs                                        /home/vboxuser/Desktop/topst/buildtools/gcc-linaro-7.2.1-2017.11-x86_64_arm-eabi/arm-eabi/libc/usr/lib/libc.a(lib_a-wcsnrtombs.o)
wcsrtombs                                         /home/vboxuser/Desktop/topst/buildtools/gcc-linaro-7.2.1-2017.11-x86_64_arm-eabi/arm-eabi/libc/usr/lib/libc.a(lib_a-wcsrtombs.o)
xEventGroupClearBits                              /home/vboxuser/Desktop/topst/cr5-bsp/sources/build/tcc805x/gcc/tcc805x-freertos-debug/obj/event_groups.o
                                                  /home/vboxuser/Desktop/topst/cr5-bsp/sources/build/tcc805x/gcc/tcc805x-freertos-debug/obj/sal_freertos_impl.o
xEventGroupCreate                                 /home/vboxuser/Desktop/topst/cr5-bsp/sources/build/tcc805x/gcc/tcc805x-freertos-debug/obj/event_groups.o
xEventGroupCreateStatic                           /home/vboxuser/Desktop/topst/cr5-bsp/sources/build/tcc805x/gcc/tcc805x-freertos-debug/obj/event_groups.o
                                                  /home/vboxuser/Desktop/topst/cr5-bsp/sources/build/tcc805x/gcc/tcc805x-freertos-debug/obj/sal_freertos_impl.o
xEventGroupGetBitsFromISR                         /home/vboxuser/Desktop/topst/cr5-bsp/sources/build/tcc805x/gcc/tcc805x-freertos-debug/obj/event_groups.o
xEventGroupSetBits                                /home/vboxuser/Desktop/topst/cr5-bsp/sources/build/tcc805x/gcc/tcc805x-freertos-debug/obj/event_groups.o
                                                  /home/vboxuser/Desktop/topst/cr5-bsp/sources/build/tcc805x/gcc/tcc805x-freertos-debug/obj/sal_freertos_impl.o
xEventGroupSync                                   /home/vboxuser/Desktop/topst/cr5-bsp/sources/build/tcc805x/gcc/tcc805x-freertos-debug/obj/event_groups.o
xEventGroupWaitBits                               /home/vboxuser/Desktop/topst/cr5-bsp/sources/build/tcc805x/gcc/tcc805x-freertos-debug/obj/event_groups.o
                                                  /home/vboxuser/Desktop/topst/cr5-bsp/sources/build/tcc805x/gcc/tcc805x-freertos-debug/obj/sal_freertos_impl.o
xPortGetFreeHeapSize                              /home/vboxuser/Desktop/topst/cr5-bsp/sources/build/tcc805x/gcc/tcc805x-freertos-debug/obj/heap_5.o
xPortGetInterruptNestingCount                     /home/vboxuser/Desktop/topst/cr5-bsp/sources/build/tcc805x/gcc/tcc805x-freertos-debug/obj/port.o
                                                  /home/vboxuser/Desktop/topst/cr5-bsp/sources/build/tcc805x/gcc/tcc805x-freertos-debug/obj/sal_freertos_impl.o
xPortGetMinimumEverFreeHeapSize                   /home/vboxuser/Desktop/topst/cr5-bsp/sources/build/tcc805x/gcc/tcc805x-freertos-debug/obj/heap_5.o
xPortStartScheduler                               /home/vboxuser/Desktop/topst/cr5-bsp/sources/build/tcc805x/gcc/tcc805x-freertos-debug/obj/port.o
                                                  /home/vboxuser/Desktop/topst/cr5-bsp/sources/build/tcc805x/gcc/tcc805x-freertos-debug/obj/tasks.o
xQueueAddToSet                                    /home/vboxuser/Desktop/topst/cr5-bsp/sources/build/tcc805x/gcc/tcc805x-freertos-debug/obj/queue.o
xQueueCreateCountingSemaphore                     /home/vboxuser/Desktop/topst/cr5-bsp/sources/build/tcc805x/gcc/tcc805x-freertos-debug/obj/queue.o
xQueueCreateCountingSemaphoreStatic               /home/vboxuser/Desktop/topst/cr5-bsp/sources/build/tcc805x/gcc/tcc805x-freertos-debug/obj/queue.o
xQueueCreateMutex                                 /home/vboxuser/Desktop/topst/cr5-bsp/sources/build/tcc805x/gcc/tcc805x-freertos-debug/obj/queue.o
xQueueCreateMutexStatic                           /home/vboxuser/Desktop/topst/cr5-bsp/sources/build/tcc805x/gcc/tcc805x-freertos-debug/obj/queue.o
xQueueCreateSet                                   /home/vboxuser/Desktop/topst/cr5-bsp/sources/build/tcc805x/gcc/tcc805x-freertos-debug/obj/queue.o
xQueueGenericCreate                               /home/vboxuser/Desktop/topst/cr5-bsp/sources/build/tcc805x/gcc/tcc805x-freertos-debug/obj/queue.o
xQueueGenericCreateStatic                         /home/vboxuser/Desktop/topst/cr5-bsp/sources/build/tcc805x/gcc/tcc805x-freertos-debug/obj/queue.o
                                                  /home/vboxuser/Desktop/topst/cr5-bsp/sources/build/tcc805x/gcc/tcc805x-freertos-debug/obj/sal_freertos_impl.o
                                                  /home/vboxuser/Desktop/topst/cr5-bsp/sources/build/tcc805x/gcc/tcc805x-freertos-debug/obj/timers.o
xQueueGenericReset                                /home/vboxuser/Desktop/topst/cr5-bsp/sources/build/tcc805x/gcc/tcc805x-freertos-debug/obj/queue.o
xQueueGenericSend                                 /home/vboxuser/Desktop/topst/cr5-bsp/sources/build/tcc805x/gcc/tcc805x-freertos-debug/obj/queue.o
                                                  /home/vboxuser/Desktop/topst/cr5-bsp/sources/build/tcc805x/gcc/tcc805x-freertos-debug/obj/sal_freertos_impl.o
                                                  /home/vboxuser/Desktop/topst/cr5-bsp/sources/build/tcc805x/gcc/tcc805x-freertos-debug/obj/timers.o
xQueueGenericSendFromISR                          /home/vboxuser/Desktop/topst/cr5-bsp/sources/build/tcc805x/gcc/tcc805x-freertos-debug/obj/queue.o
                                                  /home/vboxuser/Desktop/topst/cr5-bsp/sources/build/tcc805x/gcc/tcc805x-freertos-debug/obj/sal_freertos_impl.o
                                                  /home/vboxuser/Desktop/topst/cr5-bsp/sources/build/tcc805x/gcc/tcc805x-freertos-debug/obj/timers.o
xQueueGetMutexHolder                              /home/vboxuser/Desktop/topst/cr5-bsp/sources/build/tcc805x/gcc/tcc805x-freertos-debug/obj/queue.o
xQueueGetMutexHolderFromISR                       /home/vboxuser/Desktop/topst/cr5-bsp/sources/build/tcc805x/gcc/tcc805x-freertos-debug/obj/queue.o
xQueueGiveFromISR                                 /home/vboxuser/Desktop/topst/cr5-bsp/sources/build/tcc805x/gcc/tcc805x-freertos-debug/obj/queue.o
                                                  /home/vboxuser/Desktop/topst/cr5-bsp/sources/build/tcc805x/gcc/tcc805x-freertos-debug/obj/sal_freertos_impl.o
xQueueGiveMutexRecursive                          /home/vboxuser/Desktop/topst/cr5-bsp/sources/build/tcc805x/gcc/tcc805x-freertos-debug/obj/queue.o
xQueueIsQueueEmptyFromISR                         /home/vboxuser/Desktop/topst/cr5-bsp/sources/build/tcc805x/gcc/tcc805x-freertos-debug/obj/queue.o
xQueueIsQueueFullFromISR                          /home/vboxuser/Desktop/topst/cr5-bsp/sources/build/tcc805x/gcc/tcc805x-freertos-debug/obj/queue.o
xQueuePeek                                        /home/vboxuser/Desktop/topst/cr5-bsp/sources/build/tcc805x/gcc/tcc805x-freertos-debug/obj/queue.o
xQueuePeekFromISR                                 /home/vboxuser/Desktop/topst/cr5-bsp/sources/build/tcc805x/gcc/tcc805x-freertos-debug/obj/queue.o
xQueueReceive                                     /home/vboxuser/Desktop/topst/cr5-bsp/sources/build/tcc805x/gcc/tcc805x-freertos-debug/obj/queue.o
                                                  /home/vboxuser/Desktop/topst/cr5-bsp/sources/build/tcc805x/gcc/tcc805x-freertos-debug/obj/sal_freertos_impl.o
                                                  /home/vboxuser/Desktop/topst/cr5-bsp/sources/build/tcc805x/gcc/tcc805x-freertos-debug/obj/timers.o
xQueueReceiveFromISR                              /home/vboxuser/Desktop/topst/cr5-bsp/sources/build/tcc805x/gcc/tcc805x-freertos-debug/obj/queue.o
                                                  /home/vboxuser/Desktop/topst/cr5-bsp/sources/build/tcc805x/gcc/tcc805x-freertos-debug/obj/sal_freertos_impl.o
xQueueRegistry                                    /home/vboxuser/Desktop/topst/cr5-bsp/sources/build/tcc805x/gcc/tcc805x-freertos-debug/obj/queue.o
xQueueRemoveFromSet                               /home/vboxuser/Desktop/topst/cr5-bsp/sources/build/tcc805x/gcc/tcc805x-freertos-debug/obj/queue.o
xQueueSelectFromSet                               /home/vboxuser/Desktop/topst/cr5-bsp/sources/build/tcc805x/gcc/tcc805x-freertos-debug/obj/queue.o
xQueueSelectFromSetFromISR                        /home/vboxuser/Desktop/topst/cr5-bsp/sources/build/tcc805x/gcc/tcc805x-freertos-debug/obj/queue.o
xQueueSemaphoreTake                               /home/vboxuser/Desktop/topst/cr5-bsp/sources/build/tcc805x/gcc/tcc805x-freertos-debug/obj/queue.o
                                                  /home/vboxuser/Desktop/topst/cr5-bsp/sources/build/tcc805x/gcc/tcc805x-freertos-debug/obj/sal_freertos_impl.o
xQueueTakeMutexRecursive                          /home/vboxuser/Desktop/topst/cr5-bsp/sources/build/tcc805x/gcc/tcc805x-freertos-debug/obj/queue.o
xStreamBufferBytesAvailable                       /home/vboxuser/Desktop/topst/cr5-bsp/sources/build/tcc805x/gcc/tcc805x-freertos-debug/obj/stream_buffer.o
xStreamBufferGenericCreate                        /home/vboxuser/Desktop/topst/cr5-bsp/sources/build/tcc805x/gcc/tcc805x-freertos-debug/obj/stream_buffer.o
xStreamBufferGenericCreateStatic                  /home/vboxuser/Desktop/topst/cr5-bsp/sources/build/tcc805x/gcc/tcc805x-freertos-debug/obj/stream_buffer.o
xStreamBufferIsEmpty                              /home/vboxuser/Desktop/topst/cr5-bsp/sources/build/tcc805x/gcc/tcc805x-freertos-debug/obj/stream_buffer.o
xStreamBufferIsFull                               /home/vboxuser/Desktop/topst/cr5-bsp/sources/build/tcc805x/gcc/tcc805x-freertos-debug/obj/stream_buffer.o
xStreamBufferNextMessageLengthBytes               /home/vboxuser/Desktop/topst/cr5-bsp/sources/build/tcc805x/gcc/tcc805x-freertos-debug/obj/stream_buffer.o
xStreamBufferReceive                              /home/vboxuser/Desktop/topst/cr5-bsp/sources/build/tcc805x/gcc/tcc805x-freertos-debug/obj/stream_buffer.o
xStreamBufferReceiveCompletedFromISR              /home/vboxuser/Desktop/topst/cr5-bsp/sources/build/tcc805x/gcc/tcc805x-freertos-debug/obj/stream_buffer.o
xStreamBufferReceiveFromISR                       /home/vboxuser/Desktop/topst/cr5-bsp/sources/build/tcc805x/gcc/tcc805x-freertos-debug/obj/stream_buffer.o
xStreamBufferReset                                /home/vboxuser/Desktop/topst/cr5-bsp/sources/build/tcc805x/gcc/tcc805x-freertos-debug/obj/stream_buffer.o
xStreamBufferSend                                 /home/vboxuser/Desktop/topst/cr5-bsp/sources/build/tcc805x/gcc/tcc805x-freertos-debug/obj/stream_buffer.o
xStreamBufferSendCompletedFromISR                 /home/vboxuser/Desktop/topst/cr5-bsp/sources/build/tcc805x/gcc/tcc805x-freertos-debug/obj/stream_buffer.o
xStreamBufferSendFromISR                          /home/vboxuser/Desktop/topst/cr5-bsp/sources/build/tcc805x/gcc/tcc805x-freertos-debug/obj/stream_buffer.o
xStreamBufferSetTriggerLevel                      /home/vboxuser/Desktop/topst/cr5-bsp/sources/build/tcc805x/gcc/tcc805x-freertos-debug/obj/stream_buffer.o
xStreamBufferSpacesAvailable                      /home/vboxuser/Desktop/topst/cr5-bsp/sources/build/tcc805x/gcc/tcc805x-freertos-debug/obj/stream_buffer.o
xTaskAbortDelay                                   /home/vboxuser/Desktop/topst/cr5-bsp/sources/build/tcc805x/gcc/tcc805x-freertos-debug/obj/tasks.o
xTaskCatchUpTicks                                 /home/vboxuser/Desktop/topst/cr5-bsp/sources/build/tcc805x/gcc/tcc805x-freertos-debug/obj/tasks.o
xTaskCheckForTimeOut                              /home/vboxuser/Desktop/topst/cr5-bsp/sources/build/tcc805x/gcc/tcc805x-freertos-debug/obj/tasks.o
                                                  /home/vboxuser/Desktop/topst/cr5-bsp/sources/build/tcc805x/gcc/tcc805x-freertos-debug/obj/stream_buffer.o
                                                  /home/vboxuser/Desktop/topst/cr5-bsp/sources/build/tcc805x/gcc/tcc805x-freertos-debug/obj/queue.o
xTaskCreate                                       /home/vboxuser/Desktop/topst/cr5-bsp/sources/build/tcc805x/gcc/tcc805x-freertos-debug/obj/tasks.o
xTaskCreateStatic                                 /home/vboxuser/Desktop/topst/cr5-bsp/sources/build/tcc805x/gcc/tcc805x-freertos-debug/obj/tasks.o
                                                  /home/vboxuser/Desktop/topst/cr5-bsp/sources/build/tcc805x/gcc/tcc805x-freertos-debug/obj/sal_freertos_impl.o
                                                  /home/vboxuser/Desktop/topst/cr5-bsp/sources/build/tcc805x/gcc/tcc805x-freertos-debug/obj/timers.o
xTaskGenericNotify                                /home/vboxuser/Desktop/topst/cr5-bsp/sources/build/tcc805x/gcc/tcc805x-freertos-debug/obj/tasks.o
                                                  /home/vboxuser/Desktop/topst/cr5-bsp/sources/build/tcc805x/gcc/tcc805x-freertos-debug/obj/stream_buffer.o
xTaskGenericNotifyFromISR                         /home/vboxuser/Desktop/topst/cr5-bsp/sources/build/tcc805x/gcc/tcc805x-freertos-debug/obj/tasks.o
                                                  /home/vboxuser/Desktop/topst/cr5-bsp/sources/build/tcc805x/gcc/tcc805x-freertos-debug/obj/stream_buffer.o
xTaskGetCurrentTaskHandle                         /home/vboxuser/Desktop/topst/cr5-bsp/sources/build/tcc805x/gcc/tcc805x-freertos-debug/obj/tasks.o
                                                  /home/vboxuser/Desktop/topst/cr5-bsp/sources/build/tcc805x/gcc/tcc805x-freertos-debug/obj/stream_buffer.o
                                                  /home/vboxuser/Desktop/topst/cr5-bsp/sources/build/tcc805x/gcc/tcc805x-freertos-debug/obj/queue.o
xTaskGetHandle                                    /home/vboxuser/Desktop/topst/cr5-bsp/sources/build/tcc805x/gcc/tcc805x-freertos-debug/obj/tasks.o
xTaskGetSchedulerState                            /home/vboxuser/Desktop/topst/cr5-bsp/sources/build/tcc805x/gcc/tcc805x-freertos-debug/obj/tasks.o
                                                  /home/vboxuser/Desktop/topst/cr5-bsp/sources/build/tcc805x/gcc/tcc805x-freertos-debug/obj/timers.o
                                                  /home/vboxuser/Desktop/topst/cr5-bsp/sources/build/tcc805x/gcc/tcc805x-freertos-debug/obj/event_groups.o
                                                  /home/vboxuser/Desktop/topst/cr5-bsp/sources/build/tcc805x/gcc/tcc805x-freertos-debug/obj/queue.o
xTaskGetTickCount                                 /home/vboxuser/Desktop/topst/cr5-bsp/sources/build/tcc805x/gcc/tcc805x-freertos-debug/obj/tasks.o
                                                  /home/vboxuser/Desktop/topst/cr5-bsp/sources/build/tcc805x/gcc/tcc805x-freertos-debug/obj/sal_freertos_impl.o
                                                  /home/vboxuser/Desktop/topst/cr5-bsp/sources/build/tcc805x/gcc/tcc805x-freertos-debug/obj/timers.o
xTaskGetTickCountFromISR                          /home/vboxuser/Desktop/topst/cr5-bsp/sources/build/tcc805x/gcc/tcc805x-freertos-debug/obj/tasks.o
                                                  /home/vboxuser/Desktop/topst/cr5-bsp/sources/build/tcc805x/gcc/tcc805x-freertos-debug/obj/sal_freertos_impl.o
xTaskIncrementTick                                /home/vboxuser/Desktop/topst/cr5-bsp/sources/build/tcc805x/gcc/tcc805x-freertos-debug/obj/tasks.o
                                                  /home/vboxuser/Desktop/topst/cr5-bsp/sources/build/tcc805x/gcc/tcc805x-freertos-debug/obj/port.o
xTaskNotifyStateClear                             /home/vboxuser/Desktop/topst/cr5-bsp/sources/build/tcc805x/gcc/tcc805x-freertos-debug/obj/tasks.o
                                                  /home/vboxuser/Desktop/topst/cr5-bsp/sources/build/tcc805x/gcc/tcc805x-freertos-debug/obj/stream_buffer.o
xTaskNotifyWait                                   /home/vboxuser/Desktop/topst/cr5-bsp/sources/build/tcc805x/gcc/tcc805x-freertos-debug/obj/tasks.o
                                                  /home/vboxuser/Desktop/topst/cr5-bsp/sources/build/tcc805x/gcc/tcc805x-freertos-debug/obj/stream_buffer.o
xTaskPriorityDisinherit                           /home/vboxuser/Desktop/topst/cr5-bsp/sources/build/tcc805x/gcc/tcc805x-freertos-debug/obj/tasks.o
                                                  /home/vboxuser/Desktop/topst/cr5-bsp/sources/build/tcc805x/gcc/tcc805x-freertos-debug/obj/queue.o
xTaskPriorityInherit                              /home/vboxuser/Desktop/topst/cr5-bsp/sources/build/tcc805x/gcc/tcc805x-freertos-debug/obj/tasks.o
                                                  /home/vboxuser/Desktop/topst/cr5-bsp/sources/build/tcc805x/gcc/tcc805x-freertos-debug/obj/queue.o
xTaskRemoveFromEventList                          /home/vboxuser/Desktop/topst/cr5-bsp/sources/build/tcc805x/gcc/tcc805x-freertos-debug/obj/tasks.o
                                                  /home/vboxuser/Desktop/topst/cr5-bsp/sources/build/tcc805x/gcc/tcc805x-freertos-debug/obj/queue.o
xTaskResumeAll                                    /home/vboxuser/Desktop/topst/cr5-bsp/sources/build/tcc805x/gcc/tcc805x-freertos-debug/obj/tasks.o
                                                  /home/vboxuser/Desktop/topst/cr5-bsp/sources/build/tcc805x/gcc/tcc805x-freertos-debug/obj/heap_5.o
                                                  /home/vboxuser/Desktop/topst/cr5-bsp/sources/build/tcc805x/gcc/tcc805x-freertos-debug/obj/stream_buffer.o
                                                  /home/vboxuser/Desktop/topst/cr5-bsp/sources/build/tcc805x/gcc/tcc805x-freertos-debug/obj/timers.o
                                                  /home/vboxuser/Desktop/topst/cr5-bsp/sources/build/tcc805x/gcc/tcc805x-freertos-debug/obj/event_groups.o
                                                  /home/vboxuser/Desktop/topst/cr5-bsp/sources/build/tcc805x/gcc/tcc805x-freertos-debug/obj/queue.o
xTaskResumeFromISR                                /home/vboxuser/Desktop/topst/cr5-bsp/sources/build/tcc805x/gcc/tcc805x-freertos-debug/obj/tasks.o
xTimerCreate                                      /home/vboxuser/Desktop/topst/cr5-bsp/sources/build/tcc805x/gcc/tcc805x-freertos-debug/obj/timers.o
xTimerCreateStatic                                /home/vboxuser/Desktop/topst/cr5-bsp/sources/build/tcc805x/gcc/tcc805x-freertos-debug/obj/timers.o
xTimerCreateTimerTask                             /home/vboxuser/Desktop/topst/cr5-bsp/sources/build/tcc805x/gcc/tcc805x-freertos-debug/obj/timers.o
                                                  /home/vboxuser/Desktop/topst/cr5-bsp/sources/build/tcc805x/gcc/tcc805x-freertos-debug/obj/tasks.o
xTimerGenericCommand                              /home/vboxuser/Desktop/topst/cr5-bsp/sources/build/tcc805x/gcc/tcc805x-freertos-debug/obj/timers.o
xTimerGetExpiryTime                               /home/vboxuser/Desktop/topst/cr5-bsp/sources/build/tcc805x/gcc/tcc805x-freertos-debug/obj/timers.o
xTimerGetPeriod                                   /home/vboxuser/Desktop/topst/cr5-bsp/sources/build/tcc805x/gcc/tcc805x-freertos-debug/obj/timers.o
xTimerGetTimerDaemonTaskHandle                    /home/vboxuser/Desktop/topst/cr5-bsp/sources/build/tcc805x/gcc/tcc805x-freertos-debug/obj/timers.o
xTimerIsTimerActive                               /home/vboxuser/Desktop/topst/cr5-bsp/sources/build/tcc805x/gcc/tcc805x-freertos-debug/obj/timers.o
xTimerPendFunctionCall                            /home/vboxuser/Desktop/topst/cr5-bsp/sources/build/tcc805x/gcc/tcc805x-freertos-debug/obj/timers.o
xTimerPendFunctionCallFromISR                     /home/vboxuser/Desktop/topst/cr5-bsp/sources/build/tcc805x/gcc/tcc805x-freertos-debug/obj/timers.o
                                                  /home/vboxuser/Desktop/topst/cr5-bsp/sources/build/tcc805x/gcc/tcc805x-freertos-debug/obj/sal_freertos_impl.o
