Archive member included to satisfy reference by file (symbol)

/home/vboxuser/topst/buildtools/gcc-linaro-7.2.1-2017.11-x86_64_arm-eabi/arm-eabi/libc/usr/lib/libc.a(lib_a-atoi.o)
                              /home/vboxuser/topst/cr5-bsp/sources/build/tcc805x/gcc/tcc805x-freertos-debug/obj/console.o (atoi)
/home/vboxuser/topst/buildtools/gcc-linaro-7.2.1-2017.11-x86_64_arm-eabi/arm-eabi/libc/usr/lib/libc.a(lib_a-atol.o)
                              /home/vboxuser/topst/cr5-bsp/sources/build/tcc805x/gcc/tcc805x-freertos-debug/obj/hsm_test.o (atol)
/home/vboxuser/topst/buildtools/gcc-linaro-7.2.1-2017.11-x86_64_arm-eabi/arm-eabi/libc/usr/lib/libc.a(lib_a-memcmp.o)
                              /home/vboxuser/topst/cr5-bsp/sources/build/tcc805x/gcc/tcc805x-freertos-debug/obj/sal_freertos_impl.o (memcmp)
/home/vboxuser/topst/buildtools/gcc-linaro-7.2.1-2017.11-x86_64_arm-eabi/arm-eabi/libc/usr/lib/libc.a(lib_a-memcpy-stub.o)
                              /home/vboxuser/topst/cr5-bsp/sources/build/tcc805x/gcc/tcc805x-freertos-debug/obj/dse_test.o (memcpy)
/home/vboxuser/topst/buildtools/gcc-linaro-7.2.1-2017.11-x86_64_arm-eabi/arm-eabi/libc/usr/lib/libc.a(lib_a-memset.o)
                              /home/vboxuser/topst/cr5-bsp/sources/build/tcc805x/gcc/tcc805x-freertos-debug/obj/console.o (memset)
/home/vboxuser/topst/buildtools/gcc-linaro-7.2.1-2017.11-x86_64_arm-eabi/arm-eabi/libc/usr/lib/libc.a(lib_a-snprintf.o)
                              /home/vboxuser/topst/cr5-bsp/sources/build/tcc805x/gcc/tcc805x-freertos-debug/obj/hap.o (snprintf)
/home/vboxuser/topst/buildtools/gcc-linaro-7.2.1-2017.11-x86_64_arm-eabi/arm-eabi/libc/usr/lib/libc.a(lib_a-strlen-stub.o)
                              /home/vboxuser/topst/cr5-bsp/sources/build/tcc805x/gcc/tcc805x-freertos-debug/obj/hap.o (strlen)
/home/vboxuser/topst/buildtools/gcc-linaro-7.2.1-2017.11-x86_64_arm-eabi/arm-eabi/libc/usr/lib/libc.a(lib_a-strncmp.o)
                              /home/vboxuser/topst/cr5-bsp/sources/build/tcc805x/gcc/tcc805x-freertos-debug/obj/sal_freertos_impl.o (strncmp)
/home/vboxuser/topst/buildtools/gcc-linaro-7.2.1-2017.11-x86_64_arm-eabi/arm-eabi/libc/usr/lib/libc.a(lib_a-strncpy.o)
                              /home/vboxuser/topst/cr5-bsp/sources/build/tcc805x/gcc/tcc805x-freertos-debug/obj/sal_freertos_impl.o (strncpy)
/home/vboxuser/topst/buildtools/gcc-linaro-7.2.1-2017.11-x86_64_arm-eabi/arm-eabi/libc/usr/lib/libc.a(lib_a-strnlen.o)
                              /home/vboxuser/topst/cr5-bsp/sources/build/tcc805x/gcc/tcc805x-freertos-debug/obj/sal_freertos_impl.o (strnlen)
/home/vboxuser/topst/buildtools/gcc-linaro-7.2.1-2017.11-x86_64_arm-eabi/arm-eabi/libc/usr/lib/libc.a(lib_a-strtol.o)
                              /home/vboxuser/topst/buildtools/gcc-linaro-7.2.1-2017.11-x86_64_arm-eabi/arm-eabi/libc/usr/lib/libc.a(lib_a-atoi.o) (_strtol_r)
/home/vboxuser/topst/buildtools/gcc-linaro-7.2.1-2017.11-x86_64_arm-eabi/arm-eabi/libc/usr/lib/libc.a(lib_a-strtoul.o)
                              /home/vboxuser/topst/cr5-bsp/sources/build/tcc805x/gcc/tcc805x-freertos-debug/obj/console.o (strtoul)
/home/vboxuser/topst/buildtools/gcc-linaro-7.2.1-2017.11-x86_64_arm-eabi/arm-eabi/libc/usr/lib/libc.a(lib_a-svfprintf.o)
                              /home/vboxuser/topst/buildtools/gcc-linaro-7.2.1-2017.11-x86_64_arm-eabi/arm-eabi/libc/usr/lib/libc.a(lib_a-snprintf.o) (_svfprintf_r)
/home/vboxuser/topst/buildtools/gcc-linaro-7.2.1-2017.11-x86_64_arm-eabi/arm-eabi/libc/usr/lib/libc.a(lib_a-wcrtomb.o)
                              /home/vboxuser/topst/buildtools/gcc-linaro-7.2.1-2017.11-x86_64_arm-eabi/arm-eabi/libc/usr/lib/libc.a(lib_a-svfprintf.o) (_wcrtomb_r)
/home/vboxuser/topst/buildtools/gcc-linaro-7.2.1-2017.11-x86_64_arm-eabi/arm-eabi/libc/usr/lib/libc.a(lib_a-wcsrtombs.o)
                              /home/vboxuser/topst/buildtools/gcc-linaro-7.2.1-2017.11-x86_64_arm-eabi/arm-eabi/libc/usr/lib/libc.a(lib_a-svfprintf.o) (_wcsrtombs_r)
/home/vboxuser/topst/buildtools/gcc-linaro-7.2.1-2017.11-x86_64_arm-eabi/arm-eabi/libc/usr/lib/libc.a(lib_a-dtoa.o)
                              /home/vboxuser/topst/buildtools/gcc-linaro-7.2.1-2017.11-x86_64_arm-eabi/arm-eabi/libc/usr/lib/libc.a(lib_a-svfprintf.o) (_dtoa_r)
/home/vboxuser/topst/buildtools/gcc-linaro-7.2.1-2017.11-x86_64_arm-eabi/arm-eabi/libc/usr/lib/libc.a(lib_a-freer.o)
                              /home/vboxuser/topst/buildtools/gcc-linaro-7.2.1-2017.11-x86_64_arm-eabi/arm-eabi/libc/usr/lib/libc.a(lib_a-svfprintf.o) (_free_r)
/home/vboxuser/topst/buildtools/gcc-linaro-7.2.1-2017.11-x86_64_arm-eabi/arm-eabi/libc/usr/lib/libc.a(lib_a-impure.o)
                              /home/vboxuser/topst/buildtools/gcc-linaro-7.2.1-2017.11-x86_64_arm-eabi/arm-eabi/libc/usr/lib/libc.a(lib_a-snprintf.o) (_impure_ptr)
/home/vboxuser/topst/buildtools/gcc-linaro-7.2.1-2017.11-x86_64_arm-eabi/arm-eabi/libc/usr/lib/libc.a(lib_a-locale.o)
                              /home/vboxuser/topst/buildtools/gcc-linaro-7.2.1-2017.11-x86_64_arm-eabi/arm-eabi/libc/usr/lib/libc.a(lib_a-svfprintf.o) (__locale_mb_cur_max)
/home/vboxuser/topst/buildtools/gcc-linaro-7.2.1-2017.11-x86_64_arm-eabi/arm-eabi/libc/usr/lib/libc.a(lib_a-localeconv.o)
                              /home/vboxuser/topst/buildtools/gcc-linaro-7.2.1-2017.11-x86_64_arm-eabi/arm-eabi/libc/usr/lib/libc.a(lib_a-svfprintf.o) (_localeconv_r)
/home/vboxuser/topst/buildtools/gcc-linaro-7.2.1-2017.11-x86_64_arm-eabi/arm-eabi/libc/usr/lib/libc.a(lib_a-mallocr.o)
                              /home/vboxuser/topst/buildtools/gcc-linaro-7.2.1-2017.11-x86_64_arm-eabi/arm-eabi/libc/usr/lib/libc.a(lib_a-svfprintf.o) (_malloc_r)
/home/vboxuser/topst/buildtools/gcc-linaro-7.2.1-2017.11-x86_64_arm-eabi/arm-eabi/libc/usr/lib/libc.a(lib_a-mbtowc_r.o)
                              /home/vboxuser/topst/buildtools/gcc-linaro-7.2.1-2017.11-x86_64_arm-eabi/arm-eabi/libc/usr/lib/libc.a(lib_a-locale.o) (__ascii_mbtowc)
/home/vboxuser/topst/buildtools/gcc-linaro-7.2.1-2017.11-x86_64_arm-eabi/arm-eabi/libc/usr/lib/libc.a(lib_a-memchr-stub.o)
                              /home/vboxuser/topst/buildtools/gcc-linaro-7.2.1-2017.11-x86_64_arm-eabi/arm-eabi/libc/usr/lib/libc.a(lib_a-svfprintf.o) (memchr)
/home/vboxuser/topst/buildtools/gcc-linaro-7.2.1-2017.11-x86_64_arm-eabi/arm-eabi/libc/usr/lib/libc.a(lib_a-mlock.o)
                              /home/vboxuser/topst/buildtools/gcc-linaro-7.2.1-2017.11-x86_64_arm-eabi/arm-eabi/libc/usr/lib/libc.a(lib_a-freer.o) (__malloc_lock)
/home/vboxuser/topst/buildtools/gcc-linaro-7.2.1-2017.11-x86_64_arm-eabi/arm-eabi/libc/usr/lib/libc.a(lib_a-mprec.o)
                              /home/vboxuser/topst/buildtools/gcc-linaro-7.2.1-2017.11-x86_64_arm-eabi/arm-eabi/libc/usr/lib/libc.a(lib_a-dtoa.o) (_Balloc)
/home/vboxuser/topst/buildtools/gcc-linaro-7.2.1-2017.11-x86_64_arm-eabi/arm-eabi/libc/usr/lib/libc.a(lib_a-s_frexp.o)
                              /home/vboxuser/topst/buildtools/gcc-linaro-7.2.1-2017.11-x86_64_arm-eabi/arm-eabi/libc/usr/lib/libc.a(lib_a-svfprintf.o) (frexp)
/home/vboxuser/topst/buildtools/gcc-linaro-7.2.1-2017.11-x86_64_arm-eabi/arm-eabi/libc/usr/lib/libc.a(lib_a-sbrkr.o)
                              /home/vboxuser/topst/buildtools/gcc-linaro-7.2.1-2017.11-x86_64_arm-eabi/arm-eabi/libc/usr/lib/libc.a(lib_a-freer.o) (_sbrk_r)
/home/vboxuser/topst/buildtools/gcc-linaro-7.2.1-2017.11-x86_64_arm-eabi/arm-eabi/libc/usr/lib/libc.a(lib_a-strcasecmp.o)
                              /home/vboxuser/topst/buildtools/gcc-linaro-7.2.1-2017.11-x86_64_arm-eabi/arm-eabi/libc/usr/lib/libc.a(lib_a-locale.o) (strcasecmp)
/home/vboxuser/topst/buildtools/gcc-linaro-7.2.1-2017.11-x86_64_arm-eabi/arm-eabi/libc/usr/lib/libc.a(lib_a-strcat.o)
                              /home/vboxuser/topst/buildtools/gcc-linaro-7.2.1-2017.11-x86_64_arm-eabi/arm-eabi/libc/usr/lib/libc.a(lib_a-locale.o) (strcat)
/home/vboxuser/topst/buildtools/gcc-linaro-7.2.1-2017.11-x86_64_arm-eabi/arm-eabi/libc/usr/lib/libc.a(lib_a-strchr.o)
                              /home/vboxuser/topst/buildtools/gcc-linaro-7.2.1-2017.11-x86_64_arm-eabi/arm-eabi/libc/usr/lib/libc.a(lib_a-locale.o) (strchr)
/home/vboxuser/topst/buildtools/gcc-linaro-7.2.1-2017.11-x86_64_arm-eabi/arm-eabi/libc/usr/lib/libc.a(lib_a-strcmp.o)
                              /home/vboxuser/topst/buildtools/gcc-linaro-7.2.1-2017.11-x86_64_arm-eabi/arm-eabi/libc/usr/lib/libc.a(lib_a-locale.o) (strcmp)
/home/vboxuser/topst/buildtools/gcc-linaro-7.2.1-2017.11-x86_64_arm-eabi/arm-eabi/libc/usr/lib/libc.a(lib_a-strcpy.o)
                              /home/vboxuser/topst/buildtools/gcc-linaro-7.2.1-2017.11-x86_64_arm-eabi/arm-eabi/libc/usr/lib/libc.a(lib_a-locale.o) (strcpy)
/home/vboxuser/topst/buildtools/gcc-linaro-7.2.1-2017.11-x86_64_arm-eabi/arm-eabi/libc/usr/lib/libc.a(lib_a-strlcpy.o)
                              /home/vboxuser/topst/buildtools/gcc-linaro-7.2.1-2017.11-x86_64_arm-eabi/arm-eabi/libc/usr/lib/libc.a(lib_a-locale.o) (strlcpy)
/home/vboxuser/topst/buildtools/gcc-linaro-7.2.1-2017.11-x86_64_arm-eabi/arm-eabi/libc/usr/lib/libc.a(lib_a-strncasecmp.o)
                              /home/vboxuser/topst/buildtools/gcc-linaro-7.2.1-2017.11-x86_64_arm-eabi/arm-eabi/libc/usr/lib/libc.a(lib_a-locale.o) (strncasecmp)
/home/vboxuser/topst/buildtools/gcc-linaro-7.2.1-2017.11-x86_64_arm-eabi/arm-eabi/libc/usr/lib/libc.a(lib_a-svfiprintf.o)
                              /home/vboxuser/topst/buildtools/gcc-linaro-7.2.1-2017.11-x86_64_arm-eabi/arm-eabi/libc/usr/lib/libc.a(lib_a-svfprintf.o) (__ssprint_r)
/home/vboxuser/topst/buildtools/gcc-linaro-7.2.1-2017.11-x86_64_arm-eabi/arm-eabi/libc/usr/lib/libc.a(lib_a-syscalls.o)
                              /home/vboxuser/topst/buildtools/gcc-linaro-7.2.1-2017.11-x86_64_arm-eabi/arm-eabi/libc/usr/lib/libc.a(lib_a-sbrkr.o) (_sbrk)
/home/vboxuser/topst/buildtools/gcc-linaro-7.2.1-2017.11-x86_64_arm-eabi/arm-eabi/libc/usr/lib/libc.a(lib_a-wcsnrtombs.o)
                              /home/vboxuser/topst/buildtools/gcc-linaro-7.2.1-2017.11-x86_64_arm-eabi/arm-eabi/libc/usr/lib/libc.a(lib_a-wcsrtombs.o) (_wcsnrtombs_r)
/home/vboxuser/topst/buildtools/gcc-linaro-7.2.1-2017.11-x86_64_arm-eabi/arm-eabi/libc/usr/lib/libc.a(lib_a-wctomb_r.o)
                              /home/vboxuser/topst/buildtools/gcc-linaro-7.2.1-2017.11-x86_64_arm-eabi/arm-eabi/libc/usr/lib/libc.a(lib_a-locale.o) (__ascii_wctomb)
/home/vboxuser/topst/buildtools/gcc-linaro-7.2.1-2017.11-x86_64_arm-eabi/arm-eabi/libc/usr/lib/libc.a(lib_a-callocr.o)
                              /home/vboxuser/topst/buildtools/gcc-linaro-7.2.1-2017.11-x86_64_arm-eabi/arm-eabi/libc/usr/lib/libc.a(lib_a-mprec.o) (_calloc_r)
/home/vboxuser/topst/buildtools/gcc-linaro-7.2.1-2017.11-x86_64_arm-eabi/arm-eabi/libc/usr/lib/libc.a(lib_a-ctype_.o)
                              /home/vboxuser/topst/buildtools/gcc-linaro-7.2.1-2017.11-x86_64_arm-eabi/arm-eabi/libc/usr/lib/libc.a(lib_a-locale.o) (__set_ctype)
/home/vboxuser/topst/buildtools/gcc-linaro-7.2.1-2017.11-x86_64_arm-eabi/arm-eabi/libc/usr/lib/libc.a(lib_a-errno.o)
                              /home/vboxuser/topst/buildtools/gcc-linaro-7.2.1-2017.11-x86_64_arm-eabi/arm-eabi/libc/usr/lib/libc.a(lib_a-syscalls.o) (__errno)
/home/vboxuser/topst/buildtools/gcc-linaro-7.2.1-2017.11-x86_64_arm-eabi/arm-eabi/libc/usr/lib/libc.a(lib_a-findfp.o)
                              /home/vboxuser/topst/buildtools/gcc-linaro-7.2.1-2017.11-x86_64_arm-eabi/arm-eabi/libc/usr/lib/libc.a(lib_a-syscalls.o) (__sinit)
/home/vboxuser/topst/buildtools/gcc-linaro-7.2.1-2017.11-x86_64_arm-eabi/arm-eabi/libc/usr/lib/libc.a(lib_a-fwalk.o)
                              /home/vboxuser/topst/buildtools/gcc-linaro-7.2.1-2017.11-x86_64_arm-eabi/arm-eabi/libc/usr/lib/libc.a(lib_a-findfp.o) (_fwalk)
/home/vboxuser/topst/buildtools/gcc-linaro-7.2.1-2017.11-x86_64_arm-eabi/arm-eabi/libc/usr/lib/libc.a(lib_a-getenv_r.o)
                              /home/vboxuser/topst/buildtools/gcc-linaro-7.2.1-2017.11-x86_64_arm-eabi/arm-eabi/libc/usr/lib/libc.a(lib_a-locale.o) (_getenv_r)
/home/vboxuser/topst/buildtools/gcc-linaro-7.2.1-2017.11-x86_64_arm-eabi/arm-eabi/libc/usr/lib/libc.a(lib_a-memmove.o)
                              /home/vboxuser/topst/buildtools/gcc-linaro-7.2.1-2017.11-x86_64_arm-eabi/arm-eabi/libc/usr/lib/libc.a(lib_a-svfiprintf.o) (memmove)
/home/vboxuser/topst/buildtools/gcc-linaro-7.2.1-2017.11-x86_64_arm-eabi/arm-eabi/libc/usr/lib/libc.a(lib_a-reallocr.o)
                              /home/vboxuser/topst/buildtools/gcc-linaro-7.2.1-2017.11-x86_64_arm-eabi/arm-eabi/libc/usr/lib/libc.a(lib_a-svfiprintf.o) (_realloc_r)
/home/vboxuser/topst/buildtools/gcc-linaro-7.2.1-2017.11-x86_64_arm-eabi/arm-eabi/libc/usr/lib/libc.a(lib_a-reent.o)
                              /home/vboxuser/topst/buildtools/gcc-linaro-7.2.1-2017.11-x86_64_arm-eabi/arm-eabi/libc/usr/lib/libc.a(lib_a-sbrkr.o) (errno)
/home/vboxuser/topst/buildtools/gcc-linaro-7.2.1-2017.11-x86_64_arm-eabi/arm-eabi/libc/usr/lib/libc.a(lib_a-stdio.o)
                              /home/vboxuser/topst/buildtools/gcc-linaro-7.2.1-2017.11-x86_64_arm-eabi/arm-eabi/libc/usr/lib/libc.a(lib_a-findfp.o) (__sread)
/home/vboxuser/topst/buildtools/gcc-linaro-7.2.1-2017.11-x86_64_arm-eabi/arm-eabi/libc/usr/lib/libc.a(lib_a-writer.o)
                              /home/vboxuser/topst/buildtools/gcc-linaro-7.2.1-2017.11-x86_64_arm-eabi/arm-eabi/libc/usr/lib/libc.a(lib_a-stdio.o) (_write_r)
/home/vboxuser/topst/buildtools/gcc-linaro-7.2.1-2017.11-x86_64_arm-eabi/arm-eabi/libc/usr/lib/libc.a(lib_a-closer.o)
                              /home/vboxuser/topst/buildtools/gcc-linaro-7.2.1-2017.11-x86_64_arm-eabi/arm-eabi/libc/usr/lib/libc.a(lib_a-stdio.o) (_close_r)
/home/vboxuser/topst/buildtools/gcc-linaro-7.2.1-2017.11-x86_64_arm-eabi/arm-eabi/libc/usr/lib/libc.a(lib_a-environ.o)
                              /home/vboxuser/topst/buildtools/gcc-linaro-7.2.1-2017.11-x86_64_arm-eabi/arm-eabi/libc/usr/lib/libc.a(lib_a-getenv_r.o) (environ)
/home/vboxuser/topst/buildtools/gcc-linaro-7.2.1-2017.11-x86_64_arm-eabi/arm-eabi/libc/usr/lib/libc.a(lib_a-envlock.o)
                              /home/vboxuser/topst/buildtools/gcc-linaro-7.2.1-2017.11-x86_64_arm-eabi/arm-eabi/libc/usr/lib/libc.a(lib_a-getenv_r.o) (__env_lock)
/home/vboxuser/topst/buildtools/gcc-linaro-7.2.1-2017.11-x86_64_arm-eabi/arm-eabi/libc/usr/lib/libc.a(lib_a-fclose.o)
                              /home/vboxuser/topst/buildtools/gcc-linaro-7.2.1-2017.11-x86_64_arm-eabi/arm-eabi/libc/usr/lib/libc.a(lib_a-findfp.o) (_fclose_r)
/home/vboxuser/topst/buildtools/gcc-linaro-7.2.1-2017.11-x86_64_arm-eabi/arm-eabi/libc/usr/lib/libc.a(lib_a-fflush.o)
                              /home/vboxuser/topst/buildtools/gcc-linaro-7.2.1-2017.11-x86_64_arm-eabi/arm-eabi/libc/usr/lib/libc.a(lib_a-fclose.o) (__sflush_r)
/home/vboxuser/topst/buildtools/gcc-linaro-7.2.1-2017.11-x86_64_arm-eabi/arm-eabi/libc/usr/lib/libc.a(lib_a-lseekr.o)
                              /home/vboxuser/topst/buildtools/gcc-linaro-7.2.1-2017.11-x86_64_arm-eabi/arm-eabi/libc/usr/lib/libc.a(lib_a-stdio.o) (_lseek_r)
/home/vboxuser/topst/buildtools/gcc-linaro-7.2.1-2017.11-x86_64_arm-eabi/arm-eabi/libc/usr/lib/libc.a(lib_a-readr.o)
                              /home/vboxuser/topst/buildtools/gcc-linaro-7.2.1-2017.11-x86_64_arm-eabi/arm-eabi/libc/usr/lib/libc.a(lib_a-stdio.o) (_read_r)
/home/vboxuser/topst/buildtools/gcc-linaro-7.2.1-2017.11-x86_64_arm-eabi/arm-eabi/libc/usr/lib/libgcc.a(_udivsi3.o)
                              /home/vboxuser/topst/buildtools/gcc-linaro-7.2.1-2017.11-x86_64_arm-eabi/arm-eabi/libc/usr/lib/libc.a(lib_a-strtoul.o) (__aeabi_uidiv)
/home/vboxuser/topst/buildtools/gcc-linaro-7.2.1-2017.11-x86_64_arm-eabi/arm-eabi/libc/usr/lib/libgcc.a(_dvmd_tls.o)
                              /home/vboxuser/topst/buildtools/gcc-linaro-7.2.1-2017.11-x86_64_arm-eabi/arm-eabi/libc/usr/lib/libgcc.a(_udivsi3.o) (__aeabi_idiv0)
/home/vboxuser/topst/buildtools/gcc-linaro-7.2.1-2017.11-x86_64_arm-eabi/arm-eabi/libc/usr/lib/libgcc.a(_arm_addsubdf3.o)
                              /home/vboxuser/topst/buildtools/gcc-linaro-7.2.1-2017.11-x86_64_arm-eabi/arm-eabi/libc/usr/lib/libc.a(lib_a-svfprintf.o) (__aeabi_dsub)
/home/vboxuser/topst/buildtools/gcc-linaro-7.2.1-2017.11-x86_64_arm-eabi/arm-eabi/libc/usr/lib/libgcc.a(_arm_muldivdf3.o)
                              /home/vboxuser/topst/cr5-bsp/sources/build/tcc805x/gcc/tcc805x-freertos-debug/obj/hap.o (__aeabi_dmul)
/home/vboxuser/topst/buildtools/gcc-linaro-7.2.1-2017.11-x86_64_arm-eabi/arm-eabi/libc/usr/lib/libgcc.a(_arm_cmpdf2.o)
                              /home/vboxuser/topst/buildtools/gcc-linaro-7.2.1-2017.11-x86_64_arm-eabi/arm-eabi/libc/usr/lib/libc.a(lib_a-svfprintf.o) (__aeabi_dcmpeq)
/home/vboxuser/topst/buildtools/gcc-linaro-7.2.1-2017.11-x86_64_arm-eabi/arm-eabi/libc/usr/lib/libgcc.a(_arm_unorddf2.o)
                              /home/vboxuser/topst/buildtools/gcc-linaro-7.2.1-2017.11-x86_64_arm-eabi/arm-eabi/libc/usr/lib/libc.a(lib_a-svfprintf.o) (__aeabi_dcmpun)
/home/vboxuser/topst/buildtools/gcc-linaro-7.2.1-2017.11-x86_64_arm-eabi/arm-eabi/libc/usr/lib/libgcc.a(_arm_fixdfsi.o)
                              /home/vboxuser/topst/buildtools/gcc-linaro-7.2.1-2017.11-x86_64_arm-eabi/arm-eabi/libc/usr/lib/libc.a(lib_a-svfprintf.o) (__aeabi_d2iz)
/home/vboxuser/topst/buildtools/gcc-linaro-7.2.1-2017.11-x86_64_arm-eabi/arm-eabi/libc/usr/lib/libgcc.a(_arm_fixunsdfsi.o)
                              /home/vboxuser/topst/cr5-bsp/sources/build/tcc805x/gcc/tcc805x-freertos-debug/obj/hap.o (__aeabi_d2uiz)
/home/vboxuser/topst/buildtools/gcc-linaro-7.2.1-2017.11-x86_64_arm-eabi/arm-eabi/libc/usr/lib/libgcc.a(_arm_addsubsf3.o)
                              /home/vboxuser/topst/cr5-bsp/sources/build/tcc805x/gcc/tcc805x-freertos-debug/obj/hap.o (__aeabi_i2f)
/home/vboxuser/topst/buildtools/gcc-linaro-7.2.1-2017.11-x86_64_arm-eabi/arm-eabi/libc/usr/lib/libgcc.a(_arm_muldivsf3.o)
                              /home/vboxuser/topst/cr5-bsp/sources/build/tcc805x/gcc/tcc805x-freertos-debug/obj/hap.o (__aeabi_fmul)
/home/vboxuser/topst/buildtools/gcc-linaro-7.2.1-2017.11-x86_64_arm-eabi/arm-eabi/libc/usr/lib/libgcc.a(_arm_fixunssfsi.o)
                              /home/vboxuser/topst/cr5-bsp/sources/build/tcc805x/gcc/tcc805x-freertos-debug/obj/hap.o (__aeabi_f2uiz)
/home/vboxuser/topst/buildtools/gcc-linaro-7.2.1-2017.11-x86_64_arm-eabi/arm-eabi/libc/usr/lib/libgcc.a(_aeabi_uldivmod.o)
                              /home/vboxuser/topst/cr5-bsp/sources/build/tcc805x/gcc/tcc805x-freertos-debug/obj/clock_dev.o (__aeabi_uldivmod)
/home/vboxuser/topst/buildtools/gcc-linaro-7.2.1-2017.11-x86_64_arm-eabi/arm-eabi/libc/usr/lib/libgcc.a(_udivmoddi4.o)
                              /home/vboxuser/topst/buildtools/gcc-linaro-7.2.1-2017.11-x86_64_arm-eabi/arm-eabi/libc/usr/lib/libgcc.a(_aeabi_uldivmod.o) (__udivmoddi4)
/home/vboxuser/topst/buildtools/gcc-linaro-7.2.1-2017.11-x86_64_arm-eabi/arm-eabi/libc/usr/lib/libgcc.a(_clzdi2.o)
                              /home/vboxuser/topst/buildtools/gcc-linaro-7.2.1-2017.11-x86_64_arm-eabi/arm-eabi/libc/usr/lib/libgcc.a(_udivmoddi4.o) (__clzdi2)
/home/vboxuser/topst/buildtools/gcc-linaro-7.2.1-2017.11-x86_64_arm-eabi/arm-eabi/libc/usr/lib/libgcc.a(_clzsi2.o)
                              /home/vboxuser/topst/buildtools/gcc-linaro-7.2.1-2017.11-x86_64_arm-eabi/arm-eabi/libc/usr/lib/libgcc.a(_clzdi2.o) (__clzsi2)

Allocating common symbols
Common symbol       size              file

errno               0x4               /home/vboxuser/topst/buildtools/gcc-linaro-7.2.1-2017.11-x86_64_arm-eabi/arm-eabi/libc/usr/lib/libc.a(lib_a-reent.o)

Discarded input sections

 .ARM.extab     0x0000000000000000        0x0 /home/vboxuser/topst/buildtools/gcc-linaro-7.2.1-2017.11-x86_64_arm-eabi/arm-eabi/libc/usr/lib/libgcc.a(_udivmoddi4.o)
 .ARM.exidx     0x0000000000000000        0x8 /home/vboxuser/topst/buildtools/gcc-linaro-7.2.1-2017.11-x86_64_arm-eabi/arm-eabi/libc/usr/lib/libgcc.a(_udivmoddi4.o)

Memory Configuration

Name             Origin             Length             Attributes
SRAM             0x0000000006000000 0x000000000007b980 xrw
SRAM_ARM_STACK   0x000000000607b980 0x0000000000000680 xrw
NC_SRAM          0x00000000c007c000 0x0000000000004000 xrw
NOR              0x0000000008200000 0x0000000000200000 xr
*default*        0x0000000000000000 0xffffffffffffffff

Linker script and memory map

                0x0000000006000000                __VECTOR_START = 0x6000000
                0x0000000000004000                DMA_NC_SIZE = 0x4000

.text           0x0000000008200000    0x7ce38
                0x0000000008200000                __TEXT_START__ = .
 *startup.o(.text)
 .text          0x0000000008200000      0x230 /home/vboxuser/topst/cr5-bsp/sources/build/tcc805x/gcc/tcc805x-freertos-debug/obj/startup.o
                0x0000000008200000                reset
 *(.text)
 .text          0x0000000008200230      0x260 /home/vboxuser/topst/cr5-bsp/sources/build/tcc805x/gcc/tcc805x-freertos-debug/obj/main.o
                0x0000000008200230                cmain
 .text          0x0000000008200490     0x1a50 /home/vboxuser/topst/cr5-bsp/sources/build/tcc805x/gcc/tcc805x-freertos-debug/obj/can_demo.o
                0x0000000008201664                CAN_DemoInitialize
                0x00000000082018b8                CAN_DemoTest
                0x0000000008201ddc                CAN_DemoCreateApp
 .text          0x0000000008201ee0     0x328c /home/vboxuser/topst/cr5-bsp/sources/build/tcc805x/gcc/tcc805x-freertos-debug/obj/console.o
                0x00000000082050f0                CreateConsoleTask
 .text          0x000000000820516c      0x4fc /home/vboxuser/topst/cr5-bsp/sources/build/tcc805x/gcc/tcc805x-freertos-debug/obj/fwug.o
                0x000000000820516c                FWUG_CreateApp
                0x0000000008205364                FWUG_Start
 .text          0x0000000008205668      0xb00 /home/vboxuser/topst/cr5-bsp/sources/build/tcc805x/gcc/tcc805x-freertos-debug/obj/key_adc.o
                0x0000000008205a38                KEY_AdcOpen
                0x0000000008205c90                KEY_AdcScan
 .text          0x0000000008206168      0x500 /home/vboxuser/topst/cr5-bsp/sources/build/tcc805x/gcc/tcc805x-freertos-debug/obj/key_gpio.o
                0x0000000008206334                KEY_GpioKeyOpen
                0x00000000082063a8                KEY_GpioGetRotaryValue
 .text          0x0000000008206668      0xa08 /home/vboxuser/topst/cr5-bsp/sources/build/tcc805x/gcc/tcc805x-freertos-debug/obj/key_i2c.o
                0x00000000082067e4                KEY_I2cOpen
                0x00000000082068b8                KEY_I2cRead
                0x0000000008206a34                KEY_I2cWrite
                0x0000000008206bbc                KEY_I2cScan
 .text          0x0000000008207070        0x0 /home/vboxuser/topst/cr5-bsp/sources/build/tcc805x/gcc/tcc805x-freertos-debug/obj/key.o
 .text          0x0000000008207070      0xc0c /home/vboxuser/topst/cr5-bsp/sources/build/tcc805x/gcc/tcc805x-freertos-debug/obj/system_monitoring.o
                0x0000000008207c00                SM_CreateAppTask
 .text          0x0000000008207c7c      0x4b0 /home/vboxuser/topst/cr5-bsp/sources/build/tcc805x/gcc/tcc805x-freertos-debug/obj/bootctrl.o
                0x0000000008207fc8                BCTRL_Init
 .text          0x000000000820812c      0x1dc /home/vboxuser/topst/cr5-bsp/sources/build/tcc805x/gcc/tcc805x-freertos-debug/obj/reset_demo.o
                0x000000000820812c                PMU_ResetTest
 .text          0x0000000008208308     0x1994 /home/vboxuser/topst/cr5-bsp/sources/build/tcc805x/gcc/tcc805x-freertos-debug/obj/adc_test.o
                0x0000000008209c08                ADC_StartAdcTest
 .text          0x0000000008209c9c      0x76c /home/vboxuser/topst/cr5-bsp/sources/build/tcc805x/gcc/tcc805x-freertos-debug/obj/dse_test.o
                0x0000000008209c9c                DSE_Test_R5AccessFault
                0x000000000820a158                DSE_Test_SoftFaultCheck
 .text          0x000000000820a408      0x620 /home/vboxuser/topst/cr5-bsp/sources/build/tcc805x/gcc/tcc805x-freertos-debug/obj/fmu_test.o
                0x000000000820a9d4                FMU_StartFmuTest
 .text          0x000000000820aa28      0x3dc /home/vboxuser/topst/cr5-bsp/sources/build/tcc805x/gcc/tcc805x-freertos-debug/obj/gdma_test.o
                0x000000000820aa28                GDMA_SampleForM2M
 .text          0x000000000820ae04      0x404 /home/vboxuser/topst/cr5-bsp/sources/build/tcc805x/gcc/tcc805x-freertos-debug/obj/gic_test.o
                0x000000000820aec8                GIC_Test_SmInt
                0x000000000820b08c                GIC_Test_Sgi
 .text          0x000000000820b208     0x21b8 /home/vboxuser/topst/cr5-bsp/sources/build/tcc805x/gcc/tcc805x-freertos-debug/obj/gpio_test.o
                0x000000000820d36c                GPIO_StartGpioTest
 .text          0x000000000820d3c0     0x2590 /home/vboxuser/topst/cr5-bsp/sources/build/tcc805x/gcc/tcc805x-freertos-debug/obj/gpsb_test.o
                0x000000000820f39c                GPSB_Test
 .text          0x000000000820f950     0x33b0 /home/vboxuser/topst/cr5-bsp/sources/build/tcc805x/gcc/tcc805x-freertos-debug/obj/hsm_test.o
                0x0000000008212adc                HSM_Test
 .text          0x0000000008212d00      0xae0 /home/vboxuser/topst/cr5-bsp/sources/build/tcc805x/gcc/tcc805x-freertos-debug/obj/i2c_test.o
                0x0000000008213734                I2C_TestMain
 .text          0x00000000082137e0      0x2bc /home/vboxuser/topst/cr5-bsp/sources/build/tcc805x/gcc/tcc805x-freertos-debug/obj/ictc_test.o
                0x0000000008213a5c                ICTC_SelectTestCase
 .text          0x0000000008213a9c      0x354 /home/vboxuser/topst/cr5-bsp/sources/build/tcc805x/gcc/tcc805x-freertos-debug/obj/lin_test.o
                0x0000000008213a9c                LIN_TestUsage
                0x0000000008213ae8                LIN_SampleTest
 .text          0x0000000008213df0      0x48c /home/vboxuser/topst/cr5-bsp/sources/build/tcc805x/gcc/tcc805x-freertos-debug/obj/pdm_test.o
                0x000000000821421c                PDM_SelectTestCase
 .text          0x000000000821427c      0x66c /home/vboxuser/topst/cr5-bsp/sources/build/tcc805x/gcc/tcc805x-freertos-debug/obj/pmio_test.o
                0x00000000082145d4                PMIO_TEST_GetByAddress
                0x0000000008214644                PMIO_TEST_GetByName
                0x00000000082146e0                PMIO_TEST_SetByAddress
                0x0000000008214798                PMIO_TEST_SetByName
                0x0000000008214888                PMIO_TEST_PrintStatus
                0x00000000082148a8                PMIO_TEST_Run
 .text          0x00000000082148e8     0x13c4 /home/vboxuser/topst/cr5-bsp/sources/build/tcc805x/gcc/tcc805x-freertos-debug/obj/timer_test.o
                0x0000000008215af0                delay_us3
                0x0000000008215b40                timer_on
                0x0000000008215ba4                TIMER_StartTimerTest
 .text          0x0000000008215cac      0xac0 /home/vboxuser/topst/cr5-bsp/sources/build/tcc805x/gcc/tcc805x-freertos-debug/obj/wdt_test.o
                0x0000000008216624                WDT_StartTest
 .text          0x000000000821676c      0x534 /home/vboxuser/topst/cr5-bsp/sources/build/tcc805x/gcc/tcc805x-freertos-debug/obj/pwm_test.o
                0x000000000821676c                PWM_TestSleepForSec
                0x00000000082167d4                PWM_TestSetGpio
                0x00000000082167f0                PWM_TestMotorGpio
                0x000000000821683c                PWM_TestSwitchGpio
                0x0000000008216870                PWM_TestLED
                0x00000000082169f4                PWM_SwitchCtrl
                0x0000000008216c44                PWM_SelectTestCase
 .text          0x0000000008216ca0      0x69c /home/vboxuser/topst/cr5-bsp/sources/build/tcc805x/gcc/tcc805x-freertos-debug/obj/hap.o
                0x0000000008216ca0                calculate_distance
                0x0000000008216d14                ultrasonic_read_distance
                0x0000000008216e18                Ultra_Test
                0x0000000008216fb8                UartJIN2
                0x0000000008217250                Create_TEST_Task
 .text          0x000000000821733c      0x21c /home/vboxuser/topst/cr5-bsp/sources/build/tcc805x/gcc/tcc805x-freertos-debug/obj/mptool.o
                0x000000000821733c                MPTool_CreateApp
 .text          0x0000000008217558     0x1d6c /home/vboxuser/topst/cr5-bsp/sources/build/tcc805x/gcc/tcc805x-freertos-debug/obj/ipc_os.o
                0x0000000008217558                IPC_GetUsec
                0x0000000008217574                IPC_GetMsec
                0x00000000082175c4                IPC_Mdelay
                0x0000000008217610                IPC_Udelay
                0x0000000008217740                IPC_CommonLock
                0x00000000082177c8                IPC_CommonUnlock
                0x0000000008217f20                IPC_MboxLock
                0x0000000008217fa8                IPC_MboxUnlock
                0x0000000008218028                IPC_WriteLock
                0x00000000082180b0                IPC_WriteUnlock
                0x0000000008218130                IPC_ReadLock
                0x00000000082181b8                IPC_ReadUnlock
                0x0000000008218238                IPC_RbufferLock
                0x00000000082182c0                IPC_RbufferUnlock
                0x0000000008218340                IPC_WbufferLock
                0x00000000082183c8                IPC_WbufferUnlock
                0x0000000008218628                IPC_CmdWaitEventTimeOut
                0x00000000082187c4                IPC_CmdWakePreSet
                0x0000000008218928                IPC_CmdWakeUp
                0x0000000008218c28                IPC_ReadWaitEventTimeOut
                0x0000000008218d10                IPC_ReadClearEvent
                0x0000000008218d98                IPC_ReadWakeUp
                0x0000000008218fa8                IPC_BufferOverFlowWaitEventTimeOut
                0x0000000008219100                IPC_BufferOverFlowWakeUp
                0x000000000821918c                IPC_RequestIrq
                0x00000000082191d4                IPC_FreeIrq
                0x00000000082191fc                IPC_OsResourceInit
                0x0000000008219258                IPC_OsResourceRelease
 .text          0x00000000082192c4      0xfa8 /home/vboxuser/topst/cr5-bsp/sources/build/tcc805x/gcc/tcc805x-freertos-debug/obj/ipc_buffer.o
                0x00000000082192c4                IPC_BufferInit
                0x000000000821931c                IPC_PushOneByte
                0x0000000008219430                IPC_PushOneByteOverWrite
                0x000000000821959c                IPC_PopOneByte
                0x00000000082196b8                IPC_BufferFlush
                0x0000000008219744                IPC_BufferFlushByte
                0x00000000082198a8                IPC_BufferDataAvailable
                0x0000000008219994                IPC_BufferFreeSpace
                0x0000000008219a88                IPC_BufferSetHead
                0x0000000008219b0c                IPC_BufferSetTail
                0x0000000008219b90                IPC_BufferGetHead
                0x0000000008219bcc                IPC_BufferGetTail
                0x0000000008219c08                IPC_PushBuffer
                0x0000000008219e44                IPC_PushBufferOverWrite
                0x000000000821a064                IPC_PopBuffer
 .text          0x000000000821a26c      0x96c /home/vboxuser/topst/cr5-bsp/sources/build/tcc805x/gcc/tcc805x-freertos-debug/obj/ipc_cmd.o
                0x000000000821a300                IPC_SendOpen
                0x000000000821a498                IPC_SendClose
                0x000000000821a5dc                IPC_SendWrite
                0x000000000821a8b8                IPC_SendPing
                0x000000000821aa54                IPC_SendAck
 .text          0x000000000821abd8     0x1cec /home/vboxuser/topst/cr5-bsp/sources/build/tcc805x/gcc/tcc805x-freertos-debug/obj/ipc_ctl.o
                0x000000000821acc8                IPC_Write
                0x000000000821b420                IPC_Read
                0x000000000821b5a4                IPC_PingTest
                0x000000000821b6cc                IPC_Flush
                0x000000000821b738                IPC_StructInit
                0x000000000821b83c                IPC_GetStatus
                0x000000000821c6e4                IPC_Initialize
                0x000000000821c874                IPC_Release
 .text          0x000000000821c8c4      0x680 /home/vboxuser/topst/cr5-bsp/sources/build/tcc805x/gcc/tcc805x-freertos-debug/obj/ipc_parser.o
                0x000000000821cdcc                IPC_CreateIPCParserTask
 .text          0x000000000821cf44     0x1024 /home/vboxuser/topst/cr5-bsp/sources/build/tcc805x/gcc/tcc805x-freertos-debug/obj/ipc_api.o
                0x000000000821cf44                IPC_Open
                0x000000000821d1c0                IPC_Close
                0x000000000821d3c8                IPC_CalcCrc16
                0x000000000821d48c                IPC_Ioctl
                0x000000000821dce0                IPC_SendPacketWithIPCHeader
 .text          0x000000000821df68      0x1d4 /home/vboxuser/topst/cr5-bsp/sources/build/tcc805x/gcc/tcc805x-freertos-debug/obj/ipc.o
                0x000000000821df68                IPC_Create
                0x000000000821df7c                IPC_RegisterCbFunc
                0x000000000821e084                IPC_SendPacket
                0x000000000821e0f4                IPC_IsReady
 .text          0x000000000821e13c      0xe1c /home/vboxuser/topst/cr5-bsp/sources/build/tcc805x/gcc/tcc805x-freertos-debug/obj/lin.o
                0x000000000821e7cc                LIN_Init
                0x000000000821e9e8                LIN_SendData
                0x000000000821eb30                LIN_ReadData
                0x000000000821eec0                LIN_TransceiverWakeup
 .text          0x000000000821ef58      0xc84 /home/vboxuser/topst/cr5-bsp/sources/build/tcc805x/gcc/tcc805x-freertos-debug/obj/sdm.o
                0x000000000821f124                SDM_ReadReg
                0x000000000821f548                SDM_WriteReg
                0x000000000821fa8c                SDM_Init
 .text          0x000000000821fbdc     0x2d00 /home/vboxuser/topst/cr5-bsp/sources/build/tcc805x/gcc/tcc805x-freertos-debug/obj/hsm_manager.o
                0x000000000821fbdc                HSM_Init
                0x000000000821fcb0                HSM_VerifyFw
                0x000000000821fe10                HSM_SetKey
                0x000000000822001c                HSM_RunAes
                0x00000000082205bc                HSM_RunAesByKt
                0x0000000008220ae8                HSM_GenMac
                0x0000000008220f64                HSM_GenMacByKt
                0x000000000822136c                HSM_GenHash
                0x00000000082216a4                HSM_RunEcdsa
                0x0000000008221af4                HSM_RunRsa
                0x0000000008221ff4                HSM_Write
                0x0000000008222238                HSM_GetRand
                0x00000000082224bc                HSM_BlockApSystem
                0x0000000008222644                HSM_GetVersion
 .text          0x00000000082228dc      0x3fc /home/vboxuser/topst/cr5-bsp/sources/build/tcc805x/gcc/tcc805x-freertos-debug/obj/adc.o
                0x0000000008222a78                ADC_Init
                0x0000000008222b6c                ADC_Read
                0x0000000008222c6c                ADC_AutoScan
                0x0000000008222cbc                ADC_DeInit
 .text          0x0000000008222cd8      0xbb0 /home/vboxuser/topst/cr5-bsp/sources/build/tcc805x/gcc/tcc805x-freertos-debug/obj/can.o
                0x0000000008222cd8                CAN_Init
                0x0000000008222e70                CAN_Deinit
                0x0000000008222f9c                CAN_InitMessage
                0x0000000008223024                CAN_CheckNewRxMessage
                0x000000000822306c                CAN_GetNewRxMessage
                0x0000000008223160                CAN_SendMessage
                0x0000000008223264                CAN_RequestTxMessageCancellation
                0x0000000008223324                CAN_CheckNewTxEvent
                0x000000000822336c                CAN_GetNewTxEvent
                0x00000000082233cc                CAN_SetControllerMode
                0x0000000008223618                CAN_GetControllerMode
                0x000000000822369c                CAN_GetProtocolStatus
                0x000000000822371c                CAN_GetControllerInfo
                0x000000000822378c                CAN_RegisterCallbackFunctionTx
                0x00000000082237e0                CAN_RegisterCallbackFunctionRx
                0x0000000008223834                CAN_RegisterCallbackFunctionError
 .text          0x0000000008223888     0x2ef8 /home/vboxuser/topst/cr5-bsp/sources/build/tcc805x/gcc/tcc805x-freertos-debug/obj/can_drv.o
                0x0000000008223888                CAN_DrvInitChannel
                0x0000000008223a54                CAN_DrvDeinitChannel
                0x0000000008223b38                CAN_DrvSetNormalOperationMode
                0x0000000008223cbc                CAN_DrvSetMonitoringMode
                0x0000000008223da4                CAN_DrvSetInternalTestMode
                0x0000000008223eb4                CAN_DrvSetExternalTestMode
                0x0000000008223fb0                CAN_DrvSetWakeUpMode
                0x00000000082240d0                CAN_DrvSetSleepMode
                0x00000000082259f8                CAN_DrvGetProtocolStatus
                0x0000000008226634                CAN_DrvCallbackNotifyRxEvent
 .text          0x0000000008226780     0x1ac0 /home/vboxuser/topst/cr5-bsp/sources/build/tcc805x/gcc/tcc805x-freertos-debug/obj/can_msg.o
                0x0000000008226780                CAN_MsgInit
                0x0000000008227124                CAN_MsgPutRxMessage
                0x0000000008227584                CAN_MsgGetCountOfRxMessage
                0x0000000008227728                CAN_MsgGetRxMessage
                0x0000000008227c9c                CAN_MsgSetTxMessage
                0x0000000008227f50                CAN_MsgRequestTxMessageCancellation
                0x0000000008227fe0                CAN_MsgGetCountOfTxEvent
                0x0000000008228050                CAN_MsgGetTxEventMessage
 .text          0x0000000008228240        0x0 /home/vboxuser/topst/cr5-bsp/sources/build/tcc805x/gcc/tcc805x-freertos-debug/obj/can_par.o
 .text          0x0000000008228240      0xc10 /home/vboxuser/topst/cr5-bsp/sources/build/tcc805x/gcc/tcc805x-freertos-debug/obj/can_porting.o
                0x0000000008228240                CAN_PortingDelay
                0x00000000082282a4                CAN_PortingInitHW
                0x00000000082283a0                CAN_PortingSetControllerClock
                0x0000000008228474                CAN_PortingResetDriver
                0x00000000082285f8                CAN_PortingSetInterruptHandler
                0x0000000008228670                CAN_PortingDisableControllerInterrupts
                0x00000000082286c4                CAN_PortingEnableControllerInterrupts
                0x0000000008228718                CAN_PortingGetSizeofStandardIDFilterList
                0x000000000822875c                CAN_PortingGetSizeofExtendedIDFilterList
                0x00000000082287a0                CAN_PortingGetSizeofRxFIFO0
                0x00000000082287e4                CAN_PortingGetSizeofRxFIFO1
                0x0000000008228828                CAN_PortingGetSizeofRxBuffer
                0x000000000822886c                CAN_PortingGetSizeofTxEventBuffer
                0x00000000082288b0                CAN_PortingGetSizeofTxBuffer
                0x00000000082288f4                CAN_PortingGetBitRateSwitchEnable
                0x0000000008228938                CAN_PortingGetFDEnable
                0x000000000822897c                CAN_PortingGetStandardIDFilterEnable
                0x00000000082289c0                CAN_PortingGetExtendedIDFilterEnable
                0x0000000008228a04                CAN_PortingGetStandardIDRemoteRejectEnable
                0x0000000008228a48                CAN_PortingGetExtendedIDRemoteRejectEnable
                0x0000000008228a8c                CAN_PortingGetTxEventFIFOEnable
                0x0000000008228ad0                CAN_PortingGetWatchDogEnable
                0x0000000008228b14                CAN_PortingGetTimeOutEnable
                0x0000000008228b58                CAN_PortingGetTimeStampEnable
                0x0000000008228b9c                CAN_PortingAllocateNonCacheMemory
                0x0000000008228c24                CAN_PortingDeallocateNonCacheMemory
                0x0000000008228c64                CAN_PortingGetControllerRegister
                0x0000000008228cb0                CAN_PortingGetConfigBaseAddr
                0x0000000008228cdc                CAN_PortingGetMessageRamBaseAddr
                0x0000000008228d30                CAN_PortingGetConfigEXTS0Addr
                0x0000000008228d78                CAN_PortingGetConfigEXTS1Addr
                0x0000000008228dc0                CAN_PortingGetConfigWritePasswordAddr
                0x0000000008228e08                CAN_PortingGetConfigWriteLockAddr
 .text          0x0000000008228e50     0x226c /home/vboxuser/topst/cr5-bsp/sources/build/tcc805x/gcc/tcc805x-freertos-debug/obj/clock_dev.o
                0x0000000008229f7c                CLOCK_Init
                0x000000000822a050                CLOCK_SetPllDiv
                0x000000000822a198                CLOCK_GetPllRate
                0x000000000822a210                CLOCK_SetPllRate
                0x000000000822a7d4                CLOCK_SetClkCtrlRate
                0x000000000822a874                CLOCK_GetClkCtrlRate
                0x000000000822a9c8                CLOCK_IsPeriEnabled
                0x000000000822aa30                CLOCK_EnablePeri
                0x000000000822aa90                CLOCK_DisablePeri
                0x000000000822aaf0                CLOCK_GetPeriRate
                0x000000000822ac6c                CLOCK_SetPeriRate
                0x000000000822ad88                CLOCK_IsIobusPwdn
                0x000000000822ae3c                CLOCK_EnableIobus
                0x000000000822aedc                CLOCK_SetIobusPwdn
                0x000000000822afcc                CLOCK_SetSwReset
 .text          0x000000000822b0bc      0xba8 /home/vboxuser/topst/cr5-bsp/sources/build/tcc805x/gcc/tcc805x-freertos-debug/obj/debug.o
                0x000000000822b0bc                DBG_Putc
                0x000000000822b51c                DBG_Printfi
                0x000000000822bc38                DBG_SerialPrintf
 .text          0x000000000822bc64       0xd8 /home/vboxuser/topst/cr5-bsp/sources/build/tcc805x/gcc/tcc805x-freertos-debug/obj/bsp.o
                0x000000000822bc64                BSP_PreInit
                0x000000000822bc80                BSP_Init
                0x000000000822bcd4                BSP_UndefAbortExceptionHook
                0x000000000822bcfc                BSP_SystemHalt
 .text          0x000000000822bd3c     0x18a4 /home/vboxuser/topst/cr5-bsp/sources/build/tcc805x/gcc/tcc805x-freertos-debug/obj/fmu.o
                0x000000000822d05c                FMU_Init
                0x000000000822d0e4                FMU_IsrHandler
                0x000000000822d210                FMU_Set
                0x000000000822d530                FMU_IsrClr
                0x000000000822d5ac                FMU_Deinit
 .text          0x000000000822d5e0      0xc3c /home/vboxuser/topst/cr5-bsp/sources/build/tcc805x/gcc/tcc805x-freertos-debug/obj/gdma.o
                0x000000000822dd5c                GDMA_TransferFunctionForM2M
                0x000000000822e090                GDMA_Initialize
 .text          0x000000000822e21c      0xe1c /home/vboxuser/topst/cr5-bsp/sources/build/tcc805x/gcc/tcc805x-freertos-debug/obj/gic.o
                0x000000000822e46c                GIC_Init
                0x000000000822e558                GIC_IntSrcEn
                0x000000000822e678                GIC_IntSrcDis
                0x000000000822e770                GIC_IntPrioSet
                0x000000000822e808                GIC_IntVectSet
                0x000000000822ea2c                GIC_IntHandlerWithParam
                0x000000000822eb14                GIC_IntHandler
                0x000000000822ec00                GIC_IntExtSet
                0x000000000822ed44                GIC_IntSGI
                0x000000000822ede0                GIC_SmIrqEn
                0x000000000822ef0c                GIC_SmIrqSetHigh
 .text          0x000000000822f038     0x1224 /home/vboxuser/topst/cr5-bsp/sources/build/tcc805x/gcc/tcc805x-freertos-debug/obj/gpio.o
                0x000000000822f58c                GPIO_Config
                0x000000000822fec8                GPIO_Get
                0x000000000822ff40                GPIO_Set
                0x0000000008230008                GPIO_ToNum
 .text          0x000000000823025c     0x4d00 /home/vboxuser/topst/cr5-bsp/sources/build/tcc805x/gcc/tcc805x-freertos-debug/obj/i2c.o
                0x0000000008230614                I2C_ScanSlave
                0x0000000008231e90                I2C_Xfer
                0x0000000008232154                I2C_XferCmd
                0x00000000082323dc                I2C_GetMachineState
                0x0000000008234730                I2C_Open
                0x0000000008234b78                I2C_Close
                0x0000000008234ea4                I2C_Init
                0x0000000008234f34                I2C_Deinit
 .text          0x0000000008234f5c        0x0 /home/vboxuser/topst/cr5-bsp/sources/build/tcc805x/gcc/tcc805x-freertos-debug/obj/i2c_reg.o
 .text          0x0000000008234f5c     0x153c /home/vboxuser/topst/cr5-bsp/sources/build/tcc805x/gcc/tcc805x-freertos-debug/obj/ictc.o
                0x0000000008234f5c                ICTC_Init
                0x00000000082350d4                ICTC_Deinit
                0x0000000008235154                ICTC_GetPrevPeriodCnt
                0x000000000823527c                ICTC_GetPreDutyCnt
                0x00000000082353a4                ICTC_GetCurEdgeCnt
                0x00000000082354cc                ICTC_GetPrvEdgeCnt
                0x00000000082355f4                ICTC_GetREdgeTstmpCnt
                0x0000000008235828                ICTC_GetFEdgeTstmpCnt
                0x0000000008235b20                ICTC_EnableCapture
                0x0000000008235bc8                ICTC_DisableCapture
                0x0000000008235c78                ICTC_SetOpEnCtrlCounter
                0x0000000008235cec                ICTC_SetOpModeCtrlReg
                0x000000000823600c                ICTC_SetIRQCtrlReg
                0x000000000823619c                ICTC_SetCallBackFunc
                0x0000000008236200                ICTC_SetTimeoutValue
                0x0000000008236280                ICTC_SetEdgeMatchingValue
                0x00000000082363b8                ICTC_SetCompareRoundValue
 .text          0x0000000008236498     0x10d4 /home/vboxuser/topst/cr5-bsp/sources/build/tcc805x/gcc/tcc805x-freertos-debug/obj/mbox_phy.o
                0x0000000008236498                MBOX_PhyReady
                0x000000000823670c                MBOX_PhyBitSetCtrl
                0x0000000008236790                MBOX_PhyBitClearCtrl
                0x00000000082367e8                MBOX_PhyIsIlevelSet
                0x0000000008236838                MBOX_PhyIsIenSet
                0x000000000823688c                MBOX_PhyIsOenSet
                0x00000000082368e0                MBOX_PhyIsFlushedCmd
                0x0000000008236934                MBOX_PhyIsFlushedData
                0x0000000008236988                MBOX_PhyCountScmd
                0x00000000082369dc                MBOX_PhyFullScmd
                0x0000000008236a30                MBOX_PhyEmptyScmd
                0x0000000008236a84                MBOX_PhyCountMcmd
                0x0000000008236ad8                MBOX_PhyFullMcmd
                0x0000000008236b2c                MBOX_PhyEmptyMcmd
                0x0000000008236b7c                MBOX_PhyEmptyMdata
                0x0000000008236bd0                MBOX_PhyFullMdata
                0x0000000008236c24                MBOX_PhyCountMdata
                0x0000000008236c70                MBOX_PhyEmptySdata
                0x0000000008236cc4                MBOX_PhyFullSdata
                0x0000000008236d18                MBOX_PhyCountSdata
                0x0000000008236d64                MBOX_PhyWriteCmd
                0x0000000008236f20                MBOX_PhyReadCmd
                0x00000000082371a4                MBOX_PhyWriteData
                0x000000000823728c                MBOX_PhyReadData
                0x0000000008237394                MBOX_PhySetOwnTmnSts
                0x0000000008237448                MBOX_PhyGetOwnTmnSts
                0x00000000082374d8                MBOX_PhyGetOppTmnSts
 .text          0x000000000823756c     0x424c /home/vboxuser/topst/cr5-bsp/sources/build/tcc805x/gcc/tcc805x-freertos-debug/obj/mbox_dev.o
                0x000000000823756c                MBOX_DevInit
                0x00000000082379f4                MBOX_DevOpen
                0x00000000082380f4                MBOX_DevSend
                0x0000000008238608                MBOX_DevSendSss
                0x0000000008238b10                MBOX_DevSendCmd
                0x0000000008238f64                MBOX_DevSendData
                0x0000000008239474                MBOX_DevRecv
                0x00000000082395ec                MBOX_DevRecvSss
                0x0000000008239764                MBOX_DevRecvCmd
                0x0000000008239798                MBOX_DevRecvData
                0x000000000823a7cc                MBOX_DevIoctl
 .text          0x000000000823b7b8      0xcc8 /home/vboxuser/topst/cr5-bsp/sources/build/tcc805x/gcc/tcc805x-freertos-debug/obj/mbox.o
                0x000000000823c1d8                MBOX_Init
 .text          0x000000000823c480      0x268 /home/vboxuser/topst/cr5-bsp/sources/build/tcc805x/gcc/tcc805x-freertos-debug/obj/mpu.o
                0x000000000823c50c                MPU_Init
                0x000000000823c59c                MPU_GetDMABaseAddress
                0x000000000823c5c8                MPU_SetRegion
                0x000000000823c66c                MPU_Enable
                0x000000000823c6a0                MPU_Disable
 .text          0x000000000823c6e8     0x3f08 /home/vboxuser/topst/cr5-bsp/sources/build/tcc805x/gcc/tcc805x-freertos-debug/obj/pdm.o
                0x000000000823d9d0                PDM_EnableClock
                0x000000000823db50                PDM_DisableClock
                0x000000000823db78                PDM_Init
                0x000000000823e25c                PDM_Deinit
                0x000000000823f8fc                PDM_GetChannelStatus
                0x000000000823fecc                PDM_Enable
                0x000000000824007c                PDM_Disable
                0x00000000082401a8                PDM_SetConfig
 .text          0x00000000082405f0     0x2914 /home/vboxuser/topst/cr5-bsp/sources/build/tcc805x/gcc/tcc805x-freertos-debug/obj/pmio_dev.o
                0x0000000008241070                PMIO_ForceSTRModeTest
                0x0000000008241098                PMIO_EarlyWakeUp
                0x000000000824114c                PMIO_PowerDown
                0x00000000082413b0                PMIO_DebugPrintPowerStatus
                0x00000000082415d8                PMIO_Init
                0x000000000824168c                PMIO_ClearBackupRAM
                0x00000000082416e4                PMIO_GetBackupRam
                0x0000000008241720                PMIO_SetBackupRam
                0x00000000082417a0                PMIO_GetBootReason
                0x00000000082418ac                PMIO_GetWdtReset
                0x0000000008241928                PMIO_SetGPK
                0x0000000008242eec                PMIO_APBootOk
 .text          0x0000000008242f04     0x7490 /home/vboxuser/topst/cr5-bsp/sources/build/tcc805x/gcc/tcc805x-freertos-debug/obj/gpsb.o
                0x0000000008242f80                GPSB_BitClear
                0x0000000008242fd0                GPSB_BitSet
                0x0000000008243030                GPSB_BitCSet
                0x0000000008243094                GPSB_BitSClear
                0x0000000008243884                GPSB_Reset
                0x0000000008244400                GPSB_SetSpeed
                0x00000000082445f8                GPSB_SetBpw
                0x00000000082447e8                GPSB_SetBpwNoSwap
                0x00000000082449a8                GPSB_SetMode
                0x0000000008244de4                GPSB_CsAlloc
                0x0000000008244f64                GPSB_CsInit
                0x0000000008245058                GPSB_CsActivate
                0x00000000082450f8                GPSB_CsDeactivate
                0x00000000082463b8                GPSB_Xfer
                0x00000000082468b8                GPSB_XferAbort
                0x0000000008246bfc                GPSB_Open
                0x0000000008247410                GPSB_Close
                0x0000000008248960                GPSB_SetSdmExtPort
                0x0000000008248a9c                GPSB_SetRvcExtPort
                0x0000000008248bbc                GPSB_SetSdmChannel
                0x0000000008248de0                GPSB_SetRvcChannel
                0x0000000008249010                GPSB_SetLbCfg
                0x0000000008249164                GPSB_ClearLbCfg
                0x0000000008249804                GPSB_Init
                0x00000000082499fc                GPSB_Deinit
                0x0000000008249a6c                GPSB_SafetyEnableLock
                0x0000000008249b64                GPSB_SafetyDisableLock
                0x0000000008249c5c                GPSB_SafetyEnableLoopback
                0x0000000008249db8                GPSB_SafetyDisableLoopback
                0x0000000008249ec4                GPSB_SafetyEnableMonitor
                0x000000000824a0f0                GPSB_SafetyDisableMonitor
                0x000000000824a1c0                GPSB_SafetyGetStatus
 .text          0x000000000824a394        0x0 /home/vboxuser/topst/cr5-bsp/sources/build/tcc805x/gcc/tcc805x-freertos-debug/obj/gpsb_reg.o
 .text          0x000000000824a394     0x10c0 /home/vboxuser/topst/cr5-bsp/sources/build/tcc805x/gcc/tcc805x-freertos-debug/obj/timer.o
                0x000000000824a394                TIMER_GetCurrentMainCounter1
                0x000000000824a3b8                TIMER_GetCurrentMainCounter
                0x000000000824a3f4                delay_us2
                0x000000000824a774                TIMER_InterruptClear
                0x000000000824a7ec                TIMER_Enable
                0x000000000824a838                TIMER_EnableWithMode
                0x000000000824a8c0                TIMER_EnableWithCfg
                0x000000000824b070                TIMER_Disable
                0x000000000824b230                TIMER_Init
 .text          0x000000000824b454     0x3bec /home/vboxuser/topst/cr5-bsp/sources/build/tcc805x/gcc/tcc805x-freertos-debug/obj/uart.o
                0x000000000824e20c                UART_Open
                0x000000000824e3a8                UART_Close
                0x000000000824e57c                UART_Read
                0x000000000824e70c                UART_Write
                0x000000000824e878                UART_GetData
                0x000000000824ea2c                UART_GetChar
                0x000000000824eba0                UART_PutChar
                0x000000000824eca4                UART_SetLineControlReg
                0x000000000824ed2c                UART_SetInterruptClearReg
                0x000000000824ed64                UART_SetErrorClearReg
                0x000000000824ed9c                UART_GetReceiveStatusReg
                0x000000000824edd4                UART_GetRawInterruptStatusReg
                0x000000000824ee0c                UART_Init
                0x000000000824eec4                UART_ISR
 .text          0x000000000824f040     0x1238 /home/vboxuser/topst/cr5-bsp/sources/build/tcc805x/gcc/tcc805x-freertos-debug/obj/udma.o
                0x000000000824f040                UDMA_InterruptEnable
                0x000000000824f13c                UDMA_InterruptDisable
                0x000000000824f238                UDMA_SetAddrIncrement
                0x000000000824f330                UDMA_SetTransferWidth
                0x000000000824f428                UDMA_SetBurstSize
                0x000000000824f520                UDMA_SetTransferSize
                0x000000000824f5f8                UDMA_SetFlowControl
                0x000000000824f6d0                UDMA_Reset
                0x000000000824f750                UDMA_SetPeri
                0x000000000824f804                UDMA_GetTransferSize
                0x000000000824fb28                UDMA_ChannelEnable
                0x000000000824fbf0                UDMA_ChannelDisable
                0x000000000824fcb8                UDMA_SetSrcAddr
                0x000000000824fd60                UDMA_SetDestAddr
                0x000000000824fe08                UDMA_SetlliAddr
                0x000000000824feb0                UDMA_GetDestAddr
                0x000000000824ff60                UDMA_TransferMem2Mem
                0x0000000008250048                UDMA_Init
 .text          0x0000000008250278      0x69c /home/vboxuser/topst/cr5-bsp/sources/build/tcc805x/gcc/tcc805x-freertos-debug/obj/wdt.o
                0x000000000825052c                WDT_KickPing
                0x000000000825054c                WDT_ResetSystem
                0x00000000082505d0                WDT_Stop
                0x0000000008250654                WDT_SmMode
                0x0000000008250808                WDT_Init
 .text          0x0000000008250914      0x530 /home/vboxuser/topst/cr5-bsp/sources/build/tcc805x/gcc/tcc805x-freertos-debug/obj/dse.o
                0x0000000008250914                DSE_WriteLock
                0x0000000008250c48                DSE_Deinit
                0x0000000008250ca4                DSE_Init
                0x0000000008250e14                DSE_GetGrpSts
 .text          0x0000000008250e44      0xc5c /home/vboxuser/topst/cr5-bsp/sources/build/tcc805x/gcc/tcc805x-freertos-debug/obj/midf.o
                0x0000000008250e44                MIDF_FilterInitialize
                0x00000000082510e0                MIDF_RegisterFilterRegion
                0x0000000008251424                MIDF_UnregisterFilterRegion
                0x0000000008251810                MIDF_RegisterWriteLockSafetyMechanism
                0x000000000825190c                MIDF_ConfigSoftFaultCheckSafetyMechanism
 .text          0x0000000008251aa0      0xa08 /home/vboxuser/topst/cr5-bsp/sources/build/tcc805x/gcc/tcc805x-freertos-debug/obj/pmu_reset.o
                0x0000000008251aa0                PMU_ResetPreCfg
                0x0000000008251c24                PMU_ResetSDMRstMskCfg
                0x0000000008251d6c                PMU_ResetTRVCRstMskCfg
                0x0000000008251ec0                PMU_ResetColdReset
                0x0000000008251ee8                PMU_ResetAPSystemReboot
                0x0000000008252388                PMU_ResetSCWDTInit
 .text          0x00000000082524a8     0x3668 /home/vboxuser/topst/cr5-bsp/sources/build/tcc805x/gcc/tcc805x-freertos-debug/obj/tasks.o
                0x00000000082524a8                xTaskCreateStatic
                0x0000000008252590                xTaskCreate
                0x00000000082529ec                vTaskDelete
                0x0000000008252b40                vTaskDelayUntil
                0x0000000008252c80                vTaskDelay
                0x0000000008252cf0                eTaskGetState
                0x0000000008252e3c                uxTaskPriorityGet
                0x0000000008252e94                uxTaskPriorityGetFromISR
                0x0000000008252ef8                vTaskPrioritySet
                0x0000000008253110                vTaskSuspend
                0x00000000082532f0                vTaskResume
                0x0000000008253400                xTaskResumeFromISR
                0x0000000008253538                vTaskStartScheduler
                0x0000000008253654                vTaskEndScheduler
                0x000000000825367c                vTaskSuspendAll
                0x00000000082536b4                xTaskResumeAll
                0x00000000082538bc                xTaskGetTickCount
                0x00000000082538f0                xTaskGetTickCountFromISR
                0x0000000008253930                uxTaskGetNumberOfTasks
                0x0000000008253954                pcTaskGetName
                0x0000000008253b60                xTaskGetHandle
                0x0000000008253c94                xTaskCatchUpTicks
                0x0000000008253d00                xTaskAbortDelay
                0x0000000008253e44                xTaskIncrementTick
                0x00000000082540ec                vTaskSwitchContext
                0x00000000082542c8                vTaskPlaceOnEventList
                0x0000000008254320                vTaskPlaceOnUnorderedEventList
                0x00000000082543ac                vTaskPlaceOnEventListRestricted
                0x000000000825441c                xTaskRemoveFromEventList
                0x0000000008254558                vTaskRemoveFromUnorderedEventList
                0x000000000825466c                vTaskSetTimeOutState
                0x00000000082546c8                vTaskInternalSetTimeOutState
                0x0000000008254710                xTaskCheckForTimeOut
                0x0000000008254864                vTaskMissedYield
                0x0000000008254b0c                xTaskGetCurrentTaskHandle
                0x0000000008254b3c                xTaskGetSchedulerState
                0x0000000008254ba4                xTaskPriorityInherit
                0x0000000008254d40                xTaskPriorityDisinherit
                0x0000000008254e8c                vTaskPriorityDisinheritAfterTimeout
                0x000000000825502c                uxTaskResetEventItemValue
                0x0000000008255084                pvTaskIncrementMutexHeldCount
                0x00000000082550d4                ulTaskNotifyTake
                0x00000000082551c0                xTaskNotifyWait
                0x00000000082552f0                xTaskGenericNotify
                0x00000000082554e8                xTaskGenericNotifyFromISR
                0x0000000008255740                vTaskNotifyGiveFromISR
                0x00000000082558c8                xTaskNotifyStateClear
                0x0000000008255948                ulTaskNotifyValueClear
 .text          0x0000000008255b10      0x294 /home/vboxuser/topst/cr5-bsp/sources/build/tcc805x/gcc/tcc805x-freertos-debug/obj/list.o
                0x0000000008255b10                vListInitialise
                0x0000000008255b78                vListInitialiseItem
                0x0000000008255ba4                vListInsertEnd
                0x0000000008255c2c                vListInsert
                0x0000000008255d04                uxListRemove
 .text          0x0000000008255da4     0x2278 /home/vboxuser/topst/cr5-bsp/sources/build/tcc805x/gcc/tcc805x-freertos-debug/obj/queue.o
                0x0000000008255da4                xQueueGenericReset
                0x0000000008255ed0                xQueueGenericCreateStatic
                0x0000000008255fd8                xQueueGenericCreate
                0x0000000008256164                xQueueCreateMutex
                0x00000000082561b8                xQueueCreateMutexStatic
                0x0000000008256218                xQueueGetMutexHolder
                0x0000000008256270                xQueueGetMutexHolderFromISR
                0x00000000082562cc                xQueueGiveMutexRecursive
                0x0000000008256368                xQueueTakeMutexRecursive
                0x000000000825640c                xQueueCreateCountingSemaphoreStatic
                0x0000000008256490                xQueueCreateCountingSemaphore
                0x0000000008256504                xQueueGenericSend
                0x00000000082567d8                xQueueGenericSendFromISR
                0x00000000082569bc                xQueueGiveFromISR
                0x0000000008256b54                xQueueReceive
                0x0000000008256d9c                xQueueSemaphoreTake
                0x000000000825704c                xQueuePeek
                0x000000000825729c                xQueueReceiveFromISR
                0x00000000082573e4                xQueuePeekFromISR
                0x00000000082574c4                uxQueueMessagesWaiting
                0x0000000008257508                uxQueueSpacesAvailable
                0x0000000008257560                uxQueueMessagesWaitingFromISR
                0x00000000082575a8                vQueueDelete
                0x00000000082579fc                xQueueIsQueueEmptyFromISR
                0x0000000008257ab0                xQueueIsQueueFullFromISR
                0x0000000008257b18                vQueueAddToRegistry
                0x0000000008257bac                pcQueueGetName
                0x0000000008257c38                vQueueUnregisterQueue
                0x0000000008257cd4                vQueueWaitForMessageRestricted
                0x0000000008257d78                xQueueCreateSet
                0x0000000008257dac                xQueueAddToSet
                0x0000000008257e24                xQueueRemoveFromSet
                0x0000000008257ea8                xQueueSelectFromSet
                0x0000000008257ee8                xQueueSelectFromSetFromISR
 .text          0x000000000825801c      0x8e4 /home/vboxuser/topst/cr5-bsp/sources/build/tcc805x/gcc/tcc805x-freertos-debug/obj/event_groups.o
                0x000000000825801c                xEventGroupCreateStatic
                0x00000000082580a0                xEventGroupCreate
                0x00000000082580fc                xEventGroupSync
                0x00000000082582e4                xEventGroupWaitBits
                0x000000000825851c                xEventGroupClearBits
                0x000000000825859c                xEventGroupGetBitsFromISR
                0x00000000082585e0                xEventGroupSetBits
                0x0000000008258794                vEventGroupDelete
                0x0000000008258828                vEventGroupSetBitsCallback
                0x0000000008258854                vEventGroupClearBitsCallback
 .text          0x0000000008258900      0xfe0 /home/vboxuser/topst/cr5-bsp/sources/build/tcc805x/gcc/tcc805x-freertos-debug/obj/timers.o
                0x0000000008258900                xTimerCreateTimerTask
                0x00000000082589d4                xTimerCreate
                0x0000000008258a48                xTimerCreateStatic
                0x0000000008258b90                xTimerGenericCommand
                0x0000000008258c84                xTimerGetTimerDaemonTaskHandle
                0x0000000008258cc0                xTimerGetPeriod
                0x0000000008258d00                vTimerSetReloadMode
                0x0000000008258d80                uxTimerGetReloadMode
                0x0000000008258de8                xTimerGetExpiryTime
                0x0000000008258e30                pcTimerGetName
                0x00000000082596f0                xTimerIsTimerActive
                0x0000000008259758                pvTimerGetTimerID
                0x00000000082597a4                vTimerSetTimerID
                0x00000000082597f0                xTimerPendFunctionCallFromISR
                0x000000000825985c                xTimerPendFunctionCall
 .text          0x00000000082598e0     0x126c /home/vboxuser/topst/cr5-bsp/sources/build/tcc805x/gcc/tcc805x-freertos-debug/obj/stream_buffer.o
                0x00000000082598e0                xStreamBufferGenericCreate
                0x00000000082599b8                xStreamBufferGenericCreateStatic
                0x0000000008259adc                vStreamBufferDelete
                0x0000000008259b40                xStreamBufferReset
                0x0000000008259be0                xStreamBufferSetTriggerLevel
                0x0000000008259c68                xStreamBufferSpacesAvailable
                0x0000000008259d04                xStreamBufferBytesAvailable
                0x0000000008259d48                xStreamBufferSend
                0x0000000008259f30                xStreamBufferSendFromISR
                0x000000000825a130                xStreamBufferReceive
                0x000000000825a2d4                xStreamBufferNextMessageLengthBytes
                0x000000000825a394                xStreamBufferReceiveFromISR
                0x000000000825a564                xStreamBufferIsEmpty
                0x000000000825a5d4                xStreamBufferIsFull
                0x000000000825a660                xStreamBufferSendCompletedFromISR
                0x000000000825a6fc                xStreamBufferReceiveCompletedFromISR
 .text          0x000000000825ab4c      0x8b8 /home/vboxuser/topst/cr5-bsp/sources/build/tcc805x/gcc/tcc805x-freertos-debug/obj/port.o
                0x000000000825ab4c                pxPortInitialiseStack
                0x000000000825ade0                xPortStartScheduler
                0x000000000825af24                vPortEndScheduler
                0x000000000825af54                vPortEnterCritical
                0x000000000825afb0                vPortExitCritical
                0x000000000825b03c                FreeRTOS_Tick_Handler
                0x000000000825b0d0                vPortTaskUsesFPU
                0x000000000825b0f8                vPortClearInterruptMask
                0x000000000825b154                ulPortSetInterruptMask
                0x000000000825b1cc                vPortValidateInterruptPriority
                0x000000000825b200                vApplicationGetIdleTaskMemory
                0x000000000825b254                vInitialiseTimerForRunTimeStats
                0x000000000825b26c                vApplicationStackOverflowHook
                0x000000000825b290                vApplicationGetTimerTaskMemory
                0x000000000825b2e4                vConfigureTickInterrupt
                0x000000000825b36c                vClearTickInterrupt
                0x000000000825b384                vApplicationFPUSafeIRQHandler
                0x000000000825b3a8                xPortGetInterruptNestingCount
                0x000000000825b3cc                heap_init
 .text          0x000000000825b404      0x8ec /home/vboxuser/topst/cr5-bsp/sources/build/tcc805x/gcc/tcc805x-freertos-debug/obj/heap_5.o
                0x000000000825b404                pvPortMalloc
                0x000000000825b65c                vPortFree
                0x000000000825b784                xPortGetFreeHeapSize
                0x000000000825b7a8                xPortGetMinimumEverFreeHeapSize
                0x000000000825b924                vPortDefineHeapRegions
                0x000000000825bb9c                vPortGetHeapStats
 .text          0x000000000825bcf0      0x32c /home/vboxuser/topst/cr5-bsp/sources/build/tcc805x/gcc/tcc805x-freertos-debug/obj/sal_api.o
                0x000000000825bcf0                SAL_RegisterFunction
 .text          0x000000000825c01c     0x2714 /home/vboxuser/topst/cr5-bsp/sources/build/tcc805x/gcc/tcc805x-freertos-debug/obj/sal_freertos_impl.o
                0x000000000825e2d4                SAL_Init
 .text          0x000000000825e730        0x0 /home/vboxuser/topst/cr5-bsp/sources/build/tcc805x/gcc/tcc805x-freertos-debug/obj/vector.o
 .text          0x000000000825e730        0x4 /home/vboxuser/topst/cr5-bsp/sources/build/tcc805x/gcc/tcc805x-freertos-debug/obj/vfp_init.o
                0x000000000825e730                vfp_init
 .text          0x000000000825e734        0xc /home/vboxuser/topst/cr5-bsp/sources/build/tcc805x/gcc/tcc805x-freertos-debug/obj/arm_a.o
                0x000000000825e734                ARM_DSB
 .text          0x000000000825e740      0x270 /home/vboxuser/topst/cr5-bsp/sources/build/tcc805x/gcc/tcc805x-freertos-debug/obj/portASM.o
                0x000000000825e740                FreeRTOS_SWI_Handler
                0x000000000825e7c8                vPortRestoreTaskContext
                0x000000000825e820                FreeRTOS_IRQ_Handler
                0x000000000825e970                vApplicationIRQHandler
 .text          0x000000000825e9b0       0xb8 /home/vboxuser/topst/cr5-bsp/sources/build/tcc805x/gcc/tcc805x-freertos-debug/obj/freertos.o
                0x000000000825e9b0                FreeRTOS_ARM_ExceptUndefInstrHndlr
                0x000000000825e9c4                FreeRTOS_ARM_ExceptSwiHndlr
                0x000000000825e9c8                FreeRTOS_ARM_ExceptPrefetchAbortHndlr
                0x000000000825e9e0                FreeRTOS_ARM_ExceptDataAbortHndlr
                0x000000000825ea10                FreeRTOS_ARM_ExceptIrqHndlr
                0x000000000825ea14                FreeRTOS_ARM_ExceptFiqHndlr
                0x000000000825ea2c                FreeRTOS_ARM_DRegCntGet
                0x000000000825ea34                CPU_WaitForEvent
                0x000000000825ea40                __DSB
                0x000000000825ea4c                CPU_SR_Save
                0x000000000825ea5c                CPU_SR_Restore
 .text          0x000000000825ea68       0x18 /home/vboxuser/topst/cr5-bsp/sources/build/tcc805x/gcc/tcc805x-freertos-debug/obj/sal.o
                0x000000000825ea68                ARM_ExceptUndefInstrHndlr
                0x000000000825ea6c                ARM_ExceptSwiHndlr
                0x000000000825ea70                ARM_ExceptPrefetchAbortHndlr
                0x000000000825ea74                ARM_ExceptDataAbortHndlr
                0x000000000825ea78                ARM_ExceptIrqHndlr
                0x000000000825ea7c                ARM_ExceptFiqHndlr
 .text          0x000000000825ea80       0x30 /home/vboxuser/topst/buildtools/gcc-linaro-7.2.1-2017.11-x86_64_arm-eabi/arm-eabi/libc/usr/lib/libc.a(lib_a-atoi.o)
                0x000000000825ea80                atoi
                0x000000000825ea98                _atoi_r
 .text          0x000000000825eab0       0x30 /home/vboxuser/topst/buildtools/gcc-linaro-7.2.1-2017.11-x86_64_arm-eabi/arm-eabi/libc/usr/lib/libc.a(lib_a-atol.o)
                0x000000000825eab0                atol
                0x000000000825eac8                _atol_r
 .text          0x000000000825eae0      0x104 /home/vboxuser/topst/buildtools/gcc-linaro-7.2.1-2017.11-x86_64_arm-eabi/arm-eabi/libc/usr/lib/libc.a(lib_a-memcmp.o)
                0x000000000825eae0                memcmp
 .text          0x000000000825ebe4      0x110 /home/vboxuser/topst/buildtools/gcc-linaro-7.2.1-2017.11-x86_64_arm-eabi/arm-eabi/libc/usr/lib/libc.a(lib_a-memcpy-stub.o)
                0x000000000825ebe4                memcpy
 .text          0x000000000825ecf4      0x114 /home/vboxuser/topst/buildtools/gcc-linaro-7.2.1-2017.11-x86_64_arm-eabi/arm-eabi/libc/usr/lib/libc.a(lib_a-memset.o)
                0x000000000825ecf4                memset
 .text          0x000000000825ee08      0x188 /home/vboxuser/topst/buildtools/gcc-linaro-7.2.1-2017.11-x86_64_arm-eabi/arm-eabi/libc/usr/lib/libc.a(lib_a-snprintf.o)
                0x000000000825ee08                _snprintf_r
                0x000000000825eec4                snprintf
 .text          0x000000000825ef90       0x60 /home/vboxuser/topst/buildtools/gcc-linaro-7.2.1-2017.11-x86_64_arm-eabi/arm-eabi/libc/usr/lib/libc.a(lib_a-strlen-stub.o)
                0x000000000825ef90                strlen
 .text          0x000000000825eff0      0x100 /home/vboxuser/topst/buildtools/gcc-linaro-7.2.1-2017.11-x86_64_arm-eabi/arm-eabi/libc/usr/lib/libc.a(lib_a-strncmp.o)
                0x000000000825eff0                strncmp
 .text          0x000000000825f0f0       0xe0 /home/vboxuser/topst/buildtools/gcc-linaro-7.2.1-2017.11-x86_64_arm-eabi/arm-eabi/libc/usr/lib/libc.a(lib_a-strncpy.o)
                0x000000000825f0f0                strncpy
 .text          0x000000000825f1d0       0x5c /home/vboxuser/topst/buildtools/gcc-linaro-7.2.1-2017.11-x86_64_arm-eabi/arm-eabi/libc/usr/lib/libc.a(lib_a-strnlen.o)
                0x000000000825f1d0                strnlen
 .text          0x000000000825f22c      0x27c /home/vboxuser/topst/buildtools/gcc-linaro-7.2.1-2017.11-x86_64_arm-eabi/arm-eabi/libc/usr/lib/libc.a(lib_a-strtol.o)
                0x000000000825f3e8                _strtol_r
                0x000000000825f424                strtol_l
                0x000000000825f45c                strtol
 .text          0x000000000825f4a8      0x28c /home/vboxuser/topst/buildtools/gcc-linaro-7.2.1-2017.11-x86_64_arm-eabi/arm-eabi/libc/usr/lib/libc.a(lib_a-strtoul.o)
                0x000000000825f674                _strtoul_r
                0x000000000825f6b0                strtoul_l
                0x000000000825f6e8                strtoul
 .text          0x000000000825f734     0xb4c8 /home/vboxuser/topst/buildtools/gcc-linaro-7.2.1-2017.11-x86_64_arm-eabi/arm-eabi/libc/usr/lib/libc.a(lib_a-svfprintf.o)
                0x0000000008266a38                _svfprintf_r
 .text          0x000000000826abfc      0x134 /home/vboxuser/topst/buildtools/gcc-linaro-7.2.1-2017.11-x86_64_arm-eabi/arm-eabi/libc/usr/lib/libc.a(lib_a-wcrtomb.o)
                0x000000000826abfc                _wcrtomb_r
                0x000000000826ac94                wcrtomb
 .text          0x000000000826ad30       0x5c /home/vboxuser/topst/buildtools/gcc-linaro-7.2.1-2017.11-x86_64_arm-eabi/arm-eabi/libc/usr/lib/libc.a(lib_a-wcsrtombs.o)
                0x000000000826ad30                _wcsrtombs_r
                0x000000000826ad54                wcsrtombs
 *fill*         0x000000000826ad8c        0x4 
 .text          0x000000000826ad90     0x17dc /home/vboxuser/topst/buildtools/gcc-linaro-7.2.1-2017.11-x86_64_arm-eabi/arm-eabi/libc/usr/lib/libc.a(lib_a-dtoa.o)
                0x000000000826af78                _dtoa_r
 .text          0x000000000826c56c      0x3dc /home/vboxuser/topst/buildtools/gcc-linaro-7.2.1-2017.11-x86_64_arm-eabi/arm-eabi/libc/usr/lib/libc.a(lib_a-freer.o)
                0x000000000826c56c                _malloc_trim_r
                0x000000000826c66c                _free_r
 .text          0x000000000826c948        0x0 /home/vboxuser/topst/buildtools/gcc-linaro-7.2.1-2017.11-x86_64_arm-eabi/arm-eabi/libc/usr/lib/libc.a(lib_a-impure.o)
 .text          0x000000000826c948      0xd0c /home/vboxuser/topst/buildtools/gcc-linaro-7.2.1-2017.11-x86_64_arm-eabi/arm-eabi/libc/usr/lib/libc.a(lib_a-locale.o)
                0x000000000826c9dc                __loadlocale
                0x000000000826d214                __get_locale_env
                0x000000000826d2a8                _setlocale_r
                0x000000000826d5e4                __locale_mb_cur_max
                0x000000000826d60c                __locale_ctype_ptr_l
                0x000000000826d614                __locale_ctype_ptr
                0x000000000826d63c                setlocale
 .text          0x000000000826d654       0x58 /home/vboxuser/topst/buildtools/gcc-linaro-7.2.1-2017.11-x86_64_arm-eabi/arm-eabi/libc/usr/lib/libc.a(lib_a-localeconv.o)
                0x000000000826d654                __localeconv_l
                0x000000000826d65c                _localeconv_r
                0x000000000826d684                localeconv
 .text          0x000000000826d6ac      0x760 /home/vboxuser/topst/buildtools/gcc-linaro-7.2.1-2017.11-x86_64_arm-eabi/arm-eabi/libc/usr/lib/libc.a(lib_a-mallocr.o)
                0x000000000826d6ac                _malloc_r
 .text          0x000000000826de0c      0x744 /home/vboxuser/topst/buildtools/gcc-linaro-7.2.1-2017.11-x86_64_arm-eabi/arm-eabi/libc/usr/lib/libc.a(lib_a-mbtowc_r.o)
                0x000000000826de0c                _mbtowc_r
                0x000000000826de40                __ascii_mbtowc
                0x000000000826de84                __utf8_mbtowc
                0x000000000826e18c                __sjis_mbtowc
                0x000000000826e260                __eucjp_mbtowc
                0x000000000826e398                __jis_mbtowc
 .text          0x000000000826e550      0x110 /home/vboxuser/topst/buildtools/gcc-linaro-7.2.1-2017.11-x86_64_arm-eabi/arm-eabi/libc/usr/lib/libc.a(lib_a-memchr-stub.o)
                0x000000000826e550                memchr
 .text          0x000000000826e660        0x8 /home/vboxuser/topst/buildtools/gcc-linaro-7.2.1-2017.11-x86_64_arm-eabi/arm-eabi/libc/usr/lib/libc.a(lib_a-mlock.o)
                0x000000000826e660                __malloc_lock
                0x000000000826e664                __malloc_unlock
 .text          0x000000000826e668      0xdb8 /home/vboxuser/topst/buildtools/gcc-linaro-7.2.1-2017.11-x86_64_arm-eabi/arm-eabi/libc/usr/lib/libc.a(lib_a-mprec.o)
                0x000000000826e668                _Balloc
                0x000000000826e6f4                _Bfree
                0x000000000826e710                __multadd
                0x000000000826e7ec                __s2b
                0x000000000826e8d0                __hi0bits
                0x000000000826e928                __lo0bits
                0x000000000826e9c8                __i2b
                0x000000000826e9ec                __multiply
                0x000000000826ebec                __pow5mult
                0x000000000826ecf0                __lshift
                0x000000000826ede4                __mcmp
                0x000000000826ee44                __mdiff
                0x000000000826efcc                __ulp
                0x000000000826f034                __b2d
                0x000000000826f114                __d2b
                0x000000000826f22c                __ratio
                0x000000000826f2bc                _mprec_log10
                0x000000000826f31c                __copybits
                0x000000000826f3a8                __any_on
 .text          0x000000000826f420       0x98 /home/vboxuser/topst/buildtools/gcc-linaro-7.2.1-2017.11-x86_64_arm-eabi/arm-eabi/libc/usr/lib/libc.a(lib_a-s_frexp.o)
                0x000000000826f420                frexp
 .text          0x000000000826f4b8       0x3c /home/vboxuser/topst/buildtools/gcc-linaro-7.2.1-2017.11-x86_64_arm-eabi/arm-eabi/libc/usr/lib/libc.a(lib_a-sbrkr.o)
                0x000000000826f4b8                _sbrk_r
 .text          0x000000000826f4f4       0x70 /home/vboxuser/topst/buildtools/gcc-linaro-7.2.1-2017.11-x86_64_arm-eabi/arm-eabi/libc/usr/lib/libc.a(lib_a-strcasecmp.o)
                0x000000000826f4f4                strcasecmp
 .text          0x000000000826f564       0x74 /home/vboxuser/topst/buildtools/gcc-linaro-7.2.1-2017.11-x86_64_arm-eabi/arm-eabi/libc/usr/lib/libc.a(lib_a-strcat.o)
                0x000000000826f564                strcat
 .text          0x000000000826f5d8      0x184 /home/vboxuser/topst/buildtools/gcc-linaro-7.2.1-2017.11-x86_64_arm-eabi/arm-eabi/libc/usr/lib/libc.a(lib_a-strchr.o)
                0x000000000826f5d8                strchr
 .text          0x000000000826f75c      0x224 /home/vboxuser/topst/buildtools/gcc-linaro-7.2.1-2017.11-x86_64_arm-eabi/arm-eabi/libc/usr/lib/libc.a(lib_a-strcmp.o)
                0x000000000826f75c                strcmp
 .text          0x000000000826f980       0xf0 /home/vboxuser/topst/buildtools/gcc-linaro-7.2.1-2017.11-x86_64_arm-eabi/arm-eabi/libc/usr/lib/libc.a(lib_a-strcpy.o)
                0x000000000826f980                strcpy
 .text          0x000000000826fa70       0x54 /home/vboxuser/topst/buildtools/gcc-linaro-7.2.1-2017.11-x86_64_arm-eabi/arm-eabi/libc/usr/lib/libc.a(lib_a-strlcpy.o)
                0x000000000826fa70                strlcpy
 .text          0x000000000826fac4       0x94 /home/vboxuser/topst/buildtools/gcc-linaro-7.2.1-2017.11-x86_64_arm-eabi/arm-eabi/libc/usr/lib/libc.a(lib_a-strncasecmp.o)
                0x000000000826fac4                strncasecmp
 .text          0x000000000826fb58     0x9c7c /home/vboxuser/topst/buildtools/gcc-linaro-7.2.1-2017.11-x86_64_arm-eabi/arm-eabi/libc/usr/lib/libc.a(lib_a-svfiprintf.o)
                0x0000000008276c2c                __ssprint_r
                0x0000000008276dbc                _svfiprintf_r
 .text          0x00000000082797d4      0xa0c /home/vboxuser/topst/buildtools/gcc-linaro-7.2.1-2017.11-x86_64_arm-eabi/arm-eabi/libc/usr/lib/libc.a(lib_a-syscalls.o)
                0x000000000827988c                initialise_monitor_handles
                0x000000000827993c                _swiread
                0x0000000008279980                _read
                0x0000000008279a48                _swilseek
                0x0000000008279b44                _lseek
                0x0000000008279b64                _swiwrite
                0x0000000008279ba8                _write
                0x0000000008279c74                _swiopen
                0x0000000008279d78                _open
                0x0000000008279dac                _swiclose
                0x0000000008279e20                _close
                0x0000000008279e40                _kill
                0x0000000008279e78                _exit
                0x0000000008279ea0                _getpid
                0x0000000008279ea8                _sbrk
                0x0000000008279f08                _fstat
                0x0000000008279f3c                _stat
                0x0000000008279fa8                _link
                0x0000000008279fb0                _unlink
                0x000000000827a008                _raise
                0x000000000827a00c                _gettimeofday
                0x000000000827a054                _times
                0x000000000827a090                _isatty
                0x000000000827a0e0                _system
                0x000000000827a174                _rename
 .text          0x000000000827a1e0      0x21c /home/vboxuser/topst/buildtools/gcc-linaro-7.2.1-2017.11-x86_64_arm-eabi/arm-eabi/libc/usr/lib/libc.a(lib_a-wcsnrtombs.o)
                0x000000000827a1e0                _wcsnrtombs_l
                0x000000000827a35c                _wcsnrtombs_r
                0x000000000827a3a4                wcsnrtombs
 .text          0x000000000827a3fc      0x35c /home/vboxuser/topst/buildtools/gcc-linaro-7.2.1-2017.11-x86_64_arm-eabi/arm-eabi/libc/usr/lib/libc.a(lib_a-wctomb_r.o)
                0x000000000827a3fc                _wctomb_r
                0x000000000827a430                __ascii_wctomb
                0x000000000827a458                __utf8_wctomb
                0x000000000827a544                __sjis_wctomb
                0x000000000827a5cc                __eucjp_wctomb
                0x000000000827a67c                __jis_wctomb
 .text          0x000000000827a758       0x98 /home/vboxuser/topst/buildtools/gcc-linaro-7.2.1-2017.11-x86_64_arm-eabi/arm-eabi/libc/usr/lib/libc.a(lib_a-callocr.o)
                0x000000000827a758                _calloc_r
 .text          0x000000000827a7f0       0x10 /home/vboxuser/topst/buildtools/gcc-linaro-7.2.1-2017.11-x86_64_arm-eabi/arm-eabi/libc/usr/lib/libc.a(lib_a-ctype_.o)
                0x000000000827a7f0                __set_ctype
 .text          0x000000000827a800       0x10 /home/vboxuser/topst/buildtools/gcc-linaro-7.2.1-2017.11-x86_64_arm-eabi/arm-eabi/libc/usr/lib/libc.a(lib_a-errno.o)
                0x000000000827a800                __errno
 .text          0x000000000827a810      0x340 /home/vboxuser/topst/buildtools/gcc-linaro-7.2.1-2017.11-x86_64_arm-eabi/arm-eabi/libc/usr/lib/libc.a(lib_a-findfp.o)
                0x000000000827a818                _cleanup_r
                0x000000000827a980                __sfmoreglue
                0x000000000827a9d0                __sfp
                0x000000000827aac4                _cleanup
                0x000000000827aae8                __sinit
                0x000000000827aaf8                __sfp_lock_acquire
                0x000000000827aafc                __sfp_lock_release
                0x000000000827ab00                __sinit_lock_acquire
                0x000000000827ab04                __sinit_lock_release
                0x000000000827ab08                __fp_lock_all
                0x000000000827ab2c                __fp_unlock_all
 .text          0x000000000827ab50       0xf8 /home/vboxuser/topst/buildtools/gcc-linaro-7.2.1-2017.11-x86_64_arm-eabi/arm-eabi/libc/usr/lib/libc.a(lib_a-fwalk.o)
                0x000000000827ab50                _fwalk
                0x000000000827abc8                _fwalk_reent
 .text          0x000000000827ac48       0xec /home/vboxuser/topst/buildtools/gcc-linaro-7.2.1-2017.11-x86_64_arm-eabi/arm-eabi/libc/usr/lib/libc.a(lib_a-getenv_r.o)
                0x000000000827ac48                _findenv_r
                0x000000000827ad18                _getenv_r
 .text          0x000000000827ad34      0x140 /home/vboxuser/topst/buildtools/gcc-linaro-7.2.1-2017.11-x86_64_arm-eabi/arm-eabi/libc/usr/lib/libc.a(lib_a-memmove.o)
                0x000000000827ad34                memmove
 .text          0x000000000827ae74      0x4dc /home/vboxuser/topst/buildtools/gcc-linaro-7.2.1-2017.11-x86_64_arm-eabi/arm-eabi/libc/usr/lib/libc.a(lib_a-reallocr.o)
                0x000000000827ae74                _realloc_r
 .text          0x000000000827b350      0x124 /home/vboxuser/topst/buildtools/gcc-linaro-7.2.1-2017.11-x86_64_arm-eabi/arm-eabi/libc/usr/lib/libc.a(lib_a-reent.o)
                0x000000000827b350                cleanup_glue
                0x000000000827b384                _reclaim_reent
 .text          0x000000000827b474       0xd8 /home/vboxuser/topst/buildtools/gcc-linaro-7.2.1-2017.11-x86_64_arm-eabi/arm-eabi/libc/usr/lib/libc.a(lib_a-stdio.o)
                0x000000000827b474                __sread
                0x000000000827b4a8                __seofread
                0x000000000827b4b0                __swrite
                0x000000000827b508                __sseek
                0x000000000827b538                __sclose
 .text          0x000000000827b54c       0x48 /home/vboxuser/topst/buildtools/gcc-linaro-7.2.1-2017.11-x86_64_arm-eabi/arm-eabi/libc/usr/lib/libc.a(lib_a-writer.o)
                0x000000000827b54c                _write_r
 .text          0x000000000827b594       0x3c /home/vboxuser/topst/buildtools/gcc-linaro-7.2.1-2017.11-x86_64_arm-eabi/arm-eabi/libc/usr/lib/libc.a(lib_a-closer.o)
                0x000000000827b594                _close_r
 .text          0x000000000827b5d0        0x0 /home/vboxuser/topst/buildtools/gcc-linaro-7.2.1-2017.11-x86_64_arm-eabi/arm-eabi/libc/usr/lib/libc.a(lib_a-environ.o)
 .text          0x000000000827b5d0        0x8 /home/vboxuser/topst/buildtools/gcc-linaro-7.2.1-2017.11-x86_64_arm-eabi/arm-eabi/libc/usr/lib/libc.a(lib_a-envlock.o)
                0x000000000827b5d0                __env_lock
                0x000000000827b5d4                __env_unlock
 .text          0x000000000827b5d8      0x114 /home/vboxuser/topst/buildtools/gcc-linaro-7.2.1-2017.11-x86_64_arm-eabi/arm-eabi/libc/usr/lib/libc.a(lib_a-fclose.o)
                0x000000000827b5d8                _fclose_r
                0x000000000827b6d8                fclose
 .text          0x000000000827b6ec      0x2dc /home/vboxuser/topst/buildtools/gcc-linaro-7.2.1-2017.11-x86_64_arm-eabi/arm-eabi/libc/usr/lib/libc.a(lib_a-fflush.o)
                0x000000000827b6ec                __sflush_r
                0x000000000827b934                _fflush_r
                0x000000000827b990                fflush
 .text          0x000000000827b9c8       0x48 /home/vboxuser/topst/buildtools/gcc-linaro-7.2.1-2017.11-x86_64_arm-eabi/arm-eabi/libc/usr/lib/libc.a(lib_a-lseekr.o)
                0x000000000827b9c8                _lseek_r
 .text          0x000000000827ba10       0x48 /home/vboxuser/topst/buildtools/gcc-linaro-7.2.1-2017.11-x86_64_arm-eabi/arm-eabi/libc/usr/lib/libc.a(lib_a-readr.o)
                0x000000000827ba10                _read_r
 .text          0x000000000827ba58      0x114 /home/vboxuser/topst/buildtools/gcc-linaro-7.2.1-2017.11-x86_64_arm-eabi/arm-eabi/libc/usr/lib/libgcc.a(_udivsi3.o)
                0x000000000827ba58                __udivsi3
                0x000000000827ba58                __aeabi_uidiv
                0x000000000827bb4c                __aeabi_uidivmod
 .text          0x000000000827bb6c        0x4 /home/vboxuser/topst/buildtools/gcc-linaro-7.2.1-2017.11-x86_64_arm-eabi/arm-eabi/libc/usr/lib/libgcc.a(_dvmd_tls.o)
                0x000000000827bb6c                __aeabi_ldiv0
                0x000000000827bb6c                __aeabi_idiv0
 .text          0x000000000827bb70      0x424 /home/vboxuser/topst/buildtools/gcc-linaro-7.2.1-2017.11-x86_64_arm-eabi/arm-eabi/libc/usr/lib/libgcc.a(_arm_addsubdf3.o)
                0x000000000827bb70                __aeabi_drsub
                0x000000000827bb78                __aeabi_dsub
                0x000000000827bb78                __subdf3
                0x000000000827bb7c                __adddf3
                0x000000000827bb7c                __aeabi_dadd
                0x000000000827be8c                __aeabi_ui2d
                0x000000000827be8c                __floatunsidf
                0x000000000827beb0                __floatsidf
                0x000000000827beb0                __aeabi_i2d
                0x000000000827bed8                __extendsfdf2
                0x000000000827bed8                __aeabi_f2d
                0x000000000827bf20                __aeabi_ul2d
                0x000000000827bf20                __floatundidf
                0x000000000827bf34                __floatdidf
                0x000000000827bf34                __aeabi_l2d
 .text          0x000000000827bf94      0x49c /home/vboxuser/topst/buildtools/gcc-linaro-7.2.1-2017.11-x86_64_arm-eabi/arm-eabi/libc/usr/lib/libgcc.a(_arm_muldivdf3.o)
                0x000000000827bf94                __aeabi_dmul
                0x000000000827bf94                __muldf3
                0x000000000827c224                __aeabi_ddiv
                0x000000000827c224                __divdf3
 .text          0x000000000827c430      0x144 /home/vboxuser/topst/buildtools/gcc-linaro-7.2.1-2017.11-x86_64_arm-eabi/arm-eabi/libc/usr/lib/libgcc.a(_arm_cmpdf2.o)
                0x000000000827c430                __gtdf2
                0x000000000827c430                __gedf2
                0x000000000827c438                __ltdf2
                0x000000000827c438                __ledf2
                0x000000000827c440                __cmpdf2
                0x000000000827c440                __eqdf2
                0x000000000827c440                __nedf2
                0x000000000827c4c8                __aeabi_cdrcmple
                0x000000000827c4e4                __aeabi_cdcmple
                0x000000000827c4e4                __aeabi_cdcmpeq
                0x000000000827c4fc                __aeabi_dcmpeq
                0x000000000827c514                __aeabi_dcmplt
                0x000000000827c52c                __aeabi_dcmple
                0x000000000827c544                __aeabi_dcmpge
                0x000000000827c55c                __aeabi_dcmpgt
 .text          0x000000000827c574       0x38 /home/vboxuser/topst/buildtools/gcc-linaro-7.2.1-2017.11-x86_64_arm-eabi/arm-eabi/libc/usr/lib/libgcc.a(_arm_unorddf2.o)
                0x000000000827c574                __aeabi_dcmpun
                0x000000000827c574                __unorddf2
 .text          0x000000000827c5ac       0x5c /home/vboxuser/topst/buildtools/gcc-linaro-7.2.1-2017.11-x86_64_arm-eabi/arm-eabi/libc/usr/lib/libgcc.a(_arm_fixdfsi.o)
                0x000000000827c5ac                __fixdfsi
                0x000000000827c5ac                __aeabi_d2iz
 .text          0x000000000827c608       0x54 /home/vboxuser/topst/buildtools/gcc-linaro-7.2.1-2017.11-x86_64_arm-eabi/arm-eabi/libc/usr/lib/libgcc.a(_arm_fixunsdfsi.o)
                0x000000000827c608                __fixunsdfsi
                0x000000000827c608                __aeabi_d2uiz
 .text          0x000000000827c65c      0x2ac /home/vboxuser/topst/buildtools/gcc-linaro-7.2.1-2017.11-x86_64_arm-eabi/arm-eabi/libc/usr/lib/libgcc.a(_arm_addsubsf3.o)
                0x000000000827c65c                __aeabi_frsub
                0x000000000827c664                __subsf3
                0x000000000827c664                __aeabi_fsub
                0x000000000827c668                __aeabi_fadd
                0x000000000827c668                __addsf3
                0x000000000827c824                __aeabi_ui2f
                0x000000000827c824                __floatunsisf
                0x000000000827c82c                __aeabi_i2f
                0x000000000827c82c                __floatsisf
                0x000000000827c84c                __floatundisf
                0x000000000827c84c                __aeabi_ul2f
                0x000000000827c85c                __floatdisf
                0x000000000827c85c                __aeabi_l2f
 .text          0x000000000827c908      0x2f8 /home/vboxuser/topst/buildtools/gcc-linaro-7.2.1-2017.11-x86_64_arm-eabi/arm-eabi/libc/usr/lib/libgcc.a(_arm_muldivsf3.o)
                0x000000000827c908                __mulsf3
                0x000000000827c908                __aeabi_fmul
                0x000000000827caa0                __divsf3
                0x000000000827caa0                __aeabi_fdiv
 .text          0x000000000827cc00       0x54 /home/vboxuser/topst/buildtools/gcc-linaro-7.2.1-2017.11-x86_64_arm-eabi/arm-eabi/libc/usr/lib/libgcc.a(_arm_fixunssfsi.o)
                0x000000000827cc00                __aeabi_f2uiz
                0x000000000827cc00                __fixunssfsi
 .text          0x000000000827cc54       0x3c /home/vboxuser/topst/buildtools/gcc-linaro-7.2.1-2017.11-x86_64_arm-eabi/arm-eabi/libc/usr/lib/libgcc.a(_aeabi_uldivmod.o)
                0x000000000827cc54                __aeabi_uldivmod
 .text          0x000000000827cc90      0x12c /home/vboxuser/topst/buildtools/gcc-linaro-7.2.1-2017.11-x86_64_arm-eabi/arm-eabi/libc/usr/lib/libgcc.a(_udivmoddi4.o)
                0x000000000827cc90                __udivmoddi4
 .text          0x000000000827cdbc       0x28 /home/vboxuser/topst/buildtools/gcc-linaro-7.2.1-2017.11-x86_64_arm-eabi/arm-eabi/libc/usr/lib/libgcc.a(_clzdi2.o)
                0x000000000827cdbc                __clzdi2
 .text          0x000000000827cde4       0x48 /home/vboxuser/topst/buildtools/gcc-linaro-7.2.1-2017.11-x86_64_arm-eabi/arm-eabi/libc/usr/lib/libgcc.a(_clzsi2.o)
                0x000000000827cde4                __clzsi2
 *fill*         0x000000000827ce2c        0x4 
 .text.__stub   0x000000000827ce30        0x8 linker stubs
                0x000000000827ce38                __TEXT_END__ = .
                0x000000000827ce38                . = ALIGN (0x4)

.rodata         0x000000000827ce38     0xcb48
                0x000000000827ce38                __RODATA_START__ = .
 *(.rodata)
 .rodata        0x000000000827ce38       0x35 /home/vboxuser/topst/cr5-bsp/sources/build/tcc805x/gcc/tcc805x-freertos-debug/obj/main.o
 *fill*         0x000000000827ce6d        0x3 
 .rodata        0x000000000827ce70      0xb01 /home/vboxuser/topst/cr5-bsp/sources/build/tcc805x/gcc/tcc805x-freertos-debug/obj/can_demo.o
 *fill*         0x000000000827d971        0x3 
 .rodata        0x000000000827d974      0x5b1 /home/vboxuser/topst/cr5-bsp/sources/build/tcc805x/gcc/tcc805x-freertos-debug/obj/console.o
 *fill*         0x000000000827df25        0x3 
 .rodata        0x000000000827df28      0x101 /home/vboxuser/topst/cr5-bsp/sources/build/tcc805x/gcc/tcc805x-freertos-debug/obj/fwug.o
 *fill*         0x000000000827e029        0x3 
 .rodata        0x000000000827e02c      0x145 /home/vboxuser/topst/cr5-bsp/sources/build/tcc805x/gcc/tcc805x-freertos-debug/obj/key_i2c.o
 *fill*         0x000000000827e171        0x3 
 .rodata        0x000000000827e174        0x7 /home/vboxuser/topst/cr5-bsp/sources/build/tcc805x/gcc/tcc805x-freertos-debug/obj/system_monitoring.o
 *fill*         0x000000000827e17b        0x1 
 .rodata        0x000000000827e17c      0x12b /home/vboxuser/topst/cr5-bsp/sources/build/tcc805x/gcc/tcc805x-freertos-debug/obj/bootctrl.o
 *fill*         0x000000000827e2a7        0x1 
 .rodata        0x000000000827e2a8       0x24 /home/vboxuser/topst/cr5-bsp/sources/build/tcc805x/gcc/tcc805x-freertos-debug/obj/reset_demo.o
 .rodata        0x000000000827e2cc      0x295 /home/vboxuser/topst/cr5-bsp/sources/build/tcc805x/gcc/tcc805x-freertos-debug/obj/adc_test.o
 *fill*         0x000000000827e561        0x3 
 .rodata        0x000000000827e564      0x5af /home/vboxuser/topst/cr5-bsp/sources/build/tcc805x/gcc/tcc805x-freertos-debug/obj/dse_test.o
 *fill*         0x000000000827eb13        0x1 
 .rodata        0x000000000827eb14       0xe9 /home/vboxuser/topst/cr5-bsp/sources/build/tcc805x/gcc/tcc805x-freertos-debug/obj/fmu_test.o
 *fill*         0x000000000827ebfd        0x3 
 .rodata        0x000000000827ec00      0x1ba /home/vboxuser/topst/cr5-bsp/sources/build/tcc805x/gcc/tcc805x-freertos-debug/obj/gdma_test.o
 *fill*         0x000000000827edba        0x2 
 .rodata        0x000000000827edbc      0x1f6 /home/vboxuser/topst/cr5-bsp/sources/build/tcc805x/gcc/tcc805x-freertos-debug/obj/gic_test.o
 *fill*         0x000000000827efb2        0x2 
 .rodata        0x000000000827efb4      0x279 /home/vboxuser/topst/cr5-bsp/sources/build/tcc805x/gcc/tcc805x-freertos-debug/obj/gpio_test.o
 *fill*         0x000000000827f22d        0x3 
 .rodata        0x000000000827f230      0xbcb /home/vboxuser/topst/cr5-bsp/sources/build/tcc805x/gcc/tcc805x-freertos-debug/obj/gpsb_test.o
 *fill*         0x000000000827fdfb        0x1 
 .rodata        0x000000000827fdfc      0xb69 /home/vboxuser/topst/cr5-bsp/sources/build/tcc805x/gcc/tcc805x-freertos-debug/obj/hsm_test.o
 *fill*         0x0000000008280965        0x3 
 .rodata        0x0000000008280968      0x441 /home/vboxuser/topst/cr5-bsp/sources/build/tcc805x/gcc/tcc805x-freertos-debug/obj/i2c_test.o
 *fill*         0x0000000008280da9        0x3 
 .rodata        0x0000000008280dac       0xe6 /home/vboxuser/topst/cr5-bsp/sources/build/tcc805x/gcc/tcc805x-freertos-debug/obj/ictc_test.o
 *fill*         0x0000000008280e92        0x2 
 .rodata        0x0000000008280e94       0xdb /home/vboxuser/topst/cr5-bsp/sources/build/tcc805x/gcc/tcc805x-freertos-debug/obj/lin_test.o
 *fill*         0x0000000008280f6f        0x1 
 .rodata        0x0000000008280f70      0x126 /home/vboxuser/topst/cr5-bsp/sources/build/tcc805x/gcc/tcc805x-freertos-debug/obj/pdm_test.o
 *fill*         0x0000000008281096        0x2 
 .rodata        0x0000000008281098      0x55f /home/vboxuser/topst/cr5-bsp/sources/build/tcc805x/gcc/tcc805x-freertos-debug/obj/pmio_test.o
 *fill*         0x00000000082815f7        0x1 
 .rodata        0x00000000082815f8      0x4af /home/vboxuser/topst/cr5-bsp/sources/build/tcc805x/gcc/tcc805x-freertos-debug/obj/timer_test.o
 *fill*         0x0000000008281aa7        0x1 
 .rodata        0x0000000008281aa8      0xa37 /home/vboxuser/topst/cr5-bsp/sources/build/tcc805x/gcc/tcc805x-freertos-debug/obj/wdt_test.o
 *fill*         0x00000000082824df        0x1 
 .rodata        0x00000000082824e0       0xde /home/vboxuser/topst/cr5-bsp/sources/build/tcc805x/gcc/tcc805x-freertos-debug/obj/pwm_test.o
 *fill*         0x00000000082825be        0x2 
 .rodata        0x00000000082825c0       0x92 /home/vboxuser/topst/cr5-bsp/sources/build/tcc805x/gcc/tcc805x-freertos-debug/obj/hap.o
 *fill*         0x0000000008282652        0x2 
 .rodata        0x0000000008282654       0x68 /home/vboxuser/topst/cr5-bsp/sources/build/tcc805x/gcc/tcc805x-freertos-debug/obj/mptool.o
 .rodata        0x00000000082826bc      0x1b3 /home/vboxuser/topst/cr5-bsp/sources/build/tcc805x/gcc/tcc805x-freertos-debug/obj/ipc_os.o
 *fill*         0x000000000828286f        0x1 
 .rodata        0x0000000008282870       0xe2 /home/vboxuser/topst/cr5-bsp/sources/build/tcc805x/gcc/tcc805x-freertos-debug/obj/ipc_buffer.o
 *fill*         0x0000000008282952        0x2 
 .rodata        0x0000000008282954      0x183 /home/vboxuser/topst/cr5-bsp/sources/build/tcc805x/gcc/tcc805x-freertos-debug/obj/ipc_ctl.o
 *fill*         0x0000000008282ad7        0x1 
 .rodata        0x0000000008282ad8       0x38 /home/vboxuser/topst/cr5-bsp/sources/build/tcc805x/gcc/tcc805x-freertos-debug/obj/ipc_parser.o
 .rodata        0x0000000008282b10      0x262 /home/vboxuser/topst/cr5-bsp/sources/build/tcc805x/gcc/tcc805x-freertos-debug/obj/ipc_api.o
 *fill*         0x0000000008282d72        0x2 
 .rodata        0x0000000008282d74      0x3aa /home/vboxuser/topst/cr5-bsp/sources/build/tcc805x/gcc/tcc805x-freertos-debug/obj/lin.o
 *fill*         0x000000000828311e        0x2 
 .rodata        0x0000000008283120      0x209 /home/vboxuser/topst/cr5-bsp/sources/build/tcc805x/gcc/tcc805x-freertos-debug/obj/sdm.o
 *fill*         0x0000000008283329        0x3 
 .rodata        0x000000000828332c      0x38b /home/vboxuser/topst/cr5-bsp/sources/build/tcc805x/gcc/tcc805x-freertos-debug/obj/hsm_manager.o
 *fill*         0x00000000082836b7        0x1 
 .rodata        0x00000000082836b8       0xf5 /home/vboxuser/topst/cr5-bsp/sources/build/tcc805x/gcc/tcc805x-freertos-debug/obj/adc.o
 *fill*         0x00000000082837ad        0x3 
 .rodata        0x00000000082837b0       0x9f /home/vboxuser/topst/cr5-bsp/sources/build/tcc805x/gcc/tcc805x-freertos-debug/obj/can.o
 *fill*         0x000000000828384f        0x1 
 .rodata        0x0000000008283850      0x4ee /home/vboxuser/topst/cr5-bsp/sources/build/tcc805x/gcc/tcc805x-freertos-debug/obj/can_drv.o
 *fill*         0x0000000008283d3e        0x2 
 .rodata        0x0000000008283d40       0x25 /home/vboxuser/topst/cr5-bsp/sources/build/tcc805x/gcc/tcc805x-freertos-debug/obj/debug.o
 *fill*         0x0000000008283d65        0x3 
 .rodata        0x0000000008283d68       0x3a /home/vboxuser/topst/cr5-bsp/sources/build/tcc805x/gcc/tcc805x-freertos-debug/obj/bsp.o
 *fill*         0x0000000008283da2        0x2 
 .rodata        0x0000000008283da4      0x365 /home/vboxuser/topst/cr5-bsp/sources/build/tcc805x/gcc/tcc805x-freertos-debug/obj/fmu.o
 *fill*         0x0000000008284109        0x3 
 .rodata        0x000000000828410c      0x164 /home/vboxuser/topst/cr5-bsp/sources/build/tcc805x/gcc/tcc805x-freertos-debug/obj/gdma.o
 .rodata        0x0000000008284270      0x3d0 /home/vboxuser/topst/cr5-bsp/sources/build/tcc805x/gcc/tcc805x-freertos-debug/obj/gic.o
 .rodata        0x0000000008284640       0x77 /home/vboxuser/topst/cr5-bsp/sources/build/tcc805x/gcc/tcc805x-freertos-debug/obj/gpio.o
 *fill*         0x00000000082846b7        0x1 
 .rodata        0x00000000082846b8      0x93e /home/vboxuser/topst/cr5-bsp/sources/build/tcc805x/gcc/tcc805x-freertos-debug/obj/i2c.o
 *fill*         0x0000000008284ff6        0x2 
 .rodata        0x0000000008284ff8      0x1ec /home/vboxuser/topst/cr5-bsp/sources/build/tcc805x/gcc/tcc805x-freertos-debug/obj/i2c_reg.o
                0x0000000008284ff8                i2cport
 .rodata        0x00000000082851e4      0x32a /home/vboxuser/topst/cr5-bsp/sources/build/tcc805x/gcc/tcc805x-freertos-debug/obj/ictc.o
 *fill*         0x000000000828550e        0x2 
 .rodata        0x0000000008285510      0x620 /home/vboxuser/topst/cr5-bsp/sources/build/tcc805x/gcc/tcc805x-freertos-debug/obj/mbox_dev.o
 .rodata        0x0000000008285b30      0x342 /home/vboxuser/topst/cr5-bsp/sources/build/tcc805x/gcc/tcc805x-freertos-debug/obj/mbox.o
 *fill*         0x0000000008285e72        0x2 
 .rodata        0x0000000008285e74       0xc0 /home/vboxuser/topst/cr5-bsp/sources/build/tcc805x/gcc/tcc805x-freertos-debug/obj/mpu.o
                0x0000000008285e74                sMPUTable
 .rodata        0x0000000008285f34      0x1ea /home/vboxuser/topst/cr5-bsp/sources/build/tcc805x/gcc/tcc805x-freertos-debug/obj/pdm.o
 *fill*         0x000000000828611e        0x2 
 .rodata        0x0000000008286120      0xc45 /home/vboxuser/topst/cr5-bsp/sources/build/tcc805x/gcc/tcc805x-freertos-debug/obj/pmio_dev.o
 *fill*         0x0000000008286d65        0x3 
 .rodata        0x0000000008286d68     0x13b1 /home/vboxuser/topst/cr5-bsp/sources/build/tcc805x/gcc/tcc805x-freertos-debug/obj/gpsb.o
 *fill*         0x0000000008288119        0x3 
 .rodata        0x000000000828811c      0x2d8 /home/vboxuser/topst/cr5-bsp/sources/build/tcc805x/gcc/tcc805x-freertos-debug/obj/gpsb_reg.o
                0x000000000828811c                gpsbport
                0x00000000082883dc                gpsb_sm
 .rodata        0x00000000082883f4      0x17b /home/vboxuser/topst/cr5-bsp/sources/build/tcc805x/gcc/tcc805x-freertos-debug/obj/timer.o
 *fill*         0x000000000828856f        0x1 
 .rodata        0x0000000008288570      0x531 /home/vboxuser/topst/cr5-bsp/sources/build/tcc805x/gcc/tcc805x-freertos-debug/obj/uart.o
 *fill*         0x0000000008288aa1        0x3 
 .rodata        0x0000000008288aa4      0x13e /home/vboxuser/topst/cr5-bsp/sources/build/tcc805x/gcc/tcc805x-freertos-debug/obj/udma.o
 *fill*         0x0000000008288be2        0x2 
 .rodata        0x0000000008288be4      0x18d /home/vboxuser/topst/cr5-bsp/sources/build/tcc805x/gcc/tcc805x-freertos-debug/obj/wdt.o
 *fill*         0x0000000008288d71        0x3 
 .rodata        0x0000000008288d74       0xb8 /home/vboxuser/topst/cr5-bsp/sources/build/tcc805x/gcc/tcc805x-freertos-debug/obj/dse.o
 .rodata        0x0000000008288e2c       0xde /home/vboxuser/topst/cr5-bsp/sources/build/tcc805x/gcc/tcc805x-freertos-debug/obj/pmu_reset.o
 *fill*         0x0000000008288f0a        0x2 
 .rodata        0x0000000008288f0c        0x5 /home/vboxuser/topst/cr5-bsp/sources/build/tcc805x/gcc/tcc805x-freertos-debug/obj/tasks.o
 *fill*         0x0000000008288f11        0x3 
 .rodata        0x0000000008288f14        0xd /home/vboxuser/topst/cr5-bsp/sources/build/tcc805x/gcc/tcc805x-freertos-debug/obj/timers.o
 *fill*         0x0000000008288f21        0x3 
 .rodata        0x0000000008288f24       0x20 /home/vboxuser/topst/cr5-bsp/sources/build/tcc805x/gcc/tcc805x-freertos-debug/obj/port.o
                0x0000000008288f24                ulICCIAR
                0x0000000008288f28                ulICCEOIR
                0x0000000008288f2c                ulICCPMR
                0x0000000008288f30                ulMaxAPIPriorityMask
 .rodata        0x0000000008288f44        0x4 /home/vboxuser/topst/cr5-bsp/sources/build/tcc805x/gcc/tcc805x-freertos-debug/obj/heap_5.o
 .rodata        0x0000000008288f48      0x249 /home/vboxuser/topst/cr5-bsp/sources/build/tcc805x/gcc/tcc805x-freertos-debug/obj/sal_freertos_impl.o
 *fill*         0x0000000008289191        0x3 
 .rodata        0x0000000008289194       0x20 /home/vboxuser/topst/buildtools/gcc-linaro-7.2.1-2017.11-x86_64_arm-eabi/arm-eabi/libc/usr/lib/libc.a(lib_a-svfprintf.o)
 .rodata        0x00000000082891b4        0x4 /home/vboxuser/topst/buildtools/gcc-linaro-7.2.1-2017.11-x86_64_arm-eabi/arm-eabi/libc/usr/lib/libc.a(lib_a-impure.o)
                0x00000000082891b4                _global_impure_ptr
 .rodata        0x00000000082891b8      0x188 /home/vboxuser/topst/buildtools/gcc-linaro-7.2.1-2017.11-x86_64_arm-eabi/arm-eabi/libc/usr/lib/libc.a(lib_a-locale.o)
                0x00000000082891d4                __C_locale
 .rodata        0x0000000008289340       0x90 /home/vboxuser/topst/buildtools/gcc-linaro-7.2.1-2017.11-x86_64_arm-eabi/arm-eabi/libc/usr/lib/libc.a(lib_a-mbtowc_r.o)
 .rodata        0x00000000082893d0      0x128 /home/vboxuser/topst/buildtools/gcc-linaro-7.2.1-2017.11-x86_64_arm-eabi/arm-eabi/libc/usr/lib/libc.a(lib_a-mprec.o)
                0x00000000082893e0                __mprec_tens
                0x00000000082894a8                __mprec_tinytens
                0x00000000082894d0                __mprec_bigtens
 .rodata        0x00000000082894f8      0x1f8 /home/vboxuser/topst/buildtools/gcc-linaro-7.2.1-2017.11-x86_64_arm-eabi/arm-eabi/libc/usr/lib/libc.a(lib_a-svfiprintf.o)
                0x00000000082894f8                __chclass
                0x00000000082895f8                __state_table
                0x0000000008289664                __action_table
 .rodata        0x00000000082896f0      0x101 /home/vboxuser/topst/buildtools/gcc-linaro-7.2.1-2017.11-x86_64_arm-eabi/arm-eabi/libc/usr/lib/libc.a(lib_a-ctype_.o)
                0x00000000082896f0                _ctype_
 *(.rodata.*)
 *fill*         0x00000000082897f1        0x3 
 .rodata.str1.4
                0x00000000082897f4       0x42 /home/vboxuser/topst/buildtools/gcc-linaro-7.2.1-2017.11-x86_64_arm-eabi/arm-eabi/libc/usr/lib/libc.a(lib_a-svfprintf.o)
 *fill*         0x0000000008289836        0x2 
 .rodata.str1.4
                0x0000000008289838       0x10 /home/vboxuser/topst/buildtools/gcc-linaro-7.2.1-2017.11-x86_64_arm-eabi/arm-eabi/libc/usr/lib/libc.a(lib_a-dtoa.o)
                                         0x12 (size before relaxing)
 .rodata.str1.4
                0x0000000008289848      0x12c /home/vboxuser/topst/buildtools/gcc-linaro-7.2.1-2017.11-x86_64_arm-eabi/arm-eabi/libc/usr/lib/libc.a(lib_a-locale.o)
                                        0x130 (size before relaxing)
 .rodata.str1.4
                0x0000000008289974       0x2f /home/vboxuser/topst/buildtools/gcc-linaro-7.2.1-2017.11-x86_64_arm-eabi/arm-eabi/libc/usr/lib/libc.a(lib_a-svfiprintf.o)
 .rodata.str1.4
                0x0000000008289974        0x4 /home/vboxuser/topst/buildtools/gcc-linaro-7.2.1-2017.11-x86_64_arm-eabi/arm-eabi/libc/usr/lib/libc.a(lib_a-syscalls.o)
 *(.const)
 *(.const.*)
                0x00000000082899c0                . = ALIGN (0x20)
 *fill*         0x0000000008289978        0x8 
                0x0000000008289980                __RODATA_END__ = .

.vector         0x0000000006000000       0x60 load address 0x0000000008289980
                0x0000000008289980                __VECTOR_START_LOAD = LOADADDR (.vector)
                0x0000000006000000                __VECTOR_START__ = .
 *vector.o(.vector .text .rodata .rodata*)
 .vector        0x0000000006000000       0x50 /home/vboxuser/topst/cr5-bsp/sources/build/tcc805x/gcc/tcc805x-freertos-debug/obj/vector.o
                0x0000000006000000                _vector
                0x0000000006000000                _start
                0x0000000006000024                ARM_Reserved
                0x0000000006000060                . = ALIGN (0x20)
 *fill*         0x0000000006000050       0x10 
                0x0000000006000060                __VECTOR_END__ = .

.data           0x0000000006000060     0x3500 load address 0x00000000082899e0
                0x00000000082899e0                __DATA_START_LOAD = LOADADDR (.data)
                0x0000000006000060                __DATA_START__ = .
 *(.data)
 .data          0x0000000006000060        0x0 /home/vboxuser/topst/cr5-bsp/sources/build/tcc805x/gcc/tcc805x-freertos-debug/obj/main.o
 .data          0x0000000006000060      0x2f4 /home/vboxuser/topst/cr5-bsp/sources/build/tcc805x/gcc/tcc805x-freertos-debug/obj/can_demo.o
 .data          0x0000000006000354      0x1a4 /home/vboxuser/topst/cr5-bsp/sources/build/tcc805x/gcc/tcc805x-freertos-debug/obj/console.o
 .data          0x00000000060004f8        0x0 /home/vboxuser/topst/cr5-bsp/sources/build/tcc805x/gcc/tcc805x-freertos-debug/obj/fwug.o
 .data          0x00000000060004f8       0xf8 /home/vboxuser/topst/cr5-bsp/sources/build/tcc805x/gcc/tcc805x-freertos-debug/obj/key_adc.o
 .data          0x00000000060005f0        0x0 /home/vboxuser/topst/cr5-bsp/sources/build/tcc805x/gcc/tcc805x-freertos-debug/obj/key_gpio.o
 .data          0x00000000060005f0       0x74 /home/vboxuser/topst/cr5-bsp/sources/build/tcc805x/gcc/tcc805x-freertos-debug/obj/key_i2c.o
 .data          0x0000000006000664        0x0 /home/vboxuser/topst/cr5-bsp/sources/build/tcc805x/gcc/tcc805x-freertos-debug/obj/key.o
 .data          0x0000000006000664        0x0 /home/vboxuser/topst/cr5-bsp/sources/build/tcc805x/gcc/tcc805x-freertos-debug/obj/system_monitoring.o
 .data          0x0000000006000664        0x8 /home/vboxuser/topst/cr5-bsp/sources/build/tcc805x/gcc/tcc805x-freertos-debug/obj/bootctrl.o
 .data          0x000000000600066c        0x0 /home/vboxuser/topst/cr5-bsp/sources/build/tcc805x/gcc/tcc805x-freertos-debug/obj/reset_demo.o
 .data          0x000000000600066c        0xc /home/vboxuser/topst/cr5-bsp/sources/build/tcc805x/gcc/tcc805x-freertos-debug/obj/adc_test.o
 .data          0x0000000006000678        0x0 /home/vboxuser/topst/cr5-bsp/sources/build/tcc805x/gcc/tcc805x-freertos-debug/obj/dse_test.o
 .data          0x0000000006000678        0x0 /home/vboxuser/topst/cr5-bsp/sources/build/tcc805x/gcc/tcc805x-freertos-debug/obj/fmu_test.o
 .data          0x0000000006000678        0x0 /home/vboxuser/topst/cr5-bsp/sources/build/tcc805x/gcc/tcc805x-freertos-debug/obj/gdma_test.o
 .data          0x0000000006000678        0x0 /home/vboxuser/topst/cr5-bsp/sources/build/tcc805x/gcc/tcc805x-freertos-debug/obj/gic_test.o
 .data          0x0000000006000678      0x628 /home/vboxuser/topst/cr5-bsp/sources/build/tcc805x/gcc/tcc805x-freertos-debug/obj/gpio_test.o
 .data          0x0000000006000ca0        0x0 /home/vboxuser/topst/cr5-bsp/sources/build/tcc805x/gcc/tcc805x-freertos-debug/obj/gpsb_test.o
 .data          0x0000000006000ca0      0x430 /home/vboxuser/topst/cr5-bsp/sources/build/tcc805x/gcc/tcc805x-freertos-debug/obj/hsm_test.o
 .data          0x00000000060010d0        0x0 /home/vboxuser/topst/cr5-bsp/sources/build/tcc805x/gcc/tcc805x-freertos-debug/obj/i2c_test.o
 .data          0x00000000060010d0        0x0 /home/vboxuser/topst/cr5-bsp/sources/build/tcc805x/gcc/tcc805x-freertos-debug/obj/ictc_test.o
 .data          0x00000000060010d0        0x0 /home/vboxuser/topst/cr5-bsp/sources/build/tcc805x/gcc/tcc805x-freertos-debug/obj/lin_test.o
 .data          0x00000000060010d0        0x0 /home/vboxuser/topst/cr5-bsp/sources/build/tcc805x/gcc/tcc805x-freertos-debug/obj/pdm_test.o
 .data          0x00000000060010d0      0x3d4 /home/vboxuser/topst/cr5-bsp/sources/build/tcc805x/gcc/tcc805x-freertos-debug/obj/pmio_test.o
 .data          0x00000000060014a4        0x0 /home/vboxuser/topst/cr5-bsp/sources/build/tcc805x/gcc/tcc805x-freertos-debug/obj/timer_test.o
 .data          0x00000000060014a4       0x20 /home/vboxuser/topst/cr5-bsp/sources/build/tcc805x/gcc/tcc805x-freertos-debug/obj/wdt_test.o
 .data          0x00000000060014c4        0x0 /home/vboxuser/topst/cr5-bsp/sources/build/tcc805x/gcc/tcc805x-freertos-debug/obj/pwm_test.o
 .data          0x00000000060014c4        0x0 /home/vboxuser/topst/cr5-bsp/sources/build/tcc805x/gcc/tcc805x-freertos-debug/obj/hap.o
 .data          0x00000000060014c4        0x0 /home/vboxuser/topst/cr5-bsp/sources/build/tcc805x/gcc/tcc805x-freertos-debug/obj/mptool.o
 .data          0x00000000060014c4        0x0 /home/vboxuser/topst/cr5-bsp/sources/build/tcc805x/gcc/tcc805x-freertos-debug/obj/ipc_os.o
 .data          0x00000000060014c4        0x0 /home/vboxuser/topst/cr5-bsp/sources/build/tcc805x/gcc/tcc805x-freertos-debug/obj/ipc_buffer.o
 .data          0x00000000060014c4        0x0 /home/vboxuser/topst/cr5-bsp/sources/build/tcc805x/gcc/tcc805x-freertos-debug/obj/ipc_cmd.o
 .data          0x00000000060014c4        0x0 /home/vboxuser/topst/cr5-bsp/sources/build/tcc805x/gcc/tcc805x-freertos-debug/obj/ipc_ctl.o
 .data          0x00000000060014c4       0x20 /home/vboxuser/topst/cr5-bsp/sources/build/tcc805x/gcc/tcc805x-freertos-debug/obj/ipc_parser.o
 .data          0x00000000060014e4        0x0 /home/vboxuser/topst/cr5-bsp/sources/build/tcc805x/gcc/tcc805x-freertos-debug/obj/ipc_api.o
 .data          0x00000000060014e4        0x0 /home/vboxuser/topst/cr5-bsp/sources/build/tcc805x/gcc/tcc805x-freertos-debug/obj/ipc.o
 .data          0x00000000060014e4        0x0 /home/vboxuser/topst/cr5-bsp/sources/build/tcc805x/gcc/tcc805x-freertos-debug/obj/lin.o
 .data          0x00000000060014e4        0x0 /home/vboxuser/topst/cr5-bsp/sources/build/tcc805x/gcc/tcc805x-freertos-debug/obj/sdm.o
 .data          0x00000000060014e4        0x0 /home/vboxuser/topst/cr5-bsp/sources/build/tcc805x/gcc/tcc805x-freertos-debug/obj/hsm_manager.o
 .data          0x00000000060014e4        0x0 /home/vboxuser/topst/cr5-bsp/sources/build/tcc805x/gcc/tcc805x-freertos-debug/obj/adc.o
 .data          0x00000000060014e4        0x0 /home/vboxuser/topst/cr5-bsp/sources/build/tcc805x/gcc/tcc805x-freertos-debug/obj/can.o
 .data          0x00000000060014e4        0x0 /home/vboxuser/topst/cr5-bsp/sources/build/tcc805x/gcc/tcc805x-freertos-debug/obj/can_drv.o
 .data          0x00000000060014e4        0x0 /home/vboxuser/topst/cr5-bsp/sources/build/tcc805x/gcc/tcc805x-freertos-debug/obj/can_msg.o
 .data          0x00000000060014e4      0x234 /home/vboxuser/topst/cr5-bsp/sources/build/tcc805x/gcc/tcc805x-freertos-debug/obj/can_par.o
                0x0000000006001694                ArbitrationPhaseTimingPar
                0x00000000060016ac                DataPhaseTimingPar
                0x00000000060016c4                TxBufferInfoPar
                0x00000000060016dc                RxBufferInfoPar
                0x00000000060016e8                RxBufferFIFO0InfoPar
                0x00000000060016f4                RxBufferFIFO1InfoPar
                0x0000000006001700                StandardIDFilterPar
                0x000000000600170c                ExtendedIDFilterPar
 .data          0x0000000006001718        0x0 /home/vboxuser/topst/cr5-bsp/sources/build/tcc805x/gcc/tcc805x-freertos-debug/obj/can_porting.o
 .data          0x0000000006001718        0x0 /home/vboxuser/topst/cr5-bsp/sources/build/tcc805x/gcc/tcc805x-freertos-debug/obj/clock_dev.o
 .data          0x0000000006001718       0xa0 /home/vboxuser/topst/cr5-bsp/sources/build/tcc805x/gcc/tcc805x-freertos-debug/obj/debug.o
                0x0000000006001718                gDebugOption
                0x000000000600171c                dbgTags
 .data          0x00000000060017b8        0x0 /home/vboxuser/topst/cr5-bsp/sources/build/tcc805x/gcc/tcc805x-freertos-debug/obj/bsp.o
 .data          0x00000000060017b8        0x0 /home/vboxuser/topst/cr5-bsp/sources/build/tcc805x/gcc/tcc805x-freertos-debug/obj/fmu.o
 .data          0x00000000060017b8        0x0 /home/vboxuser/topst/cr5-bsp/sources/build/tcc805x/gcc/tcc805x-freertos-debug/obj/gdma.o
 .data          0x00000000060017b8        0x0 /home/vboxuser/topst/cr5-bsp/sources/build/tcc805x/gcc/tcc805x-freertos-debug/obj/gic.o
 .data          0x00000000060017b8        0x0 /home/vboxuser/topst/cr5-bsp/sources/build/tcc805x/gcc/tcc805x-freertos-debug/obj/gpio.o
 .data          0x00000000060017b8        0x0 /home/vboxuser/topst/cr5-bsp/sources/build/tcc805x/gcc/tcc805x-freertos-debug/obj/i2c.o
 .data          0x00000000060017b8       0xe4 /home/vboxuser/topst/cr5-bsp/sources/build/tcc805x/gcc/tcc805x-freertos-debug/obj/i2c_reg.o
                0x00000000060017b8                i2c
 .data          0x000000000600189c        0x0 /home/vboxuser/topst/cr5-bsp/sources/build/tcc805x/gcc/tcc805x-freertos-debug/obj/ictc.o
 .data          0x000000000600189c      0xc08 /home/vboxuser/topst/cr5-bsp/sources/build/tcc805x/gcc/tcc805x-freertos-debug/obj/mbox_phy.o
                0x000000000600189c                mboxInfo
 .data          0x00000000060024a4      0x428 /home/vboxuser/topst/cr5-bsp/sources/build/tcc805x/gcc/tcc805x-freertos-debug/obj/mbox_dev.o
 .data          0x00000000060028cc        0x0 /home/vboxuser/topst/cr5-bsp/sources/build/tcc805x/gcc/tcc805x-freertos-debug/obj/mbox.o
 .data          0x00000000060028cc        0x0 /home/vboxuser/topst/cr5-bsp/sources/build/tcc805x/gcc/tcc805x-freertos-debug/obj/mpu.o
 .data          0x00000000060028cc        0x0 /home/vboxuser/topst/cr5-bsp/sources/build/tcc805x/gcc/tcc805x-freertos-debug/obj/pdm.o
 .data          0x00000000060028cc       0x20 /home/vboxuser/topst/cr5-bsp/sources/build/tcc805x/gcc/tcc805x-freertos-debug/obj/pmio_dev.o
 .data          0x00000000060028ec        0x0 /home/vboxuser/topst/cr5-bsp/sources/build/tcc805x/gcc/tcc805x-freertos-debug/obj/gpsb.o
 .data          0x00000000060028ec      0x228 /home/vboxuser/topst/cr5-bsp/sources/build/tcc805x/gcc/tcc805x-freertos-debug/obj/gpsb_reg.o
                0x00000000060028ec                gpsb
 .data          0x0000000006002b14        0x0 /home/vboxuser/topst/cr5-bsp/sources/build/tcc805x/gcc/tcc805x-freertos-debug/obj/timer.o
 .data          0x0000000006002b14       0x30 /home/vboxuser/topst/cr5-bsp/sources/build/tcc805x/gcc/tcc805x-freertos-debug/obj/uart.o
 .data          0x0000000006002b44       0x48 /home/vboxuser/topst/cr5-bsp/sources/build/tcc805x/gcc/tcc805x-freertos-debug/obj/udma.o
 .data          0x0000000006002b8c        0x0 /home/vboxuser/topst/cr5-bsp/sources/build/tcc805x/gcc/tcc805x-freertos-debug/obj/wdt.o
 .data          0x0000000006002b8c        0x0 /home/vboxuser/topst/cr5-bsp/sources/build/tcc805x/gcc/tcc805x-freertos-debug/obj/dse.o
 .data          0x0000000006002b8c        0x0 /home/vboxuser/topst/cr5-bsp/sources/build/tcc805x/gcc/tcc805x-freertos-debug/obj/midf.o
 .data          0x0000000006002b8c        0x0 /home/vboxuser/topst/cr5-bsp/sources/build/tcc805x/gcc/tcc805x-freertos-debug/obj/pmu_reset.o
 .data          0x0000000006002b8c        0x0 /home/vboxuser/topst/cr5-bsp/sources/build/tcc805x/gcc/tcc805x-freertos-debug/obj/tasks.o
 .data          0x0000000006002b8c        0x0 /home/vboxuser/topst/cr5-bsp/sources/build/tcc805x/gcc/tcc805x-freertos-debug/obj/list.o
 .data          0x0000000006002b8c        0x0 /home/vboxuser/topst/cr5-bsp/sources/build/tcc805x/gcc/tcc805x-freertos-debug/obj/queue.o
 .data          0x0000000006002b8c        0x0 /home/vboxuser/topst/cr5-bsp/sources/build/tcc805x/gcc/tcc805x-freertos-debug/obj/event_groups.o
 .data          0x0000000006002b8c        0x0 /home/vboxuser/topst/cr5-bsp/sources/build/tcc805x/gcc/tcc805x-freertos-debug/obj/timers.o
 .data          0x0000000006002b8c        0x0 /home/vboxuser/topst/cr5-bsp/sources/build/tcc805x/gcc/tcc805x-freertos-debug/obj/stream_buffer.o
 .data          0x0000000006002b8c        0x4 /home/vboxuser/topst/cr5-bsp/sources/build/tcc805x/gcc/tcc805x-freertos-debug/obj/port.o
                0x0000000006002b8c                ulCriticalNesting
 .data          0x0000000006002b90        0x0 /home/vboxuser/topst/cr5-bsp/sources/build/tcc805x/gcc/tcc805x-freertos-debug/obj/heap_5.o
 .data          0x0000000006002b90        0x0 /home/vboxuser/topst/cr5-bsp/sources/build/tcc805x/gcc/tcc805x-freertos-debug/obj/sal_api.o
 .data          0x0000000006002b90        0x0 /home/vboxuser/topst/cr5-bsp/sources/build/tcc805x/gcc/tcc805x-freertos-debug/obj/sal_freertos_impl.o
 .data          0x0000000006002b90        0x0 /home/vboxuser/topst/cr5-bsp/sources/build/tcc805x/gcc/tcc805x-freertos-debug/obj/startup.o
 .data          0x0000000006002b90        0x0 /home/vboxuser/topst/cr5-bsp/sources/build/tcc805x/gcc/tcc805x-freertos-debug/obj/vector.o
 .data          0x0000000006002b90        0x0 /home/vboxuser/topst/cr5-bsp/sources/build/tcc805x/gcc/tcc805x-freertos-debug/obj/vfp_init.o
 .data          0x0000000006002b90        0x0 /home/vboxuser/topst/cr5-bsp/sources/build/tcc805x/gcc/tcc805x-freertos-debug/obj/arm_a.o
 .data          0x0000000006002b90        0x0 /home/vboxuser/topst/cr5-bsp/sources/build/tcc805x/gcc/tcc805x-freertos-debug/obj/portASM.o
 .data          0x0000000006002b90        0x0 /home/vboxuser/topst/cr5-bsp/sources/build/tcc805x/gcc/tcc805x-freertos-debug/obj/freertos.o
 .data          0x0000000006002b90        0x0 /home/vboxuser/topst/cr5-bsp/sources/build/tcc805x/gcc/tcc805x-freertos-debug/obj/sal.o
 .data          0x0000000006002b90        0x0 /home/vboxuser/topst/buildtools/gcc-linaro-7.2.1-2017.11-x86_64_arm-eabi/arm-eabi/libc/usr/lib/libc.a(lib_a-atoi.o)
 .data          0x0000000006002b90        0x0 /home/vboxuser/topst/buildtools/gcc-linaro-7.2.1-2017.11-x86_64_arm-eabi/arm-eabi/libc/usr/lib/libc.a(lib_a-atol.o)
 .data          0x0000000006002b90        0x0 /home/vboxuser/topst/buildtools/gcc-linaro-7.2.1-2017.11-x86_64_arm-eabi/arm-eabi/libc/usr/lib/libc.a(lib_a-memcmp.o)
 .data          0x0000000006002b90        0x0 /home/vboxuser/topst/buildtools/gcc-linaro-7.2.1-2017.11-x86_64_arm-eabi/arm-eabi/libc/usr/lib/libc.a(lib_a-memcpy-stub.o)
 .data          0x0000000006002b90        0x0 /home/vboxuser/topst/buildtools/gcc-linaro-7.2.1-2017.11-x86_64_arm-eabi/arm-eabi/libc/usr/lib/libc.a(lib_a-memset.o)
 .data          0x0000000006002b90        0x0 /home/vboxuser/topst/buildtools/gcc-linaro-7.2.1-2017.11-x86_64_arm-eabi/arm-eabi/libc/usr/lib/libc.a(lib_a-snprintf.o)
 .data          0x0000000006002b90        0x0 /home/vboxuser/topst/buildtools/gcc-linaro-7.2.1-2017.11-x86_64_arm-eabi/arm-eabi/libc/usr/lib/libc.a(lib_a-strlen-stub.o)
 .data          0x0000000006002b90        0x0 /home/vboxuser/topst/buildtools/gcc-linaro-7.2.1-2017.11-x86_64_arm-eabi/arm-eabi/libc/usr/lib/libc.a(lib_a-strncmp.o)
 .data          0x0000000006002b90        0x0 /home/vboxuser/topst/buildtools/gcc-linaro-7.2.1-2017.11-x86_64_arm-eabi/arm-eabi/libc/usr/lib/libc.a(lib_a-strncpy.o)
 .data          0x0000000006002b90        0x0 /home/vboxuser/topst/buildtools/gcc-linaro-7.2.1-2017.11-x86_64_arm-eabi/arm-eabi/libc/usr/lib/libc.a(lib_a-strnlen.o)
 .data          0x0000000006002b90        0x0 /home/vboxuser/topst/buildtools/gcc-linaro-7.2.1-2017.11-x86_64_arm-eabi/arm-eabi/libc/usr/lib/libc.a(lib_a-strtol.o)
 .data          0x0000000006002b90        0x0 /home/vboxuser/topst/buildtools/gcc-linaro-7.2.1-2017.11-x86_64_arm-eabi/arm-eabi/libc/usr/lib/libc.a(lib_a-strtoul.o)
 .data          0x0000000006002b90        0x0 /home/vboxuser/topst/buildtools/gcc-linaro-7.2.1-2017.11-x86_64_arm-eabi/arm-eabi/libc/usr/lib/libc.a(lib_a-svfprintf.o)
 .data          0x0000000006002b90        0x0 /home/vboxuser/topst/buildtools/gcc-linaro-7.2.1-2017.11-x86_64_arm-eabi/arm-eabi/libc/usr/lib/libc.a(lib_a-wcrtomb.o)
 .data          0x0000000006002b90        0x0 /home/vboxuser/topst/buildtools/gcc-linaro-7.2.1-2017.11-x86_64_arm-eabi/arm-eabi/libc/usr/lib/libc.a(lib_a-wcsrtombs.o)
 .data          0x0000000006002b90        0x0 /home/vboxuser/topst/buildtools/gcc-linaro-7.2.1-2017.11-x86_64_arm-eabi/arm-eabi/libc/usr/lib/libc.a(lib_a-dtoa.o)
 .data          0x0000000006002b90        0x0 /home/vboxuser/topst/buildtools/gcc-linaro-7.2.1-2017.11-x86_64_arm-eabi/arm-eabi/libc/usr/lib/libc.a(lib_a-freer.o)
 .data          0x0000000006002b90      0x430 /home/vboxuser/topst/buildtools/gcc-linaro-7.2.1-2017.11-x86_64_arm-eabi/arm-eabi/libc/usr/lib/libc.a(lib_a-impure.o)
                0x0000000006002b90                _impure_ptr
 .data          0x0000000006002fc0      0x18c /home/vboxuser/topst/buildtools/gcc-linaro-7.2.1-2017.11-x86_64_arm-eabi/arm-eabi/libc/usr/lib/libc.a(lib_a-locale.o)
                0x0000000006002fc0                __global_locale
                0x000000000600312c                __default_locale
 .data          0x000000000600314c        0x0 /home/vboxuser/topst/buildtools/gcc-linaro-7.2.1-2017.11-x86_64_arm-eabi/arm-eabi/libc/usr/lib/libc.a(lib_a-localeconv.o)
 .data          0x000000000600314c      0x410 /home/vboxuser/topst/buildtools/gcc-linaro-7.2.1-2017.11-x86_64_arm-eabi/arm-eabi/libc/usr/lib/libc.a(lib_a-mallocr.o)
                0x000000000600314c                __malloc_av_
                0x0000000006003554                __malloc_sbrk_base
                0x0000000006003558                __malloc_trim_threshold
 .data          0x000000000600355c        0x0 /home/vboxuser/topst/buildtools/gcc-linaro-7.2.1-2017.11-x86_64_arm-eabi/arm-eabi/libc/usr/lib/libc.a(lib_a-mbtowc_r.o)
 .data          0x000000000600355c        0x0 /home/vboxuser/topst/buildtools/gcc-linaro-7.2.1-2017.11-x86_64_arm-eabi/arm-eabi/libc/usr/lib/libc.a(lib_a-memchr-stub.o)
 .data          0x000000000600355c        0x0 /home/vboxuser/topst/buildtools/gcc-linaro-7.2.1-2017.11-x86_64_arm-eabi/arm-eabi/libc/usr/lib/libc.a(lib_a-mlock.o)
 .data          0x000000000600355c        0x0 /home/vboxuser/topst/buildtools/gcc-linaro-7.2.1-2017.11-x86_64_arm-eabi/arm-eabi/libc/usr/lib/libc.a(lib_a-mprec.o)
 .data          0x000000000600355c        0x0 /home/vboxuser/topst/buildtools/gcc-linaro-7.2.1-2017.11-x86_64_arm-eabi/arm-eabi/libc/usr/lib/libc.a(lib_a-s_frexp.o)
 .data          0x000000000600355c        0x0 /home/vboxuser/topst/buildtools/gcc-linaro-7.2.1-2017.11-x86_64_arm-eabi/arm-eabi/libc/usr/lib/libc.a(lib_a-sbrkr.o)
 .data          0x000000000600355c        0x0 /home/vboxuser/topst/buildtools/gcc-linaro-7.2.1-2017.11-x86_64_arm-eabi/arm-eabi/libc/usr/lib/libc.a(lib_a-strcasecmp.o)
 .data          0x000000000600355c        0x0 /home/vboxuser/topst/buildtools/gcc-linaro-7.2.1-2017.11-x86_64_arm-eabi/arm-eabi/libc/usr/lib/libc.a(lib_a-strcat.o)
 .data          0x000000000600355c        0x0 /home/vboxuser/topst/buildtools/gcc-linaro-7.2.1-2017.11-x86_64_arm-eabi/arm-eabi/libc/usr/lib/libc.a(lib_a-strchr.o)
 .data          0x000000000600355c        0x0 /home/vboxuser/topst/buildtools/gcc-linaro-7.2.1-2017.11-x86_64_arm-eabi/arm-eabi/libc/usr/lib/libc.a(lib_a-strcmp.o)
 .data          0x000000000600355c        0x0 /home/vboxuser/topst/buildtools/gcc-linaro-7.2.1-2017.11-x86_64_arm-eabi/arm-eabi/libc/usr/lib/libc.a(lib_a-strcpy.o)
 .data          0x000000000600355c        0x0 /home/vboxuser/topst/buildtools/gcc-linaro-7.2.1-2017.11-x86_64_arm-eabi/arm-eabi/libc/usr/lib/libc.a(lib_a-strlcpy.o)
 .data          0x000000000600355c        0x0 /home/vboxuser/topst/buildtools/gcc-linaro-7.2.1-2017.11-x86_64_arm-eabi/arm-eabi/libc/usr/lib/libc.a(lib_a-strncasecmp.o)
 .data          0x000000000600355c        0x0 /home/vboxuser/topst/buildtools/gcc-linaro-7.2.1-2017.11-x86_64_arm-eabi/arm-eabi/libc/usr/lib/libc.a(lib_a-svfiprintf.o)
 .data          0x000000000600355c        0x0 /home/vboxuser/topst/buildtools/gcc-linaro-7.2.1-2017.11-x86_64_arm-eabi/arm-eabi/libc/usr/lib/libc.a(lib_a-syscalls.o)
 .data          0x000000000600355c        0x0 /home/vboxuser/topst/buildtools/gcc-linaro-7.2.1-2017.11-x86_64_arm-eabi/arm-eabi/libc/usr/lib/libc.a(lib_a-wcsnrtombs.o)
 .data          0x000000000600355c        0x0 /home/vboxuser/topst/buildtools/gcc-linaro-7.2.1-2017.11-x86_64_arm-eabi/arm-eabi/libc/usr/lib/libc.a(lib_a-wctomb_r.o)
 .data          0x000000000600355c        0x0 /home/vboxuser/topst/buildtools/gcc-linaro-7.2.1-2017.11-x86_64_arm-eabi/arm-eabi/libc/usr/lib/libc.a(lib_a-callocr.o)
 .data          0x000000000600355c        0x0 /home/vboxuser/topst/buildtools/gcc-linaro-7.2.1-2017.11-x86_64_arm-eabi/arm-eabi/libc/usr/lib/libc.a(lib_a-ctype_.o)
 .data          0x000000000600355c        0x0 /home/vboxuser/topst/buildtools/gcc-linaro-7.2.1-2017.11-x86_64_arm-eabi/arm-eabi/libc/usr/lib/libc.a(lib_a-errno.o)
 .data          0x000000000600355c        0x0 /home/vboxuser/topst/buildtools/gcc-linaro-7.2.1-2017.11-x86_64_arm-eabi/arm-eabi/libc/usr/lib/libc.a(lib_a-findfp.o)
 .data          0x000000000600355c        0x0 /home/vboxuser/topst/buildtools/gcc-linaro-7.2.1-2017.11-x86_64_arm-eabi/arm-eabi/libc/usr/lib/libc.a(lib_a-fwalk.o)
 .data          0x000000000600355c        0x0 /home/vboxuser/topst/buildtools/gcc-linaro-7.2.1-2017.11-x86_64_arm-eabi/arm-eabi/libc/usr/lib/libc.a(lib_a-getenv_r.o)
 .data          0x000000000600355c        0x0 /home/vboxuser/topst/buildtools/gcc-linaro-7.2.1-2017.11-x86_64_arm-eabi/arm-eabi/libc/usr/lib/libc.a(lib_a-memmove.o)
 .data          0x000000000600355c        0x0 /home/vboxuser/topst/buildtools/gcc-linaro-7.2.1-2017.11-x86_64_arm-eabi/arm-eabi/libc/usr/lib/libc.a(lib_a-reallocr.o)
 .data          0x000000000600355c        0x0 /home/vboxuser/topst/buildtools/gcc-linaro-7.2.1-2017.11-x86_64_arm-eabi/arm-eabi/libc/usr/lib/libc.a(lib_a-reent.o)
 .data          0x000000000600355c        0x0 /home/vboxuser/topst/buildtools/gcc-linaro-7.2.1-2017.11-x86_64_arm-eabi/arm-eabi/libc/usr/lib/libc.a(lib_a-stdio.o)
 .data          0x000000000600355c        0x0 /home/vboxuser/topst/buildtools/gcc-linaro-7.2.1-2017.11-x86_64_arm-eabi/arm-eabi/libc/usr/lib/libc.a(lib_a-writer.o)
 .data          0x000000000600355c        0x0 /home/vboxuser/topst/buildtools/gcc-linaro-7.2.1-2017.11-x86_64_arm-eabi/arm-eabi/libc/usr/lib/libc.a(lib_a-closer.o)
 .data          0x000000000600355c        0x4 /home/vboxuser/topst/buildtools/gcc-linaro-7.2.1-2017.11-x86_64_arm-eabi/arm-eabi/libc/usr/lib/libc.a(lib_a-environ.o)
                0x000000000600355c                environ
 .data          0x0000000006003560        0x0 /home/vboxuser/topst/buildtools/gcc-linaro-7.2.1-2017.11-x86_64_arm-eabi/arm-eabi/libc/usr/lib/libc.a(lib_a-envlock.o)
 .data          0x0000000006003560        0x0 /home/vboxuser/topst/buildtools/gcc-linaro-7.2.1-2017.11-x86_64_arm-eabi/arm-eabi/libc/usr/lib/libc.a(lib_a-fclose.o)
 .data          0x0000000006003560        0x0 /home/vboxuser/topst/buildtools/gcc-linaro-7.2.1-2017.11-x86_64_arm-eabi/arm-eabi/libc/usr/lib/libc.a(lib_a-fflush.o)
 .data          0x0000000006003560        0x0 /home/vboxuser/topst/buildtools/gcc-linaro-7.2.1-2017.11-x86_64_arm-eabi/arm-eabi/libc/usr/lib/libc.a(lib_a-lseekr.o)
 .data          0x0000000006003560        0x0 /home/vboxuser/topst/buildtools/gcc-linaro-7.2.1-2017.11-x86_64_arm-eabi/arm-eabi/libc/usr/lib/libc.a(lib_a-readr.o)
 .data          0x0000000006003560        0x0 /home/vboxuser/topst/buildtools/gcc-linaro-7.2.1-2017.11-x86_64_arm-eabi/arm-eabi/libc/usr/lib/libgcc.a(_udivsi3.o)
 .data          0x0000000006003560        0x0 /home/vboxuser/topst/buildtools/gcc-linaro-7.2.1-2017.11-x86_64_arm-eabi/arm-eabi/libc/usr/lib/libgcc.a(_dvmd_tls.o)
 .data          0x0000000006003560        0x0 /home/vboxuser/topst/buildtools/gcc-linaro-7.2.1-2017.11-x86_64_arm-eabi/arm-eabi/libc/usr/lib/libgcc.a(_arm_addsubdf3.o)
 .data          0x0000000006003560        0x0 /home/vboxuser/topst/buildtools/gcc-linaro-7.2.1-2017.11-x86_64_arm-eabi/arm-eabi/libc/usr/lib/libgcc.a(_arm_muldivdf3.o)
 .data          0x0000000006003560        0x0 /home/vboxuser/topst/buildtools/gcc-linaro-7.2.1-2017.11-x86_64_arm-eabi/arm-eabi/libc/usr/lib/libgcc.a(_arm_cmpdf2.o)
 .data          0x0000000006003560        0x0 /home/vboxuser/topst/buildtools/gcc-linaro-7.2.1-2017.11-x86_64_arm-eabi/arm-eabi/libc/usr/lib/libgcc.a(_arm_unorddf2.o)
 .data          0x0000000006003560        0x0 /home/vboxuser/topst/buildtools/gcc-linaro-7.2.1-2017.11-x86_64_arm-eabi/arm-eabi/libc/usr/lib/libgcc.a(_arm_fixdfsi.o)
 .data          0x0000000006003560        0x0 /home/vboxuser/topst/buildtools/gcc-linaro-7.2.1-2017.11-x86_64_arm-eabi/arm-eabi/libc/usr/lib/libgcc.a(_arm_fixunsdfsi.o)
 .data          0x0000000006003560        0x0 /home/vboxuser/topst/buildtools/gcc-linaro-7.2.1-2017.11-x86_64_arm-eabi/arm-eabi/libc/usr/lib/libgcc.a(_arm_addsubsf3.o)
 .data          0x0000000006003560        0x0 /home/vboxuser/topst/buildtools/gcc-linaro-7.2.1-2017.11-x86_64_arm-eabi/arm-eabi/libc/usr/lib/libgcc.a(_arm_muldivsf3.o)
 .data          0x0000000006003560        0x0 /home/vboxuser/topst/buildtools/gcc-linaro-7.2.1-2017.11-x86_64_arm-eabi/arm-eabi/libc/usr/lib/libgcc.a(_arm_fixunssfsi.o)
 .data          0x0000000006003560        0x0 /home/vboxuser/topst/buildtools/gcc-linaro-7.2.1-2017.11-x86_64_arm-eabi/arm-eabi/libc/usr/lib/libgcc.a(_aeabi_uldivmod.o)
 .data          0x0000000006003560        0x0 /home/vboxuser/topst/buildtools/gcc-linaro-7.2.1-2017.11-x86_64_arm-eabi/arm-eabi/libc/usr/lib/libgcc.a(_udivmoddi4.o)
 .data          0x0000000006003560        0x0 /home/vboxuser/topst/buildtools/gcc-linaro-7.2.1-2017.11-x86_64_arm-eabi/arm-eabi/libc/usr/lib/libgcc.a(_clzdi2.o)
 .data          0x0000000006003560        0x0 /home/vboxuser/topst/buildtools/gcc-linaro-7.2.1-2017.11-x86_64_arm-eabi/arm-eabi/libc/usr/lib/libgcc.a(_clzsi2.o)
 *(.data.*)
                0x0000000006003560                . = ALIGN (0x20)
                0x0000000006003560                __DATA_END__ = .

.bss            0x0000000006003560    0x3e964 load address 0x000000000828cee0
                0x0000000006003560                . = ALIGN (0x20)
                0x0000000006003560                __BSS_START__ = .
 *(.bss)
 .bss           0x0000000006003560      0x40c /home/vboxuser/topst/cr5-bsp/sources/build/tcc805x/gcc/tcc805x-freertos-debug/obj/main.o
                0x0000000006003560                gALiveMsgOnOff
 .bss           0x000000000600396c     0x201c /home/vboxuser/topst/cr5-bsp/sources/build/tcc805x/gcc/tcc805x-freertos-debug/obj/can_demo.o
 .bss           0x0000000006005988      0xad8 /home/vboxuser/topst/cr5-bsp/sources/build/tcc805x/gcc/tcc805x-freertos-debug/obj/console.o
 .bss           0x0000000006006460     0x2228 /home/vboxuser/topst/cr5-bsp/sources/build/tcc805x/gcc/tcc805x-freertos-debug/obj/fwug.o
 .bss           0x0000000006008688        0xc /home/vboxuser/topst/cr5-bsp/sources/build/tcc805x/gcc/tcc805x-freertos-debug/obj/key_adc.o
 .bss           0x0000000006008694       0x1c /home/vboxuser/topst/cr5-bsp/sources/build/tcc805x/gcc/tcc805x-freertos-debug/obj/key_gpio.o
 .bss           0x00000000060086b0        0x8 /home/vboxuser/topst/cr5-bsp/sources/build/tcc805x/gcc/tcc805x-freertos-debug/obj/key_i2c.o
 .bss           0x00000000060086b8        0x0 /home/vboxuser/topst/cr5-bsp/sources/build/tcc805x/gcc/tcc805x-freertos-debug/obj/key.o
 .bss           0x00000000060086b8      0x4a4 /home/vboxuser/topst/cr5-bsp/sources/build/tcc805x/gcc/tcc805x-freertos-debug/obj/system_monitoring.o
 .bss           0x0000000006008b5c      0x84a /home/vboxuser/topst/cr5-bsp/sources/build/tcc805x/gcc/tcc805x-freertos-debug/obj/bootctrl.o
 .bss           0x00000000060093a6        0x0 /home/vboxuser/topst/cr5-bsp/sources/build/tcc805x/gcc/tcc805x-freertos-debug/obj/reset_demo.o
 .bss           0x00000000060093a6        0x4 /home/vboxuser/topst/cr5-bsp/sources/build/tcc805x/gcc/tcc805x-freertos-debug/obj/adc_test.o
 *fill*         0x00000000060093aa        0x2 
 .bss           0x00000000060093ac        0x4 /home/vboxuser/topst/cr5-bsp/sources/build/tcc805x/gcc/tcc805x-freertos-debug/obj/dse_test.o
 .bss           0x00000000060093b0        0x8 /home/vboxuser/topst/cr5-bsp/sources/build/tcc805x/gcc/tcc805x-freertos-debug/obj/fmu_test.o
 .bss           0x00000000060093b8        0x0 /home/vboxuser/topst/cr5-bsp/sources/build/tcc805x/gcc/tcc805x-freertos-debug/obj/gdma_test.o
 .bss           0x00000000060093b8        0x4 /home/vboxuser/topst/cr5-bsp/sources/build/tcc805x/gcc/tcc805x-freertos-debug/obj/gic_test.o
 .bss           0x00000000060093bc        0x4 /home/vboxuser/topst/cr5-bsp/sources/build/tcc805x/gcc/tcc805x-freertos-debug/obj/gpio_test.o
 .bss           0x00000000060093c0       0x20 /home/vboxuser/topst/cr5-bsp/sources/build/tcc805x/gcc/tcc805x-freertos-debug/obj/gpsb_test.o
 .bss           0x00000000060093e0        0x0 /home/vboxuser/topst/cr5-bsp/sources/build/tcc805x/gcc/tcc805x-freertos-debug/obj/hsm_test.o
 .bss           0x00000000060093e0        0x4 /home/vboxuser/topst/cr5-bsp/sources/build/tcc805x/gcc/tcc805x-freertos-debug/obj/i2c_test.o
 .bss           0x00000000060093e4        0x0 /home/vboxuser/topst/cr5-bsp/sources/build/tcc805x/gcc/tcc805x-freertos-debug/obj/ictc_test.o
 .bss           0x00000000060093e4        0x0 /home/vboxuser/topst/cr5-bsp/sources/build/tcc805x/gcc/tcc805x-freertos-debug/obj/lin_test.o
 .bss           0x00000000060093e4        0x0 /home/vboxuser/topst/cr5-bsp/sources/build/tcc805x/gcc/tcc805x-freertos-debug/obj/pdm_test.o
 .bss           0x00000000060093e4        0x0 /home/vboxuser/topst/cr5-bsp/sources/build/tcc805x/gcc/tcc805x-freertos-debug/obj/pmio_test.o
 .bss           0x00000000060093e4       0x44 /home/vboxuser/topst/cr5-bsp/sources/build/tcc805x/gcc/tcc805x-freertos-debug/obj/timer_test.o
                0x0000000006009424                delay_complete
 .bss           0x0000000006009428        0x8 /home/vboxuser/topst/cr5-bsp/sources/build/tcc805x/gcc/tcc805x-freertos-debug/obj/wdt_test.o
 .bss           0x0000000006009430        0x0 /home/vboxuser/topst/cr5-bsp/sources/build/tcc805x/gcc/tcc805x-freertos-debug/obj/pwm_test.o
 .bss           0x0000000006009430     0x100c /home/vboxuser/topst/cr5-bsp/sources/build/tcc805x/gcc/tcc805x-freertos-debug/obj/hap.o
                0x0000000006009430                Ultravalue
 .bss           0x000000000600a43c     0x2004 /home/vboxuser/topst/cr5-bsp/sources/build/tcc805x/gcc/tcc805x-freertos-debug/obj/mptool.o
 .bss           0x000000000600c440       0xd0 /home/vboxuser/topst/cr5-bsp/sources/build/tcc805x/gcc/tcc805x-freertos-debug/obj/ipc_os.o
 .bss           0x000000000600c510        0x0 /home/vboxuser/topst/cr5-bsp/sources/build/tcc805x/gcc/tcc805x-freertos-debug/obj/ipc_buffer.o
 .bss           0x000000000600c510      0x890 /home/vboxuser/topst/cr5-bsp/sources/build/tcc805x/gcc/tcc805x-freertos-debug/obj/ipc_cmd.o
 .bss           0x000000000600cda0     0x3980 /home/vboxuser/topst/cr5-bsp/sources/build/tcc805x/gcc/tcc805x-freertos-debug/obj/ipc_ctl.o
                0x000000000600cda0                dev
                0x000000000600d630                gIPCHandler
 .bss           0x0000000006010720     0x1810 /home/vboxuser/topst/cr5-bsp/sources/build/tcc805x/gcc/tcc805x-freertos-debug/obj/ipc_parser.o
 .bss           0x0000000006011f30      0x610 /home/vboxuser/topst/cr5-bsp/sources/build/tcc805x/gcc/tcc805x-freertos-debug/obj/ipc_api.o
                0x0000000006011f60                cbFunc
 .bss           0x0000000006012540        0x0 /home/vboxuser/topst/cr5-bsp/sources/build/tcc805x/gcc/tcc805x-freertos-debug/obj/ipc.o
 .bss           0x0000000006012540        0x0 /home/vboxuser/topst/cr5-bsp/sources/build/tcc805x/gcc/tcc805x-freertos-debug/obj/lin.o
 .bss           0x0000000006012540        0x1 /home/vboxuser/topst/cr5-bsp/sources/build/tcc805x/gcc/tcc805x-freertos-debug/obj/sdm.o
 *fill*         0x0000000006012541        0x3 
 .bss           0x0000000006012544        0x4 /home/vboxuser/topst/cr5-bsp/sources/build/tcc805x/gcc/tcc805x-freertos-debug/obj/hsm_manager.o
 .bss           0x0000000006012548        0x0 /home/vboxuser/topst/cr5-bsp/sources/build/tcc805x/gcc/tcc805x-freertos-debug/obj/adc.o
 .bss           0x0000000006012548      0x100 /home/vboxuser/topst/cr5-bsp/sources/build/tcc805x/gcc/tcc805x-freertos-debug/obj/can.o
 .bss           0x0000000006012648        0x0 /home/vboxuser/topst/cr5-bsp/sources/build/tcc805x/gcc/tcc805x-freertos-debug/obj/can_drv.o
 .bss           0x0000000006012648     0xbd30 /home/vboxuser/topst/cr5-bsp/sources/build/tcc805x/gcc/tcc805x-freertos-debug/obj/can_msg.o
 .bss           0x000000000601e378        0xc /home/vboxuser/topst/cr5-bsp/sources/build/tcc805x/gcc/tcc805x-freertos-debug/obj/can_par.o
                0x000000000601e378                CANCallbackFunctions
 .bss           0x000000000601e384        0x0 /home/vboxuser/topst/cr5-bsp/sources/build/tcc805x/gcc/tcc805x-freertos-debug/obj/can_porting.o
 .bss           0x000000000601e384       0x1c /home/vboxuser/topst/cr5-bsp/sources/build/tcc805x/gcc/tcc805x-freertos-debug/obj/clock_dev.o
 .bss           0x000000000601e3a0        0x0 /home/vboxuser/topst/cr5-bsp/sources/build/tcc805x/gcc/tcc805x-freertos-debug/obj/debug.o
 .bss           0x000000000601e3a0        0x0 /home/vboxuser/topst/cr5-bsp/sources/build/tcc805x/gcc/tcc805x-freertos-debug/obj/bsp.o
 .bss           0x000000000601e3a0      0x300 /home/vboxuser/topst/cr5-bsp/sources/build/tcc805x/gcc/tcc805x-freertos-debug/obj/fmu.o
 .bss           0x000000000601e6a0        0x8 /home/vboxuser/topst/cr5-bsp/sources/build/tcc805x/gcc/tcc805x-freertos-debug/obj/gdma.o
 .bss           0x000000000601e6a8     0x1800 /home/vboxuser/topst/cr5-bsp/sources/build/tcc805x/gcc/tcc805x-freertos-debug/obj/gic.o
 .bss           0x000000000601fea8        0x0 /home/vboxuser/topst/cr5-bsp/sources/build/tcc805x/gcc/tcc805x-freertos-debug/obj/gpio.o
 .bss           0x000000000601fea8        0x0 /home/vboxuser/topst/cr5-bsp/sources/build/tcc805x/gcc/tcc805x-freertos-debug/obj/i2c.o
 .bss           0x000000000601fea8        0x0 /home/vboxuser/topst/cr5-bsp/sources/build/tcc805x/gcc/tcc805x-freertos-debug/obj/i2c_reg.o
 .bss           0x000000000601fea8      0x198 /home/vboxuser/topst/cr5-bsp/sources/build/tcc805x/gcc/tcc805x-freertos-debug/obj/ictc.o
 .bss           0x0000000006020040    0x1b32c /home/vboxuser/topst/cr5-bsp/sources/build/tcc805x/gcc/tcc805x-freertos-debug/obj/mbox_phy.o
 .bss           0x000000000603b36c      0x334 /home/vboxuser/topst/cr5-bsp/sources/build/tcc805x/gcc/tcc805x-freertos-debug/obj/mbox_dev.o
                0x000000000603b36c                spMboxDev
 .bss           0x000000000603b6a0       0x28 /home/vboxuser/topst/cr5-bsp/sources/build/tcc805x/gcc/tcc805x-freertos-debug/obj/mbox.o
 .bss           0x000000000603b6c8        0x0 /home/vboxuser/topst/cr5-bsp/sources/build/tcc805x/gcc/tcc805x-freertos-debug/obj/mpu.o
 .bss           0x000000000603b6c8      0x5d1 /home/vboxuser/topst/cr5-bsp/sources/build/tcc805x/gcc/tcc805x-freertos-debug/obj/pdm.o
 *fill*         0x000000000603bc99        0x3 
 .bss           0x000000000603bc9c      0x460 /home/vboxuser/topst/cr5-bsp/sources/build/tcc805x/gcc/tcc805x-freertos-debug/obj/pmio_dev.o
 .bss           0x000000000603c0fc       0x44 /home/vboxuser/topst/cr5-bsp/sources/build/tcc805x/gcc/tcc805x-freertos-debug/obj/gpsb.o
 .bss           0x000000000603c140        0x0 /home/vboxuser/topst/cr5-bsp/sources/build/tcc805x/gcc/tcc805x-freertos-debug/obj/gpsb_reg.o
 .bss           0x000000000603c140       0x4d /home/vboxuser/topst/cr5-bsp/sources/build/tcc805x/gcc/tcc805x-freertos-debug/obj/timer.o
                0x000000000603c18c                delay_completed
 *fill*         0x000000000603c18d        0x3 
 .bss           0x000000000603c190      0xf08 /home/vboxuser/topst/cr5-bsp/sources/build/tcc805x/gcc/tcc805x-freertos-debug/obj/uart.o
 .bss           0x000000000603d098        0x0 /home/vboxuser/topst/cr5-bsp/sources/build/tcc805x/gcc/tcc805x-freertos-debug/obj/udma.o
 .bss           0x000000000603d098        0x1 /home/vboxuser/topst/cr5-bsp/sources/build/tcc805x/gcc/tcc805x-freertos-debug/obj/wdt.o
 *fill*         0x000000000603d099        0x3 
 .bss           0x000000000603d09c        0x8 /home/vboxuser/topst/cr5-bsp/sources/build/tcc805x/gcc/tcc805x-freertos-debug/obj/dse.o
                0x000000000603d09c                gWait_irq
 .bss           0x000000000603d0a4        0x1 /home/vboxuser/topst/cr5-bsp/sources/build/tcc805x/gcc/tcc805x-freertos-debug/obj/midf.o
 *fill*         0x000000000603d0a5        0x3 
 .bss           0x000000000603d0a8     0x1008 /home/vboxuser/topst/cr5-bsp/sources/build/tcc805x/gcc/tcc805x-freertos-debug/obj/pmu_reset.o
 .bss           0x000000000603e0b0      0x1e0 /home/vboxuser/topst/cr5-bsp/sources/build/tcc805x/gcc/tcc805x-freertos-debug/obj/tasks.o
                0x000000000603e0b0                pxCurrentTCB
 .bss           0x000000000603e290        0x0 /home/vboxuser/topst/cr5-bsp/sources/build/tcc805x/gcc/tcc805x-freertos-debug/obj/list.o
 .bss           0x000000000603e290       0x40 /home/vboxuser/topst/cr5-bsp/sources/build/tcc805x/gcc/tcc805x-freertos-debug/obj/queue.o
                0x000000000603e290                xQueueRegistry
 .bss           0x000000000603e2d0        0x0 /home/vboxuser/topst/cr5-bsp/sources/build/tcc805x/gcc/tcc805x-freertos-debug/obj/event_groups.o
 .bss           0x000000000603e2d0       0xd8 /home/vboxuser/topst/cr5-bsp/sources/build/tcc805x/gcc/tcc805x-freertos-debug/obj/timers.o
 .bss           0x000000000603e3a8        0x0 /home/vboxuser/topst/cr5-bsp/sources/build/tcc805x/gcc/tcc805x-freertos-debug/obj/stream_buffer.o
 .bss           0x000000000603e3a8     0x108c /home/vboxuser/topst/cr5-bsp/sources/build/tcc805x/gcc/tcc805x-freertos-debug/obj/port.o
                0x000000000603e3a8                ulPortTaskHasFPUContext
                0x000000000603e3ac                ulPortYieldRequired
                0x000000000603e3b0                ulPortInterruptNesting
                0x000000000603e3b4                ucHeap
 .bss           0x000000000603f434       0x20 /home/vboxuser/topst/cr5-bsp/sources/build/tcc805x/gcc/tcc805x-freertos-debug/obj/heap_5.o
 .bss           0x000000000603f454      0x144 /home/vboxuser/topst/cr5-bsp/sources/build/tcc805x/gcc/tcc805x-freertos-debug/obj/sal_api.o
                0x000000000603f454                gSALCoreTable
                0x000000000603f458                gSALOSRunTable
                0x000000000603f45c                gSALMemoryTable
                0x000000000603f460                gSALFileTable
                0x000000000603f464                gSALDataStructTable
                0x000000000603f468                gSALSyncObjectTable
                0x000000000603f46c                gSALTaskTable
                0x000000000603f470                gSALSocketTable
                0x000000000603f474                gSALTraceTable
                0x000000000603f478                gSALEtcTable
 .bss           0x000000000603f598     0x255c /home/vboxuser/topst/cr5-bsp/sources/build/tcc805x/gcc/tcc805x-freertos-debug/obj/sal_freertos_impl.o
 .bss           0x0000000006041af4       0x20 /home/vboxuser/topst/cr5-bsp/sources/build/tcc805x/gcc/tcc805x-freertos-debug/obj/startup.o
 .bss           0x0000000006041b14        0x0 /home/vboxuser/topst/cr5-bsp/sources/build/tcc805x/gcc/tcc805x-freertos-debug/obj/vector.o
 .bss           0x0000000006041b14        0x0 /home/vboxuser/topst/cr5-bsp/sources/build/tcc805x/gcc/tcc805x-freertos-debug/obj/vfp_init.o
 .bss           0x0000000006041b14        0x0 /home/vboxuser/topst/cr5-bsp/sources/build/tcc805x/gcc/tcc805x-freertos-debug/obj/arm_a.o
 .bss           0x0000000006041b14        0x0 /home/vboxuser/topst/cr5-bsp/sources/build/tcc805x/gcc/tcc805x-freertos-debug/obj/portASM.o
 .bss           0x0000000006041b14        0x0 /home/vboxuser/topst/cr5-bsp/sources/build/tcc805x/gcc/tcc805x-freertos-debug/obj/freertos.o
 .bss           0x0000000006041b14        0x0 /home/vboxuser/topst/cr5-bsp/sources/build/tcc805x/gcc/tcc805x-freertos-debug/obj/sal.o
 .bss           0x0000000006041b14        0x0 /home/vboxuser/topst/buildtools/gcc-linaro-7.2.1-2017.11-x86_64_arm-eabi/arm-eabi/libc/usr/lib/libc.a(lib_a-atoi.o)
 .bss           0x0000000006041b14        0x0 /home/vboxuser/topst/buildtools/gcc-linaro-7.2.1-2017.11-x86_64_arm-eabi/arm-eabi/libc/usr/lib/libc.a(lib_a-atol.o)
 .bss           0x0000000006041b14        0x0 /home/vboxuser/topst/buildtools/gcc-linaro-7.2.1-2017.11-x86_64_arm-eabi/arm-eabi/libc/usr/lib/libc.a(lib_a-memcmp.o)
 .bss           0x0000000006041b14        0x0 /home/vboxuser/topst/buildtools/gcc-linaro-7.2.1-2017.11-x86_64_arm-eabi/arm-eabi/libc/usr/lib/libc.a(lib_a-memcpy-stub.o)
 .bss           0x0000000006041b14        0x0 /home/vboxuser/topst/buildtools/gcc-linaro-7.2.1-2017.11-x86_64_arm-eabi/arm-eabi/libc/usr/lib/libc.a(lib_a-memset.o)
 .bss           0x0000000006041b14        0x0 /home/vboxuser/topst/buildtools/gcc-linaro-7.2.1-2017.11-x86_64_arm-eabi/arm-eabi/libc/usr/lib/libc.a(lib_a-snprintf.o)
 .bss           0x0000000006041b14        0x0 /home/vboxuser/topst/buildtools/gcc-linaro-7.2.1-2017.11-x86_64_arm-eabi/arm-eabi/libc/usr/lib/libc.a(lib_a-strlen-stub.o)
 .bss           0x0000000006041b14        0x0 /home/vboxuser/topst/buildtools/gcc-linaro-7.2.1-2017.11-x86_64_arm-eabi/arm-eabi/libc/usr/lib/libc.a(lib_a-strncmp.o)
 .bss           0x0000000006041b14        0x0 /home/vboxuser/topst/buildtools/gcc-linaro-7.2.1-2017.11-x86_64_arm-eabi/arm-eabi/libc/usr/lib/libc.a(lib_a-strncpy.o)
 .bss           0x0000000006041b14        0x0 /home/vboxuser/topst/buildtools/gcc-linaro-7.2.1-2017.11-x86_64_arm-eabi/arm-eabi/libc/usr/lib/libc.a(lib_a-strnlen.o)
 .bss           0x0000000006041b14        0x0 /home/vboxuser/topst/buildtools/gcc-linaro-7.2.1-2017.11-x86_64_arm-eabi/arm-eabi/libc/usr/lib/libc.a(lib_a-strtol.o)
 .bss           0x0000000006041b14        0x0 /home/vboxuser/topst/buildtools/gcc-linaro-7.2.1-2017.11-x86_64_arm-eabi/arm-eabi/libc/usr/lib/libc.a(lib_a-strtoul.o)
 .bss           0x0000000006041b14        0x0 /home/vboxuser/topst/buildtools/gcc-linaro-7.2.1-2017.11-x86_64_arm-eabi/arm-eabi/libc/usr/lib/libc.a(lib_a-svfprintf.o)
 .bss           0x0000000006041b14        0x0 /home/vboxuser/topst/buildtools/gcc-linaro-7.2.1-2017.11-x86_64_arm-eabi/arm-eabi/libc/usr/lib/libc.a(lib_a-wcrtomb.o)
 .bss           0x0000000006041b14        0x0 /home/vboxuser/topst/buildtools/gcc-linaro-7.2.1-2017.11-x86_64_arm-eabi/arm-eabi/libc/usr/lib/libc.a(lib_a-wcsrtombs.o)
 .bss           0x0000000006041b14        0x0 /home/vboxuser/topst/buildtools/gcc-linaro-7.2.1-2017.11-x86_64_arm-eabi/arm-eabi/libc/usr/lib/libc.a(lib_a-dtoa.o)
 .bss           0x0000000006041b14        0x0 /home/vboxuser/topst/buildtools/gcc-linaro-7.2.1-2017.11-x86_64_arm-eabi/arm-eabi/libc/usr/lib/libc.a(lib_a-freer.o)
 .bss           0x0000000006041b14        0x0 /home/vboxuser/topst/buildtools/gcc-linaro-7.2.1-2017.11-x86_64_arm-eabi/arm-eabi/libc/usr/lib/libc.a(lib_a-impure.o)
 .bss           0x0000000006041b14      0x2ac /home/vboxuser/topst/buildtools/gcc-linaro-7.2.1-2017.11-x86_64_arm-eabi/arm-eabi/libc/usr/lib/libc.a(lib_a-locale.o)
                0x0000000006041dbc                _PathLocale
 .bss           0x0000000006041dc0        0x0 /home/vboxuser/topst/buildtools/gcc-linaro-7.2.1-2017.11-x86_64_arm-eabi/arm-eabi/libc/usr/lib/libc.a(lib_a-localeconv.o)
 .bss           0x0000000006041dc0       0x34 /home/vboxuser/topst/buildtools/gcc-linaro-7.2.1-2017.11-x86_64_arm-eabi/arm-eabi/libc/usr/lib/libc.a(lib_a-mallocr.o)
                0x0000000006041dc0                __malloc_top_pad
                0x0000000006041dc4                __malloc_current_mallinfo
                0x0000000006041dec                __malloc_max_sbrked_mem
                0x0000000006041df0                __malloc_max_total_mem
 .bss           0x0000000006041df4        0x0 /home/vboxuser/topst/buildtools/gcc-linaro-7.2.1-2017.11-x86_64_arm-eabi/arm-eabi/libc/usr/lib/libc.a(lib_a-mbtowc_r.o)
 .bss           0x0000000006041df4        0x0 /home/vboxuser/topst/buildtools/gcc-linaro-7.2.1-2017.11-x86_64_arm-eabi/arm-eabi/libc/usr/lib/libc.a(lib_a-memchr-stub.o)
 .bss           0x0000000006041df4        0x0 /home/vboxuser/topst/buildtools/gcc-linaro-7.2.1-2017.11-x86_64_arm-eabi/arm-eabi/libc/usr/lib/libc.a(lib_a-mlock.o)
 .bss           0x0000000006041df4        0x0 /home/vboxuser/topst/buildtools/gcc-linaro-7.2.1-2017.11-x86_64_arm-eabi/arm-eabi/libc/usr/lib/libc.a(lib_a-mprec.o)
 .bss           0x0000000006041df4        0x0 /home/vboxuser/topst/buildtools/gcc-linaro-7.2.1-2017.11-x86_64_arm-eabi/arm-eabi/libc/usr/lib/libc.a(lib_a-s_frexp.o)
 .bss           0x0000000006041df4        0x0 /home/vboxuser/topst/buildtools/gcc-linaro-7.2.1-2017.11-x86_64_arm-eabi/arm-eabi/libc/usr/lib/libc.a(lib_a-sbrkr.o)
 .bss           0x0000000006041df4        0x0 /home/vboxuser/topst/buildtools/gcc-linaro-7.2.1-2017.11-x86_64_arm-eabi/arm-eabi/libc/usr/lib/libc.a(lib_a-strcasecmp.o)
 .bss           0x0000000006041df4        0x0 /home/vboxuser/topst/buildtools/gcc-linaro-7.2.1-2017.11-x86_64_arm-eabi/arm-eabi/libc/usr/lib/libc.a(lib_a-strcat.o)
 .bss           0x0000000006041df4        0x0 /home/vboxuser/topst/buildtools/gcc-linaro-7.2.1-2017.11-x86_64_arm-eabi/arm-eabi/libc/usr/lib/libc.a(lib_a-strchr.o)
 .bss           0x0000000006041df4        0x0 /home/vboxuser/topst/buildtools/gcc-linaro-7.2.1-2017.11-x86_64_arm-eabi/arm-eabi/libc/usr/lib/libc.a(lib_a-strcmp.o)
 .bss           0x0000000006041df4        0x0 /home/vboxuser/topst/buildtools/gcc-linaro-7.2.1-2017.11-x86_64_arm-eabi/arm-eabi/libc/usr/lib/libc.a(lib_a-strcpy.o)
 .bss           0x0000000006041df4        0x0 /home/vboxuser/topst/buildtools/gcc-linaro-7.2.1-2017.11-x86_64_arm-eabi/arm-eabi/libc/usr/lib/libc.a(lib_a-strlcpy.o)
 .bss           0x0000000006041df4        0x0 /home/vboxuser/topst/buildtools/gcc-linaro-7.2.1-2017.11-x86_64_arm-eabi/arm-eabi/libc/usr/lib/libc.a(lib_a-strncasecmp.o)
 .bss           0x0000000006041df4        0x0 /home/vboxuser/topst/buildtools/gcc-linaro-7.2.1-2017.11-x86_64_arm-eabi/arm-eabi/libc/usr/lib/libc.a(lib_a-svfiprintf.o)
 .bss           0x0000000006041df4       0xb0 /home/vboxuser/topst/buildtools/gcc-linaro-7.2.1-2017.11-x86_64_arm-eabi/arm-eabi/libc/usr/lib/libc.a(lib_a-syscalls.o)
 .bss           0x0000000006041ea4        0x0 /home/vboxuser/topst/buildtools/gcc-linaro-7.2.1-2017.11-x86_64_arm-eabi/arm-eabi/libc/usr/lib/libc.a(lib_a-wcsnrtombs.o)
 .bss           0x0000000006041ea4        0x0 /home/vboxuser/topst/buildtools/gcc-linaro-7.2.1-2017.11-x86_64_arm-eabi/arm-eabi/libc/usr/lib/libc.a(lib_a-wctomb_r.o)
 .bss           0x0000000006041ea4        0x0 /home/vboxuser/topst/buildtools/gcc-linaro-7.2.1-2017.11-x86_64_arm-eabi/arm-eabi/libc/usr/lib/libc.a(lib_a-callocr.o)
 .bss           0x0000000006041ea4        0x0 /home/vboxuser/topst/buildtools/gcc-linaro-7.2.1-2017.11-x86_64_arm-eabi/arm-eabi/libc/usr/lib/libc.a(lib_a-ctype_.o)
 .bss           0x0000000006041ea4        0x0 /home/vboxuser/topst/buildtools/gcc-linaro-7.2.1-2017.11-x86_64_arm-eabi/arm-eabi/libc/usr/lib/libc.a(lib_a-errno.o)
 .bss           0x0000000006041ea4        0x0 /home/vboxuser/topst/buildtools/gcc-linaro-7.2.1-2017.11-x86_64_arm-eabi/arm-eabi/libc/usr/lib/libc.a(lib_a-findfp.o)
 .bss           0x0000000006041ea4        0x0 /home/vboxuser/topst/buildtools/gcc-linaro-7.2.1-2017.11-x86_64_arm-eabi/arm-eabi/libc/usr/lib/libc.a(lib_a-fwalk.o)
 .bss           0x0000000006041ea4        0x0 /home/vboxuser/topst/buildtools/gcc-linaro-7.2.1-2017.11-x86_64_arm-eabi/arm-eabi/libc/usr/lib/libc.a(lib_a-getenv_r.o)
 .bss           0x0000000006041ea4        0x0 /home/vboxuser/topst/buildtools/gcc-linaro-7.2.1-2017.11-x86_64_arm-eabi/arm-eabi/libc/usr/lib/libc.a(lib_a-memmove.o)
 .bss           0x0000000006041ea4        0x0 /home/vboxuser/topst/buildtools/gcc-linaro-7.2.1-2017.11-x86_64_arm-eabi/arm-eabi/libc/usr/lib/libc.a(lib_a-reallocr.o)
 .bss           0x0000000006041ea4        0x0 /home/vboxuser/topst/buildtools/gcc-linaro-7.2.1-2017.11-x86_64_arm-eabi/arm-eabi/libc/usr/lib/libc.a(lib_a-reent.o)
 .bss           0x0000000006041ea4        0x0 /home/vboxuser/topst/buildtools/gcc-linaro-7.2.1-2017.11-x86_64_arm-eabi/arm-eabi/libc/usr/lib/libc.a(lib_a-stdio.o)
 .bss           0x0000000006041ea4        0x0 /home/vboxuser/topst/buildtools/gcc-linaro-7.2.1-2017.11-x86_64_arm-eabi/arm-eabi/libc/usr/lib/libc.a(lib_a-writer.o)
 .bss           0x0000000006041ea4        0x0 /home/vboxuser/topst/buildtools/gcc-linaro-7.2.1-2017.11-x86_64_arm-eabi/arm-eabi/libc/usr/lib/libc.a(lib_a-closer.o)
 .bss           0x0000000006041ea4        0x4 /home/vboxuser/topst/buildtools/gcc-linaro-7.2.1-2017.11-x86_64_arm-eabi/arm-eabi/libc/usr/lib/libc.a(lib_a-environ.o)
 .bss           0x0000000006041ea8        0x0 /home/vboxuser/topst/buildtools/gcc-linaro-7.2.1-2017.11-x86_64_arm-eabi/arm-eabi/libc/usr/lib/libc.a(lib_a-envlock.o)
 .bss           0x0000000006041ea8        0x0 /home/vboxuser/topst/buildtools/gcc-linaro-7.2.1-2017.11-x86_64_arm-eabi/arm-eabi/libc/usr/lib/libc.a(lib_a-fclose.o)
 .bss           0x0000000006041ea8        0x0 /home/vboxuser/topst/buildtools/gcc-linaro-7.2.1-2017.11-x86_64_arm-eabi/arm-eabi/libc/usr/lib/libc.a(lib_a-fflush.o)
 .bss           0x0000000006041ea8        0x0 /home/vboxuser/topst/buildtools/gcc-linaro-7.2.1-2017.11-x86_64_arm-eabi/arm-eabi/libc/usr/lib/libc.a(lib_a-lseekr.o)
 .bss           0x0000000006041ea8        0x0 /home/vboxuser/topst/buildtools/gcc-linaro-7.2.1-2017.11-x86_64_arm-eabi/arm-eabi/libc/usr/lib/libc.a(lib_a-readr.o)
 .bss           0x0000000006041ea8        0x0 /home/vboxuser/topst/buildtools/gcc-linaro-7.2.1-2017.11-x86_64_arm-eabi/arm-eabi/libc/usr/lib/libgcc.a(_udivsi3.o)
 .bss           0x0000000006041ea8        0x0 /home/vboxuser/topst/buildtools/gcc-linaro-7.2.1-2017.11-x86_64_arm-eabi/arm-eabi/libc/usr/lib/libgcc.a(_dvmd_tls.o)
 .bss           0x0000000006041ea8        0x0 /home/vboxuser/topst/buildtools/gcc-linaro-7.2.1-2017.11-x86_64_arm-eabi/arm-eabi/libc/usr/lib/libgcc.a(_arm_addsubdf3.o)
 .bss           0x0000000006041ea8        0x0 /home/vboxuser/topst/buildtools/gcc-linaro-7.2.1-2017.11-x86_64_arm-eabi/arm-eabi/libc/usr/lib/libgcc.a(_arm_muldivdf3.o)
 .bss           0x0000000006041ea8        0x0 /home/vboxuser/topst/buildtools/gcc-linaro-7.2.1-2017.11-x86_64_arm-eabi/arm-eabi/libc/usr/lib/libgcc.a(_arm_cmpdf2.o)
 .bss           0x0000000006041ea8        0x0 /home/vboxuser/topst/buildtools/gcc-linaro-7.2.1-2017.11-x86_64_arm-eabi/arm-eabi/libc/usr/lib/libgcc.a(_arm_unorddf2.o)
 .bss           0x0000000006041ea8        0x0 /home/vboxuser/topst/buildtools/gcc-linaro-7.2.1-2017.11-x86_64_arm-eabi/arm-eabi/libc/usr/lib/libgcc.a(_arm_fixdfsi.o)
 .bss           0x0000000006041ea8        0x0 /home/vboxuser/topst/buildtools/gcc-linaro-7.2.1-2017.11-x86_64_arm-eabi/arm-eabi/libc/usr/lib/libgcc.a(_arm_fixunsdfsi.o)
 .bss           0x0000000006041ea8        0x0 /home/vboxuser/topst/buildtools/gcc-linaro-7.2.1-2017.11-x86_64_arm-eabi/arm-eabi/libc/usr/lib/libgcc.a(_arm_addsubsf3.o)
 .bss           0x0000000006041ea8        0x0 /home/vboxuser/topst/buildtools/gcc-linaro-7.2.1-2017.11-x86_64_arm-eabi/arm-eabi/libc/usr/lib/libgcc.a(_arm_muldivsf3.o)
 .bss           0x0000000006041ea8        0x0 /home/vboxuser/topst/buildtools/gcc-linaro-7.2.1-2017.11-x86_64_arm-eabi/arm-eabi/libc/usr/lib/libgcc.a(_arm_fixunssfsi.o)
 .bss           0x0000000006041ea8        0x0 /home/vboxuser/topst/buildtools/gcc-linaro-7.2.1-2017.11-x86_64_arm-eabi/arm-eabi/libc/usr/lib/libgcc.a(_aeabi_uldivmod.o)
 .bss           0x0000000006041ea8        0x0 /home/vboxuser/topst/buildtools/gcc-linaro-7.2.1-2017.11-x86_64_arm-eabi/arm-eabi/libc/usr/lib/libgcc.a(_udivmoddi4.o)
 .bss           0x0000000006041ea8        0x0 /home/vboxuser/topst/buildtools/gcc-linaro-7.2.1-2017.11-x86_64_arm-eabi/arm-eabi/libc/usr/lib/libgcc.a(_clzdi2.o)
 .bss           0x0000000006041ea8        0x0 /home/vboxuser/topst/buildtools/gcc-linaro-7.2.1-2017.11-x86_64_arm-eabi/arm-eabi/libc/usr/lib/libgcc.a(_clzsi2.o)
 *(.bss.*)
                0x0000000006041ec0                . = ALIGN (0x20)
 *fill*         0x0000000006041ea8       0x18 
                0x0000000006041ec0                __BSS_END__ = .
 COMMON         0x0000000006041ec0        0x4 /home/vboxuser/topst/buildtools/gcc-linaro-7.2.1-2017.11-x86_64_arm-eabi/arm-eabi/libc/usr/lib/libc.a(lib_a-reent.o)
                0x0000000006041ec0                errno

.arm_stack      0x000000000607b980      0x680
                0x000000000607b980                __stack_start = .
                0x000000000607c000                . = (. + 0x680)
 *fill*         0x000000000607b980      0x680 
                0x000000000607c000                _stack_end = .

.nc_dma         0x00000000c007c000     0x4000 load address 0x0000000006041ec4
                0x00000000c007c000                __nc_dmastart = .
                0x00000000c0080000                . = (. + DMA_NC_SIZE)
 *fill*         0x00000000c007c000     0x4000 
                0x00000000c0080000                _end_of_nc_dma = .
                0x00000000c0080000                _end = .
                0x00000000c0080000                __end = _end
                0x00000000c0080000                PROVIDE (end, .)

/DISCARD/
 *(.ARM.exidx* .ARM.extab* .glue* .vfp11_veneer .v4_bx .iplt .igot.* .rel.*)
LOAD /home/vboxuser/topst/cr5-bsp/sources/build/tcc805x/gcc/tcc805x-freertos-debug/obj/main.o
LOAD /home/vboxuser/topst/cr5-bsp/sources/build/tcc805x/gcc/tcc805x-freertos-debug/obj/can_demo.o
LOAD /home/vboxuser/topst/cr5-bsp/sources/build/tcc805x/gcc/tcc805x-freertos-debug/obj/console.o
LOAD /home/vboxuser/topst/cr5-bsp/sources/build/tcc805x/gcc/tcc805x-freertos-debug/obj/fwug.o
LOAD /home/vboxuser/topst/cr5-bsp/sources/build/tcc805x/gcc/tcc805x-freertos-debug/obj/key_adc.o
LOAD /home/vboxuser/topst/cr5-bsp/sources/build/tcc805x/gcc/tcc805x-freertos-debug/obj/key_gpio.o
LOAD /home/vboxuser/topst/cr5-bsp/sources/build/tcc805x/gcc/tcc805x-freertos-debug/obj/key_i2c.o
LOAD /home/vboxuser/topst/cr5-bsp/sources/build/tcc805x/gcc/tcc805x-freertos-debug/obj/key.o
LOAD /home/vboxuser/topst/cr5-bsp/sources/build/tcc805x/gcc/tcc805x-freertos-debug/obj/system_monitoring.o
LOAD /home/vboxuser/topst/cr5-bsp/sources/build/tcc805x/gcc/tcc805x-freertos-debug/obj/bootctrl.o
LOAD /home/vboxuser/topst/cr5-bsp/sources/build/tcc805x/gcc/tcc805x-freertos-debug/obj/reset_demo.o
LOAD /home/vboxuser/topst/cr5-bsp/sources/build/tcc805x/gcc/tcc805x-freertos-debug/obj/adc_test.o
LOAD /home/vboxuser/topst/cr5-bsp/sources/build/tcc805x/gcc/tcc805x-freertos-debug/obj/dse_test.o
LOAD /home/vboxuser/topst/cr5-bsp/sources/build/tcc805x/gcc/tcc805x-freertos-debug/obj/fmu_test.o
LOAD /home/vboxuser/topst/cr5-bsp/sources/build/tcc805x/gcc/tcc805x-freertos-debug/obj/gdma_test.o
LOAD /home/vboxuser/topst/cr5-bsp/sources/build/tcc805x/gcc/tcc805x-freertos-debug/obj/gic_test.o
LOAD /home/vboxuser/topst/cr5-bsp/sources/build/tcc805x/gcc/tcc805x-freertos-debug/obj/gpio_test.o
LOAD /home/vboxuser/topst/cr5-bsp/sources/build/tcc805x/gcc/tcc805x-freertos-debug/obj/gpsb_test.o
LOAD /home/vboxuser/topst/cr5-bsp/sources/build/tcc805x/gcc/tcc805x-freertos-debug/obj/hsm_test.o
LOAD /home/vboxuser/topst/cr5-bsp/sources/build/tcc805x/gcc/tcc805x-freertos-debug/obj/i2c_test.o
LOAD /home/vboxuser/topst/cr5-bsp/sources/build/tcc805x/gcc/tcc805x-freertos-debug/obj/ictc_test.o
LOAD /home/vboxuser/topst/cr5-bsp/sources/build/tcc805x/gcc/tcc805x-freertos-debug/obj/lin_test.o
LOAD /home/vboxuser/topst/cr5-bsp/sources/build/tcc805x/gcc/tcc805x-freertos-debug/obj/pdm_test.o
LOAD /home/vboxuser/topst/cr5-bsp/sources/build/tcc805x/gcc/tcc805x-freertos-debug/obj/pmio_test.o
LOAD /home/vboxuser/topst/cr5-bsp/sources/build/tcc805x/gcc/tcc805x-freertos-debug/obj/timer_test.o
LOAD /home/vboxuser/topst/cr5-bsp/sources/build/tcc805x/gcc/tcc805x-freertos-debug/obj/wdt_test.o
LOAD /home/vboxuser/topst/cr5-bsp/sources/build/tcc805x/gcc/tcc805x-freertos-debug/obj/pwm_test.o
LOAD /home/vboxuser/topst/cr5-bsp/sources/build/tcc805x/gcc/tcc805x-freertos-debug/obj/hap.o
LOAD /home/vboxuser/topst/cr5-bsp/sources/build/tcc805x/gcc/tcc805x-freertos-debug/obj/mptool.o
LOAD /home/vboxuser/topst/cr5-bsp/sources/build/tcc805x/gcc/tcc805x-freertos-debug/obj/ipc_os.o
LOAD /home/vboxuser/topst/cr5-bsp/sources/build/tcc805x/gcc/tcc805x-freertos-debug/obj/ipc_buffer.o
LOAD /home/vboxuser/topst/cr5-bsp/sources/build/tcc805x/gcc/tcc805x-freertos-debug/obj/ipc_cmd.o
LOAD /home/vboxuser/topst/cr5-bsp/sources/build/tcc805x/gcc/tcc805x-freertos-debug/obj/ipc_ctl.o
LOAD /home/vboxuser/topst/cr5-bsp/sources/build/tcc805x/gcc/tcc805x-freertos-debug/obj/ipc_parser.o
LOAD /home/vboxuser/topst/cr5-bsp/sources/build/tcc805x/gcc/tcc805x-freertos-debug/obj/ipc_api.o
LOAD /home/vboxuser/topst/cr5-bsp/sources/build/tcc805x/gcc/tcc805x-freertos-debug/obj/ipc.o
LOAD /home/vboxuser/topst/cr5-bsp/sources/build/tcc805x/gcc/tcc805x-freertos-debug/obj/lin.o
LOAD /home/vboxuser/topst/cr5-bsp/sources/build/tcc805x/gcc/tcc805x-freertos-debug/obj/sdm.o
LOAD /home/vboxuser/topst/cr5-bsp/sources/build/tcc805x/gcc/tcc805x-freertos-debug/obj/hsm_manager.o
LOAD /home/vboxuser/topst/cr5-bsp/sources/build/tcc805x/gcc/tcc805x-freertos-debug/obj/adc.o
LOAD /home/vboxuser/topst/cr5-bsp/sources/build/tcc805x/gcc/tcc805x-freertos-debug/obj/can.o
LOAD /home/vboxuser/topst/cr5-bsp/sources/build/tcc805x/gcc/tcc805x-freertos-debug/obj/can_drv.o
LOAD /home/vboxuser/topst/cr5-bsp/sources/build/tcc805x/gcc/tcc805x-freertos-debug/obj/can_msg.o
LOAD /home/vboxuser/topst/cr5-bsp/sources/build/tcc805x/gcc/tcc805x-freertos-debug/obj/can_par.o
LOAD /home/vboxuser/topst/cr5-bsp/sources/build/tcc805x/gcc/tcc805x-freertos-debug/obj/can_porting.o
LOAD /home/vboxuser/topst/cr5-bsp/sources/build/tcc805x/gcc/tcc805x-freertos-debug/obj/clock_dev.o
LOAD /home/vboxuser/topst/cr5-bsp/sources/build/tcc805x/gcc/tcc805x-freertos-debug/obj/debug.o
LOAD /home/vboxuser/topst/cr5-bsp/sources/build/tcc805x/gcc/tcc805x-freertos-debug/obj/bsp.o
LOAD /home/vboxuser/topst/cr5-bsp/sources/build/tcc805x/gcc/tcc805x-freertos-debug/obj/fmu.o
LOAD /home/vboxuser/topst/cr5-bsp/sources/build/tcc805x/gcc/tcc805x-freertos-debug/obj/gdma.o
LOAD /home/vboxuser/topst/cr5-bsp/sources/build/tcc805x/gcc/tcc805x-freertos-debug/obj/gic.o
LOAD /home/vboxuser/topst/cr5-bsp/sources/build/tcc805x/gcc/tcc805x-freertos-debug/obj/gpio.o
LOAD /home/vboxuser/topst/cr5-bsp/sources/build/tcc805x/gcc/tcc805x-freertos-debug/obj/i2c.o
LOAD /home/vboxuser/topst/cr5-bsp/sources/build/tcc805x/gcc/tcc805x-freertos-debug/obj/i2c_reg.o
LOAD /home/vboxuser/topst/cr5-bsp/sources/build/tcc805x/gcc/tcc805x-freertos-debug/obj/ictc.o
LOAD /home/vboxuser/topst/cr5-bsp/sources/build/tcc805x/gcc/tcc805x-freertos-debug/obj/mbox_phy.o
LOAD /home/vboxuser/topst/cr5-bsp/sources/build/tcc805x/gcc/tcc805x-freertos-debug/obj/mbox_dev.o
LOAD /home/vboxuser/topst/cr5-bsp/sources/build/tcc805x/gcc/tcc805x-freertos-debug/obj/mbox.o
LOAD /home/vboxuser/topst/cr5-bsp/sources/build/tcc805x/gcc/tcc805x-freertos-debug/obj/mpu.o
LOAD /home/vboxuser/topst/cr5-bsp/sources/build/tcc805x/gcc/tcc805x-freertos-debug/obj/pdm.o
LOAD /home/vboxuser/topst/cr5-bsp/sources/build/tcc805x/gcc/tcc805x-freertos-debug/obj/pmio_dev.o
LOAD /home/vboxuser/topst/cr5-bsp/sources/build/tcc805x/gcc/tcc805x-freertos-debug/obj/gpsb.o
LOAD /home/vboxuser/topst/cr5-bsp/sources/build/tcc805x/gcc/tcc805x-freertos-debug/obj/gpsb_reg.o
LOAD /home/vboxuser/topst/cr5-bsp/sources/build/tcc805x/gcc/tcc805x-freertos-debug/obj/timer.o
LOAD /home/vboxuser/topst/cr5-bsp/sources/build/tcc805x/gcc/tcc805x-freertos-debug/obj/uart.o
LOAD /home/vboxuser/topst/cr5-bsp/sources/build/tcc805x/gcc/tcc805x-freertos-debug/obj/udma.o
LOAD /home/vboxuser/topst/cr5-bsp/sources/build/tcc805x/gcc/tcc805x-freertos-debug/obj/wdt.o
LOAD /home/vboxuser/topst/cr5-bsp/sources/build/tcc805x/gcc/tcc805x-freertos-debug/obj/dse.o
LOAD /home/vboxuser/topst/cr5-bsp/sources/build/tcc805x/gcc/tcc805x-freertos-debug/obj/midf.o
LOAD /home/vboxuser/topst/cr5-bsp/sources/build/tcc805x/gcc/tcc805x-freertos-debug/obj/pmu_reset.o
LOAD /home/vboxuser/topst/cr5-bsp/sources/build/tcc805x/gcc/tcc805x-freertos-debug/obj/tasks.o
LOAD /home/vboxuser/topst/cr5-bsp/sources/build/tcc805x/gcc/tcc805x-freertos-debug/obj/list.o
LOAD /home/vboxuser/topst/cr5-bsp/sources/build/tcc805x/gcc/tcc805x-freertos-debug/obj/queue.o
LOAD /home/vboxuser/topst/cr5-bsp/sources/build/tcc805x/gcc/tcc805x-freertos-debug/obj/event_groups.o
LOAD /home/vboxuser/topst/cr5-bsp/sources/build/tcc805x/gcc/tcc805x-freertos-debug/obj/timers.o
LOAD /home/vboxuser/topst/cr5-bsp/sources/build/tcc805x/gcc/tcc805x-freertos-debug/obj/stream_buffer.o
LOAD /home/vboxuser/topst/cr5-bsp/sources/build/tcc805x/gcc/tcc805x-freertos-debug/obj/port.o
LOAD /home/vboxuser/topst/cr5-bsp/sources/build/tcc805x/gcc/tcc805x-freertos-debug/obj/heap_5.o
LOAD /home/vboxuser/topst/cr5-bsp/sources/build/tcc805x/gcc/tcc805x-freertos-debug/obj/sal_api.o
LOAD /home/vboxuser/topst/cr5-bsp/sources/build/tcc805x/gcc/tcc805x-freertos-debug/obj/sal_freertos_impl.o
LOAD /home/vboxuser/topst/cr5-bsp/sources/build/tcc805x/gcc/tcc805x-freertos-debug/obj/startup.o
LOAD /home/vboxuser/topst/cr5-bsp/sources/build/tcc805x/gcc/tcc805x-freertos-debug/obj/vector.o
LOAD /home/vboxuser/topst/cr5-bsp/sources/build/tcc805x/gcc/tcc805x-freertos-debug/obj/vfp_init.o
LOAD /home/vboxuser/topst/cr5-bsp/sources/build/tcc805x/gcc/tcc805x-freertos-debug/obj/arm_a.o
LOAD /home/vboxuser/topst/cr5-bsp/sources/build/tcc805x/gcc/tcc805x-freertos-debug/obj/portASM.o
LOAD /home/vboxuser/topst/cr5-bsp/sources/build/tcc805x/gcc/tcc805x-freertos-debug/obj/freertos.o
LOAD /home/vboxuser/topst/cr5-bsp/sources/build/tcc805x/gcc/tcc805x-freertos-debug/obj/sal.o
LOAD /home/vboxuser/topst/buildtools/gcc-linaro-7.2.1-2017.11-x86_64_arm-eabi/arm-eabi/libc/usr/lib/libc.a
LOAD /home/vboxuser/topst/buildtools/gcc-linaro-7.2.1-2017.11-x86_64_arm-eabi/arm-eabi/libc/usr/lib/libm.a
LOAD /home/vboxuser/topst/buildtools/gcc-linaro-7.2.1-2017.11-x86_64_arm-eabi/arm-eabi/libc/usr/lib/libgcc.a
OUTPUT(/home/vboxuser/topst/cr5-bsp/sources/build/tcc805x/gcc/tcc805x-freertos-debug/boot elf32-littlearm)

.debug_info     0x0000000000000000    0xcf3fc
 .debug_info    0x0000000000000000     0x1faf /home/vboxuser/topst/cr5-bsp/sources/build/tcc805x/gcc/tcc805x-freertos-debug/obj/main.o
 .debug_info    0x0000000000001faf     0x1bfe /home/vboxuser/topst/cr5-bsp/sources/build/tcc805x/gcc/tcc805x-freertos-debug/obj/can_demo.o
 .debug_info    0x0000000000003bad     0x38ff /home/vboxuser/topst/cr5-bsp/sources/build/tcc805x/gcc/tcc805x-freertos-debug/obj/console.o
 .debug_info    0x00000000000074ac     0x1b42 /home/vboxuser/topst/cr5-bsp/sources/build/tcc805x/gcc/tcc805x-freertos-debug/obj/fwug.o
 .debug_info    0x0000000000008fee     0x1759 /home/vboxuser/topst/cr5-bsp/sources/build/tcc805x/gcc/tcc805x-freertos-debug/obj/key_adc.o
 .debug_info    0x000000000000a747     0x1692 /home/vboxuser/topst/cr5-bsp/sources/build/tcc805x/gcc/tcc805x-freertos-debug/obj/key_gpio.o
 .debug_info    0x000000000000bdd9     0x1873 /home/vboxuser/topst/cr5-bsp/sources/build/tcc805x/gcc/tcc805x-freertos-debug/obj/key_i2c.o
 .debug_info    0x000000000000d64c     0x1777 /home/vboxuser/topst/cr5-bsp/sources/build/tcc805x/gcc/tcc805x-freertos-debug/obj/system_monitoring.o
 .debug_info    0x000000000000edc3     0x1807 /home/vboxuser/topst/cr5-bsp/sources/build/tcc805x/gcc/tcc805x-freertos-debug/obj/bootctrl.o
 .debug_info    0x00000000000105ca     0x145e /home/vboxuser/topst/cr5-bsp/sources/build/tcc805x/gcc/tcc805x-freertos-debug/obj/reset_demo.o
 .debug_info    0x0000000000011a28     0x2a1a /home/vboxuser/topst/cr5-bsp/sources/build/tcc805x/gcc/tcc805x-freertos-debug/obj/adc_test.o
 .debug_info    0x0000000000014442     0x1702 /home/vboxuser/topst/cr5-bsp/sources/build/tcc805x/gcc/tcc805x-freertos-debug/obj/dse_test.o
 .debug_info    0x0000000000015b44     0x216b /home/vboxuser/topst/cr5-bsp/sources/build/tcc805x/gcc/tcc805x-freertos-debug/obj/fmu_test.o
 .debug_info    0x0000000000017caf     0x14de /home/vboxuser/topst/cr5-bsp/sources/build/tcc805x/gcc/tcc805x-freertos-debug/obj/gdma_test.o
 .debug_info    0x000000000001918d     0x14f0 /home/vboxuser/topst/cr5-bsp/sources/build/tcc805x/gcc/tcc805x-freertos-debug/obj/gic_test.o
 .debug_info    0x000000000001a67d     0x152a /home/vboxuser/topst/cr5-bsp/sources/build/tcc805x/gcc/tcc805x-freertos-debug/obj/gpio_test.o
 .debug_info    0x000000000001bba7     0x20e9 /home/vboxuser/topst/cr5-bsp/sources/build/tcc805x/gcc/tcc805x-freertos-debug/obj/gpsb_test.o
 .debug_info    0x000000000001dc90     0x2961 /home/vboxuser/topst/cr5-bsp/sources/build/tcc805x/gcc/tcc805x-freertos-debug/obj/hsm_test.o
 .debug_info    0x00000000000205f1     0x19c7 /home/vboxuser/topst/cr5-bsp/sources/build/tcc805x/gcc/tcc805x-freertos-debug/obj/i2c_test.o
 .debug_info    0x0000000000021fb8     0x14db /home/vboxuser/topst/cr5-bsp/sources/build/tcc805x/gcc/tcc805x-freertos-debug/obj/ictc_test.o
 .debug_info    0x0000000000023493     0x1568 /home/vboxuser/topst/cr5-bsp/sources/build/tcc805x/gcc/tcc805x-freertos-debug/obj/lin_test.o
 .debug_info    0x00000000000249fb     0x1606 /home/vboxuser/topst/cr5-bsp/sources/build/tcc805x/gcc/tcc805x-freertos-debug/obj/pdm_test.o
 .debug_info    0x0000000000026001     0x204a /home/vboxuser/topst/cr5-bsp/sources/build/tcc805x/gcc/tcc805x-freertos-debug/obj/pmio_test.o
 .debug_info    0x000000000002804b     0x1de6 /home/vboxuser/topst/cr5-bsp/sources/build/tcc805x/gcc/tcc805x-freertos-debug/obj/timer_test.o
 .debug_info    0x0000000000029e31     0x1c64 /home/vboxuser/topst/cr5-bsp/sources/build/tcc805x/gcc/tcc805x-freertos-debug/obj/wdt_test.o
 .debug_info    0x000000000002ba95     0x167b /home/vboxuser/topst/cr5-bsp/sources/build/tcc805x/gcc/tcc805x-freertos-debug/obj/pwm_test.o
 .debug_info    0x000000000002d110     0x205a /home/vboxuser/topst/cr5-bsp/sources/build/tcc805x/gcc/tcc805x-freertos-debug/obj/hap.o
 .debug_info    0x000000000002f16a     0x149f /home/vboxuser/topst/cr5-bsp/sources/build/tcc805x/gcc/tcc805x-freertos-debug/obj/mptool.o
 .debug_info    0x0000000000030609     0x1dd9 /home/vboxuser/topst/cr5-bsp/sources/build/tcc805x/gcc/tcc805x-freertos-debug/obj/ipc_os.o
 .debug_info    0x00000000000323e2     0x1ac7 /home/vboxuser/topst/cr5-bsp/sources/build/tcc805x/gcc/tcc805x-freertos-debug/obj/ipc_buffer.o
 .debug_info    0x0000000000033ea9     0x19a5 /home/vboxuser/topst/cr5-bsp/sources/build/tcc805x/gcc/tcc805x-freertos-debug/obj/ipc_cmd.o
 .debug_info    0x000000000003584e     0x2216 /home/vboxuser/topst/cr5-bsp/sources/build/tcc805x/gcc/tcc805x-freertos-debug/obj/ipc_ctl.o
 .debug_info    0x0000000000037a64     0x174b /home/vboxuser/topst/cr5-bsp/sources/build/tcc805x/gcc/tcc805x-freertos-debug/obj/ipc_parser.o
 .debug_info    0x00000000000391af     0x1d4a /home/vboxuser/topst/cr5-bsp/sources/build/tcc805x/gcc/tcc805x-freertos-debug/obj/ipc_api.o
 .debug_info    0x000000000003aef9     0x162a /home/vboxuser/topst/cr5-bsp/sources/build/tcc805x/gcc/tcc805x-freertos-debug/obj/ipc.o
 .debug_info    0x000000000003c523     0x1931 /home/vboxuser/topst/cr5-bsp/sources/build/tcc805x/gcc/tcc805x-freertos-debug/obj/lin.o
 .debug_info    0x000000000003de54     0x1a0b /home/vboxuser/topst/cr5-bsp/sources/build/tcc805x/gcc/tcc805x-freertos-debug/obj/sdm.o
 .debug_info    0x000000000003f85f     0x2b00 /home/vboxuser/topst/cr5-bsp/sources/build/tcc805x/gcc/tcc805x-freertos-debug/obj/hsm_manager.o
 .debug_info    0x000000000004235f     0x1a65 /home/vboxuser/topst/cr5-bsp/sources/build/tcc805x/gcc/tcc805x-freertos-debug/obj/adc.o
 .debug_info    0x0000000000043dc4     0x48ce /home/vboxuser/topst/cr5-bsp/sources/build/tcc805x/gcc/tcc805x-freertos-debug/obj/can.o
 .debug_info    0x0000000000048692     0x4f78 /home/vboxuser/topst/cr5-bsp/sources/build/tcc805x/gcc/tcc805x-freertos-debug/obj/can_drv.o
 .debug_info    0x000000000004d60a     0x4f93 /home/vboxuser/topst/cr5-bsp/sources/build/tcc805x/gcc/tcc805x-freertos-debug/obj/can_msg.o
 .debug_info    0x000000000005259d     0x1a5d /home/vboxuser/topst/cr5-bsp/sources/build/tcc805x/gcc/tcc805x-freertos-debug/obj/can_par.o
 .debug_info    0x0000000000053ffa     0x4d84 /home/vboxuser/topst/cr5-bsp/sources/build/tcc805x/gcc/tcc805x-freertos-debug/obj/can_porting.o
 .debug_info    0x0000000000058d7e     0x2e6a /home/vboxuser/topst/cr5-bsp/sources/build/tcc805x/gcc/tcc805x-freertos-debug/obj/clock_dev.o
 .debug_info    0x000000000005bbe8     0x17f8 /home/vboxuser/topst/cr5-bsp/sources/build/tcc805x/gcc/tcc805x-freertos-debug/obj/debug.o
 .debug_info    0x000000000005d3e0     0x1653 /home/vboxuser/topst/cr5-bsp/sources/build/tcc805x/gcc/tcc805x-freertos-debug/obj/bsp.o
 .debug_info    0x000000000005ea33     0x2847 /home/vboxuser/topst/cr5-bsp/sources/build/tcc805x/gcc/tcc805x-freertos-debug/obj/fmu.o
 .debug_info    0x000000000006127a     0x1e66 /home/vboxuser/topst/cr5-bsp/sources/build/tcc805x/gcc/tcc805x-freertos-debug/obj/gdma.o
 .debug_info    0x00000000000630e0     0x1fcb /home/vboxuser/topst/cr5-bsp/sources/build/tcc805x/gcc/tcc805x-freertos-debug/obj/gic.o
 .debug_info    0x00000000000650ab     0x16dd /home/vboxuser/topst/cr5-bsp/sources/build/tcc805x/gcc/tcc805x-freertos-debug/obj/gpio.o
 .debug_info    0x0000000000066788     0x2445 /home/vboxuser/topst/cr5-bsp/sources/build/tcc805x/gcc/tcc805x-freertos-debug/obj/i2c.o
 .debug_info    0x0000000000068bcd     0x18db /home/vboxuser/topst/cr5-bsp/sources/build/tcc805x/gcc/tcc805x-freertos-debug/obj/i2c_reg.o
 .debug_info    0x000000000006a4a8     0x208e /home/vboxuser/topst/cr5-bsp/sources/build/tcc805x/gcc/tcc805x-freertos-debug/obj/ictc.o
 .debug_info    0x000000000006c536     0x2791 /home/vboxuser/topst/cr5-bsp/sources/build/tcc805x/gcc/tcc805x-freertos-debug/obj/mbox_phy.o
 .debug_info    0x000000000006ecc7     0x35ce /home/vboxuser/topst/cr5-bsp/sources/build/tcc805x/gcc/tcc805x-freertos-debug/obj/mbox_dev.o
 .debug_info    0x0000000000072295     0x2228 /home/vboxuser/topst/cr5-bsp/sources/build/tcc805x/gcc/tcc805x-freertos-debug/obj/mbox.o
 .debug_info    0x00000000000744bd     0x15b8 /home/vboxuser/topst/cr5-bsp/sources/build/tcc805x/gcc/tcc805x-freertos-debug/obj/mpu.o
 .debug_info    0x0000000000075a75     0x27bf /home/vboxuser/topst/cr5-bsp/sources/build/tcc805x/gcc/tcc805x-freertos-debug/obj/pdm.o
 .debug_info    0x0000000000078234     0x2e02 /home/vboxuser/topst/cr5-bsp/sources/build/tcc805x/gcc/tcc805x-freertos-debug/obj/pmio_dev.o
 .debug_info    0x000000000007b036     0x31e6 /home/vboxuser/topst/cr5-bsp/sources/build/tcc805x/gcc/tcc805x-freertos-debug/obj/gpsb.o
 .debug_info    0x000000000007e21c     0x1912 /home/vboxuser/topst/cr5-bsp/sources/build/tcc805x/gcc/tcc805x-freertos-debug/obj/gpsb_reg.o
 .debug_info    0x000000000007fb2e     0x1ed3 /home/vboxuser/topst/cr5-bsp/sources/build/tcc805x/gcc/tcc805x-freertos-debug/obj/timer.o
 .debug_info    0x0000000000081a01     0x2fe6 /home/vboxuser/topst/cr5-bsp/sources/build/tcc805x/gcc/tcc805x-freertos-debug/obj/uart.o
 .debug_info    0x00000000000849e7     0x2198 /home/vboxuser/topst/cr5-bsp/sources/build/tcc805x/gcc/tcc805x-freertos-debug/obj/udma.o
 .debug_info    0x0000000000086b7f     0x1c3b /home/vboxuser/topst/cr5-bsp/sources/build/tcc805x/gcc/tcc805x-freertos-debug/obj/wdt.o
 .debug_info    0x00000000000887ba     0x194b /home/vboxuser/topst/cr5-bsp/sources/build/tcc805x/gcc/tcc805x-freertos-debug/obj/dse.o
 .debug_info    0x000000000008a105     0x18f2 /home/vboxuser/topst/cr5-bsp/sources/build/tcc805x/gcc/tcc805x-freertos-debug/obj/midf.o
 .debug_info    0x000000000008b9f7     0x1887 /home/vboxuser/topst/cr5-bsp/sources/build/tcc805x/gcc/tcc805x-freertos-debug/obj/pmu_reset.o
 .debug_info    0x000000000008d27e     0x22d6 /home/vboxuser/topst/cr5-bsp/sources/build/tcc805x/gcc/tcc805x-freertos-debug/obj/tasks.o
 .debug_info    0x000000000008f554      0xbe3 /home/vboxuser/topst/cr5-bsp/sources/build/tcc805x/gcc/tcc805x-freertos-debug/obj/list.o
 .debug_info    0x0000000000090137     0x1ee8 /home/vboxuser/topst/cr5-bsp/sources/build/tcc805x/gcc/tcc805x-freertos-debug/obj/queue.o
 .debug_info    0x000000000009201f     0x10e3 /home/vboxuser/topst/cr5-bsp/sources/build/tcc805x/gcc/tcc805x-freertos-debug/obj/event_groups.o
 .debug_info    0x0000000000093102     0x1988 /home/vboxuser/topst/cr5-bsp/sources/build/tcc805x/gcc/tcc805x-freertos-debug/obj/timers.o
 .debug_info    0x0000000000094a8a     0x15bb /home/vboxuser/topst/cr5-bsp/sources/build/tcc805x/gcc/tcc805x-freertos-debug/obj/stream_buffer.o
 .debug_info    0x0000000000096045     0x2690 /home/vboxuser/topst/cr5-bsp/sources/build/tcc805x/gcc/tcc805x-freertos-debug/obj/port.o
 .debug_info    0x00000000000986d5      0xd9d /home/vboxuser/topst/cr5-bsp/sources/build/tcc805x/gcc/tcc805x-freertos-debug/obj/heap_5.o
 .debug_info    0x0000000000099472     0x1543 /home/vboxuser/topst/cr5-bsp/sources/build/tcc805x/gcc/tcc805x-freertos-debug/obj/sal_api.o
 .debug_info    0x000000000009a9b5     0x33e1 /home/vboxuser/topst/cr5-bsp/sources/build/tcc805x/gcc/tcc805x-freertos-debug/obj/sal_freertos_impl.o
 .debug_info    0x000000000009dd96       0x98 /home/vboxuser/topst/cr5-bsp/sources/build/tcc805x/gcc/tcc805x-freertos-debug/obj/startup.o
 .debug_info    0x000000000009de2e       0x97 /home/vboxuser/topst/cr5-bsp/sources/build/tcc805x/gcc/tcc805x-freertos-debug/obj/vector.o
 .debug_info    0x000000000009dec5       0x99 /home/vboxuser/topst/cr5-bsp/sources/build/tcc805x/gcc/tcc805x-freertos-debug/obj/vfp_init.o
 .debug_info    0x000000000009df5e       0x96 /home/vboxuser/topst/cr5-bsp/sources/build/tcc805x/gcc/tcc805x-freertos-debug/obj/arm_a.o
 .debug_info    0x000000000009dff4       0xb0 /home/vboxuser/topst/cr5-bsp/sources/build/tcc805x/gcc/tcc805x-freertos-debug/obj/portASM.o
 .debug_info    0x000000000009e0a4       0xb1 /home/vboxuser/topst/cr5-bsp/sources/build/tcc805x/gcc/tcc805x-freertos-debug/obj/freertos.o
 .debug_info    0x000000000009e155       0x8e /home/vboxuser/topst/cr5-bsp/sources/build/tcc805x/gcc/tcc805x-freertos-debug/obj/sal.o
 .debug_info    0x000000000009e1e3      0x945 /home/vboxuser/topst/buildtools/gcc-linaro-7.2.1-2017.11-x86_64_arm-eabi/arm-eabi/libc/usr/lib/libc.a(lib_a-atoi.o)
 .debug_info    0x000000000009eb28      0x945 /home/vboxuser/topst/buildtools/gcc-linaro-7.2.1-2017.11-x86_64_arm-eabi/arm-eabi/libc/usr/lib/libc.a(lib_a-atol.o)
 .debug_info    0x000000000009f46d      0x91d /home/vboxuser/topst/buildtools/gcc-linaro-7.2.1-2017.11-x86_64_arm-eabi/arm-eabi/libc/usr/lib/libc.a(lib_a-memcmp.o)
 .debug_info    0x000000000009fd8a      0x938 /home/vboxuser/topst/buildtools/gcc-linaro-7.2.1-2017.11-x86_64_arm-eabi/arm-eabi/libc/usr/lib/libc.a(lib_a-memcpy-stub.o)
 .debug_info    0x00000000000a06c2      0xe22 /home/vboxuser/topst/buildtools/gcc-linaro-7.2.1-2017.11-x86_64_arm-eabi/arm-eabi/libc/usr/lib/libc.a(lib_a-memset.o)
 .debug_info    0x00000000000a14e4      0xc8f /home/vboxuser/topst/buildtools/gcc-linaro-7.2.1-2017.11-x86_64_arm-eabi/arm-eabi/libc/usr/lib/libc.a(lib_a-snprintf.o)
 .debug_info    0x00000000000a2173      0x8ba /home/vboxuser/topst/buildtools/gcc-linaro-7.2.1-2017.11-x86_64_arm-eabi/arm-eabi/libc/usr/lib/libc.a(lib_a-strlen-stub.o)
 .debug_info    0x00000000000a2a2d      0x8fa /home/vboxuser/topst/buildtools/gcc-linaro-7.2.1-2017.11-x86_64_arm-eabi/arm-eabi/libc/usr/lib/libc.a(lib_a-strncmp.o)
 .debug_info    0x00000000000a3327      0x92d /home/vboxuser/topst/buildtools/gcc-linaro-7.2.1-2017.11-x86_64_arm-eabi/arm-eabi/libc/usr/lib/libc.a(lib_a-strncpy.o)
 .debug_info    0x00000000000a3c54      0x8d6 /home/vboxuser/topst/buildtools/gcc-linaro-7.2.1-2017.11-x86_64_arm-eabi/arm-eabi/libc/usr/lib/libc.a(lib_a-strnlen.o)
 .debug_info    0x00000000000a452a     0x10d6 /home/vboxuser/topst/buildtools/gcc-linaro-7.2.1-2017.11-x86_64_arm-eabi/arm-eabi/libc/usr/lib/libc.a(lib_a-strtol.o)
 .debug_info    0x00000000000a5600     0x10d6 /home/vboxuser/topst/buildtools/gcc-linaro-7.2.1-2017.11-x86_64_arm-eabi/arm-eabi/libc/usr/lib/libc.a(lib_a-strtoul.o)
 .debug_info    0x00000000000a66d6     0x2cb0 /home/vboxuser/topst/buildtools/gcc-linaro-7.2.1-2017.11-x86_64_arm-eabi/arm-eabi/libc/usr/lib/libc.a(lib_a-svfprintf.o)
 .debug_info    0x00000000000a9386      0xfe4 /home/vboxuser/topst/buildtools/gcc-linaro-7.2.1-2017.11-x86_64_arm-eabi/arm-eabi/libc/usr/lib/libc.a(lib_a-wcrtomb.o)
 .debug_info    0x00000000000aa36a      0x9f6 /home/vboxuser/topst/buildtools/gcc-linaro-7.2.1-2017.11-x86_64_arm-eabi/arm-eabi/libc/usr/lib/libc.a(lib_a-wcsrtombs.o)
 .debug_info    0x00000000000aad60     0x1810 /home/vboxuser/topst/buildtools/gcc-linaro-7.2.1-2017.11-x86_64_arm-eabi/arm-eabi/libc/usr/lib/libc.a(lib_a-dtoa.o)
 .debug_info    0x00000000000ac570      0xc97 /home/vboxuser/topst/buildtools/gcc-linaro-7.2.1-2017.11-x86_64_arm-eabi/arm-eabi/libc/usr/lib/libc.a(lib_a-freer.o)
 .debug_info    0x00000000000ad207      0x8a9 /home/vboxuser/topst/buildtools/gcc-linaro-7.2.1-2017.11-x86_64_arm-eabi/arm-eabi/libc/usr/lib/libc.a(lib_a-impure.o)
 .debug_info    0x00000000000adab0     0x1b01 /home/vboxuser/topst/buildtools/gcc-linaro-7.2.1-2017.11-x86_64_arm-eabi/arm-eabi/libc/usr/lib/libc.a(lib_a-locale.o)
 .debug_info    0x00000000000af5b1      0xe91 /home/vboxuser/topst/buildtools/gcc-linaro-7.2.1-2017.11-x86_64_arm-eabi/arm-eabi/libc/usr/lib/libc.a(lib_a-localeconv.o)
 .debug_info    0x00000000000b0442      0xde0 /home/vboxuser/topst/buildtools/gcc-linaro-7.2.1-2017.11-x86_64_arm-eabi/arm-eabi/libc/usr/lib/libc.a(lib_a-mallocr.o)
 .debug_info    0x00000000000b1222     0x134a /home/vboxuser/topst/buildtools/gcc-linaro-7.2.1-2017.11-x86_64_arm-eabi/arm-eabi/libc/usr/lib/libc.a(lib_a-mbtowc_r.o)
 .debug_info    0x00000000000b256c      0x939 /home/vboxuser/topst/buildtools/gcc-linaro-7.2.1-2017.11-x86_64_arm-eabi/arm-eabi/libc/usr/lib/libc.a(lib_a-memchr-stub.o)
 .debug_info    0x00000000000b2ea5      0x8dc /home/vboxuser/topst/buildtools/gcc-linaro-7.2.1-2017.11-x86_64_arm-eabi/arm-eabi/libc/usr/lib/libc.a(lib_a-mlock.o)
 .debug_info    0x00000000000b3781     0x1c56 /home/vboxuser/topst/buildtools/gcc-linaro-7.2.1-2017.11-x86_64_arm-eabi/arm-eabi/libc/usr/lib/libc.a(lib_a-mprec.o)
 .debug_info    0x00000000000b53d7      0x9f9 /home/vboxuser/topst/buildtools/gcc-linaro-7.2.1-2017.11-x86_64_arm-eabi/arm-eabi/libc/usr/lib/libc.a(lib_a-s_frexp.o)
 .debug_info    0x00000000000b5dd0      0x95e /home/vboxuser/topst/buildtools/gcc-linaro-7.2.1-2017.11-x86_64_arm-eabi/arm-eabi/libc/usr/lib/libc.a(lib_a-sbrkr.o)
 .debug_info    0x00000000000b672e      0x95e /home/vboxuser/topst/buildtools/gcc-linaro-7.2.1-2017.11-x86_64_arm-eabi/arm-eabi/libc/usr/lib/libc.a(lib_a-strcasecmp.o)
 .debug_info    0x00000000000b708c      0x90e /home/vboxuser/topst/buildtools/gcc-linaro-7.2.1-2017.11-x86_64_arm-eabi/arm-eabi/libc/usr/lib/libc.a(lib_a-strcat.o)
 .debug_info    0x00000000000b799a      0x915 /home/vboxuser/topst/buildtools/gcc-linaro-7.2.1-2017.11-x86_64_arm-eabi/arm-eabi/libc/usr/lib/libc.a(lib_a-strchr.o)
 .debug_info    0x00000000000b82af      0x1b4 /home/vboxuser/topst/buildtools/gcc-linaro-7.2.1-2017.11-x86_64_arm-eabi/arm-eabi/libc/usr/lib/libc.a(lib_a-strcmp.o)
 .debug_info    0x00000000000b8463      0x8bc /home/vboxuser/topst/buildtools/gcc-linaro-7.2.1-2017.11-x86_64_arm-eabi/arm-eabi/libc/usr/lib/libc.a(lib_a-strcpy.o)
 .debug_info    0x00000000000b8d1f      0x8fd /home/vboxuser/topst/buildtools/gcc-linaro-7.2.1-2017.11-x86_64_arm-eabi/arm-eabi/libc/usr/lib/libc.a(lib_a-strlcpy.o)
 .debug_info    0x00000000000b961c      0x97a /home/vboxuser/topst/buildtools/gcc-linaro-7.2.1-2017.11-x86_64_arm-eabi/arm-eabi/libc/usr/lib/libc.a(lib_a-strncasecmp.o)
 .debug_info    0x00000000000b9f96     0x263d /home/vboxuser/topst/buildtools/gcc-linaro-7.2.1-2017.11-x86_64_arm-eabi/arm-eabi/libc/usr/lib/libc.a(lib_a-svfiprintf.o)
 .debug_info    0x00000000000bc5d3     0x1f43 /home/vboxuser/topst/buildtools/gcc-linaro-7.2.1-2017.11-x86_64_arm-eabi/arm-eabi/libc/usr/lib/libc.a(lib_a-syscalls.o)
 .debug_info    0x00000000000be516     0x10b1 /home/vboxuser/topst/buildtools/gcc-linaro-7.2.1-2017.11-x86_64_arm-eabi/arm-eabi/libc/usr/lib/libc.a(lib_a-wcsnrtombs.o)
 .debug_info    0x00000000000bf5c7     0x111b /home/vboxuser/topst/buildtools/gcc-linaro-7.2.1-2017.11-x86_64_arm-eabi/arm-eabi/libc/usr/lib/libc.a(lib_a-wctomb_r.o)
 .debug_info    0x00000000000c06e2      0xb61 /home/vboxuser/topst/buildtools/gcc-linaro-7.2.1-2017.11-x86_64_arm-eabi/arm-eabi/libc/usr/lib/libc.a(lib_a-callocr.o)
 .debug_info    0x00000000000c1243      0xdfc /home/vboxuser/topst/buildtools/gcc-linaro-7.2.1-2017.11-x86_64_arm-eabi/arm-eabi/libc/usr/lib/libc.a(lib_a-ctype_.o)
 .debug_info    0x00000000000c203f      0x8d0 /home/vboxuser/topst/buildtools/gcc-linaro-7.2.1-2017.11-x86_64_arm-eabi/arm-eabi/libc/usr/lib/libc.a(lib_a-errno.o)
 .debug_info    0x00000000000c290f      0xfa8 /home/vboxuser/topst/buildtools/gcc-linaro-7.2.1-2017.11-x86_64_arm-eabi/arm-eabi/libc/usr/lib/libc.a(lib_a-findfp.o)
 .debug_info    0x00000000000c38b7      0xbd3 /home/vboxuser/topst/buildtools/gcc-linaro-7.2.1-2017.11-x86_64_arm-eabi/arm-eabi/libc/usr/lib/libc.a(lib_a-fwalk.o)
 .debug_info    0x00000000000c448a      0xa04 /home/vboxuser/topst/buildtools/gcc-linaro-7.2.1-2017.11-x86_64_arm-eabi/arm-eabi/libc/usr/lib/libc.a(lib_a-getenv_r.o)
 .debug_info    0x00000000000c4e8e      0xe31 /home/vboxuser/topst/buildtools/gcc-linaro-7.2.1-2017.11-x86_64_arm-eabi/arm-eabi/libc/usr/lib/libc.a(lib_a-memmove.o)
 .debug_info    0x00000000000c5cbf      0xddc /home/vboxuser/topst/buildtools/gcc-linaro-7.2.1-2017.11-x86_64_arm-eabi/arm-eabi/libc/usr/lib/libc.a(lib_a-reallocr.o)
 .debug_info    0x00000000000c6a9b      0xa13 /home/vboxuser/topst/buildtools/gcc-linaro-7.2.1-2017.11-x86_64_arm-eabi/arm-eabi/libc/usr/lib/libc.a(lib_a-reent.o)
 .debug_info    0x00000000000c74ae      0xd5c /home/vboxuser/topst/buildtools/gcc-linaro-7.2.1-2017.11-x86_64_arm-eabi/arm-eabi/libc/usr/lib/libc.a(lib_a-stdio.o)
 .debug_info    0x00000000000c820a      0x99d /home/vboxuser/topst/buildtools/gcc-linaro-7.2.1-2017.11-x86_64_arm-eabi/arm-eabi/libc/usr/lib/libc.a(lib_a-writer.o)
 .debug_info    0x00000000000c8ba7      0x954 /home/vboxuser/topst/buildtools/gcc-linaro-7.2.1-2017.11-x86_64_arm-eabi/arm-eabi/libc/usr/lib/libc.a(lib_a-closer.o)
 .debug_info    0x00000000000c94fb       0x6a /home/vboxuser/topst/buildtools/gcc-linaro-7.2.1-2017.11-x86_64_arm-eabi/arm-eabi/libc/usr/lib/libc.a(lib_a-environ.o)
 .debug_info    0x00000000000c9565      0x8dc /home/vboxuser/topst/buildtools/gcc-linaro-7.2.1-2017.11-x86_64_arm-eabi/arm-eabi/libc/usr/lib/libc.a(lib_a-envlock.o)
 .debug_info    0x00000000000c9e41      0xc13 /home/vboxuser/topst/buildtools/gcc-linaro-7.2.1-2017.11-x86_64_arm-eabi/arm-eabi/libc/usr/lib/libc.a(lib_a-fclose.o)
 .debug_info    0x00000000000caa54      0xca3 /home/vboxuser/topst/buildtools/gcc-linaro-7.2.1-2017.11-x86_64_arm-eabi/arm-eabi/libc/usr/lib/libc.a(lib_a-fflush.o)
 .debug_info    0x00000000000cb6f7      0x980 /home/vboxuser/topst/buildtools/gcc-linaro-7.2.1-2017.11-x86_64_arm-eabi/arm-eabi/libc/usr/lib/libc.a(lib_a-lseekr.o)
 .debug_info    0x00000000000cc077      0x996 /home/vboxuser/topst/buildtools/gcc-linaro-7.2.1-2017.11-x86_64_arm-eabi/arm-eabi/libc/usr/lib/libc.a(lib_a-readr.o)
 .debug_info    0x00000000000cca0d      0x1a7 /home/vboxuser/topst/buildtools/gcc-linaro-7.2.1-2017.11-x86_64_arm-eabi/arm-eabi/libc/usr/lib/libgcc.a(_udivsi3.o)
 .debug_info    0x00000000000ccbb4      0x1a7 /home/vboxuser/topst/buildtools/gcc-linaro-7.2.1-2017.11-x86_64_arm-eabi/arm-eabi/libc/usr/lib/libgcc.a(_dvmd_tls.o)
 .debug_info    0x00000000000ccd5b      0x1a8 /home/vboxuser/topst/buildtools/gcc-linaro-7.2.1-2017.11-x86_64_arm-eabi/arm-eabi/libc/usr/lib/libgcc.a(_arm_addsubdf3.o)
 .debug_info    0x00000000000ccf03      0x1a8 /home/vboxuser/topst/buildtools/gcc-linaro-7.2.1-2017.11-x86_64_arm-eabi/arm-eabi/libc/usr/lib/libgcc.a(_arm_muldivdf3.o)
 .debug_info    0x00000000000cd0ab      0x1a8 /home/vboxuser/topst/buildtools/gcc-linaro-7.2.1-2017.11-x86_64_arm-eabi/arm-eabi/libc/usr/lib/libgcc.a(_arm_cmpdf2.o)
 .debug_info    0x00000000000cd253      0x1a8 /home/vboxuser/topst/buildtools/gcc-linaro-7.2.1-2017.11-x86_64_arm-eabi/arm-eabi/libc/usr/lib/libgcc.a(_arm_unorddf2.o)
 .debug_info    0x00000000000cd3fb      0x1a8 /home/vboxuser/topst/buildtools/gcc-linaro-7.2.1-2017.11-x86_64_arm-eabi/arm-eabi/libc/usr/lib/libgcc.a(_arm_fixdfsi.o)
 .debug_info    0x00000000000cd5a3      0x1a8 /home/vboxuser/topst/buildtools/gcc-linaro-7.2.1-2017.11-x86_64_arm-eabi/arm-eabi/libc/usr/lib/libgcc.a(_arm_fixunsdfsi.o)
 .debug_info    0x00000000000cd74b      0x1a8 /home/vboxuser/topst/buildtools/gcc-linaro-7.2.1-2017.11-x86_64_arm-eabi/arm-eabi/libc/usr/lib/libgcc.a(_arm_addsubsf3.o)
 .debug_info    0x00000000000cd8f3      0x1a8 /home/vboxuser/topst/buildtools/gcc-linaro-7.2.1-2017.11-x86_64_arm-eabi/arm-eabi/libc/usr/lib/libgcc.a(_arm_muldivsf3.o)
 .debug_info    0x00000000000cda9b      0x1a8 /home/vboxuser/topst/buildtools/gcc-linaro-7.2.1-2017.11-x86_64_arm-eabi/arm-eabi/libc/usr/lib/libgcc.a(_arm_fixunssfsi.o)
 .debug_info    0x00000000000cdc43      0x1a3 /home/vboxuser/topst/buildtools/gcc-linaro-7.2.1-2017.11-x86_64_arm-eabi/arm-eabi/libc/usr/lib/libgcc.a(_aeabi_uldivmod.o)
 .debug_info    0x00000000000cdde6     0x12c8 /home/vboxuser/topst/buildtools/gcc-linaro-7.2.1-2017.11-x86_64_arm-eabi/arm-eabi/libc/usr/lib/libgcc.a(_udivmoddi4.o)
 .debug_info    0x00000000000cf0ae      0x1a7 /home/vboxuser/topst/buildtools/gcc-linaro-7.2.1-2017.11-x86_64_arm-eabi/arm-eabi/libc/usr/lib/libgcc.a(_clzdi2.o)
 .debug_info    0x00000000000cf255      0x1a7 /home/vboxuser/topst/buildtools/gcc-linaro-7.2.1-2017.11-x86_64_arm-eabi/arm-eabi/libc/usr/lib/libgcc.a(_clzsi2.o)

.debug_abbrev   0x0000000000000000    0x12907
 .debug_abbrev  0x0000000000000000      0x24e /home/vboxuser/topst/cr5-bsp/sources/build/tcc805x/gcc/tcc805x-freertos-debug/obj/main.o
 .debug_abbrev  0x000000000000024e      0x22a /home/vboxuser/topst/cr5-bsp/sources/build/tcc805x/gcc/tcc805x-freertos-debug/obj/can_demo.o
 .debug_abbrev  0x0000000000000478      0x2db /home/vboxuser/topst/cr5-bsp/sources/build/tcc805x/gcc/tcc805x-freertos-debug/obj/console.o
 .debug_abbrev  0x0000000000000753      0x1cb /home/vboxuser/topst/cr5-bsp/sources/build/tcc805x/gcc/tcc805x-freertos-debug/obj/fwug.o
 .debug_abbrev  0x000000000000091e      0x1d6 /home/vboxuser/topst/cr5-bsp/sources/build/tcc805x/gcc/tcc805x-freertos-debug/obj/key_adc.o
 .debug_abbrev  0x0000000000000af4      0x1cc /home/vboxuser/topst/cr5-bsp/sources/build/tcc805x/gcc/tcc805x-freertos-debug/obj/key_gpio.o
 .debug_abbrev  0x0000000000000cc0      0x20e /home/vboxuser/topst/cr5-bsp/sources/build/tcc805x/gcc/tcc805x-freertos-debug/obj/key_i2c.o
 .debug_abbrev  0x0000000000000ece      0x1bb /home/vboxuser/topst/cr5-bsp/sources/build/tcc805x/gcc/tcc805x-freertos-debug/obj/system_monitoring.o
 .debug_abbrev  0x0000000000001089      0x1dc /home/vboxuser/topst/cr5-bsp/sources/build/tcc805x/gcc/tcc805x-freertos-debug/obj/bootctrl.o
 .debug_abbrev  0x0000000000001265      0x157 /home/vboxuser/topst/cr5-bsp/sources/build/tcc805x/gcc/tcc805x-freertos-debug/obj/reset_demo.o
 .debug_abbrev  0x00000000000013bc      0x270 /home/vboxuser/topst/cr5-bsp/sources/build/tcc805x/gcc/tcc805x-freertos-debug/obj/adc_test.o
 .debug_abbrev  0x000000000000162c      0x1a7 /home/vboxuser/topst/cr5-bsp/sources/build/tcc805x/gcc/tcc805x-freertos-debug/obj/dse_test.o
 .debug_abbrev  0x00000000000017d3      0x1e8 /home/vboxuser/topst/cr5-bsp/sources/build/tcc805x/gcc/tcc805x-freertos-debug/obj/fmu_test.o
 .debug_abbrev  0x00000000000019bb      0x155 /home/vboxuser/topst/cr5-bsp/sources/build/tcc805x/gcc/tcc805x-freertos-debug/obj/gdma_test.o
 .debug_abbrev  0x0000000000001b10      0x16d /home/vboxuser/topst/cr5-bsp/sources/build/tcc805x/gcc/tcc805x-freertos-debug/obj/gic_test.o
 .debug_abbrev  0x0000000000001c7d      0x19d /home/vboxuser/topst/cr5-bsp/sources/build/tcc805x/gcc/tcc805x-freertos-debug/obj/gpio_test.o
 .debug_abbrev  0x0000000000001e1a      0x21c /home/vboxuser/topst/cr5-bsp/sources/build/tcc805x/gcc/tcc805x-freertos-debug/obj/gpsb_test.o
 .debug_abbrev  0x0000000000002036      0x282 /home/vboxuser/topst/cr5-bsp/sources/build/tcc805x/gcc/tcc805x-freertos-debug/obj/hsm_test.o
 .debug_abbrev  0x00000000000022b8      0x1d6 /home/vboxuser/topst/cr5-bsp/sources/build/tcc805x/gcc/tcc805x-freertos-debug/obj/i2c_test.o
 .debug_abbrev  0x000000000000248e      0x18c /home/vboxuser/topst/cr5-bsp/sources/build/tcc805x/gcc/tcc805x-freertos-debug/obj/ictc_test.o
 .debug_abbrev  0x000000000000261a      0x181 /home/vboxuser/topst/cr5-bsp/sources/build/tcc805x/gcc/tcc805x-freertos-debug/obj/lin_test.o
 .debug_abbrev  0x000000000000279b      0x1d1 /home/vboxuser/topst/cr5-bsp/sources/build/tcc805x/gcc/tcc805x-freertos-debug/obj/pdm_test.o
 .debug_abbrev  0x000000000000296c      0x2a1 /home/vboxuser/topst/cr5-bsp/sources/build/tcc805x/gcc/tcc805x-freertos-debug/obj/pmio_test.o
 .debug_abbrev  0x0000000000002c0d      0x232 /home/vboxuser/topst/cr5-bsp/sources/build/tcc805x/gcc/tcc805x-freertos-debug/obj/timer_test.o
 .debug_abbrev  0x0000000000002e3f      0x23b /home/vboxuser/topst/cr5-bsp/sources/build/tcc805x/gcc/tcc805x-freertos-debug/obj/wdt_test.o
 .debug_abbrev  0x000000000000307a      0x178 /home/vboxuser/topst/cr5-bsp/sources/build/tcc805x/gcc/tcc805x-freertos-debug/obj/pwm_test.o
 .debug_abbrev  0x00000000000031f2      0x24f /home/vboxuser/topst/cr5-bsp/sources/build/tcc805x/gcc/tcc805x-freertos-debug/obj/hap.o
 .debug_abbrev  0x0000000000003441      0x18c /home/vboxuser/topst/cr5-bsp/sources/build/tcc805x/gcc/tcc805x-freertos-debug/obj/mptool.o
 .debug_abbrev  0x00000000000035cd      0x23a /home/vboxuser/topst/cr5-bsp/sources/build/tcc805x/gcc/tcc805x-freertos-debug/obj/ipc_os.o
 .debug_abbrev  0x0000000000003807      0x217 /home/vboxuser/topst/cr5-bsp/sources/build/tcc805x/gcc/tcc805x-freertos-debug/obj/ipc_buffer.o
 .debug_abbrev  0x0000000000003a1e      0x1a8 /home/vboxuser/topst/cr5-bsp/sources/build/tcc805x/gcc/tcc805x-freertos-debug/obj/ipc_cmd.o
 .debug_abbrev  0x0000000000003bc6      0x2d0 /home/vboxuser/topst/cr5-bsp/sources/build/tcc805x/gcc/tcc805x-freertos-debug/obj/ipc_ctl.o
 .debug_abbrev  0x0000000000003e96      0x1aa /home/vboxuser/topst/cr5-bsp/sources/build/tcc805x/gcc/tcc805x-freertos-debug/obj/ipc_parser.o
 .debug_abbrev  0x0000000000004040      0x229 /home/vboxuser/topst/cr5-bsp/sources/build/tcc805x/gcc/tcc805x-freertos-debug/obj/ipc_api.o
 .debug_abbrev  0x0000000000004269      0x17c /home/vboxuser/topst/cr5-bsp/sources/build/tcc805x/gcc/tcc805x-freertos-debug/obj/ipc.o
 .debug_abbrev  0x00000000000043e5      0x1dd /home/vboxuser/topst/cr5-bsp/sources/build/tcc805x/gcc/tcc805x-freertos-debug/obj/lin.o
 .debug_abbrev  0x00000000000045c2      0x1dd /home/vboxuser/topst/cr5-bsp/sources/build/tcc805x/gcc/tcc805x-freertos-debug/obj/sdm.o
 .debug_abbrev  0x000000000000479f      0x273 /home/vboxuser/topst/cr5-bsp/sources/build/tcc805x/gcc/tcc805x-freertos-debug/obj/hsm_manager.o
 .debug_abbrev  0x0000000000004a12      0x212 /home/vboxuser/topst/cr5-bsp/sources/build/tcc805x/gcc/tcc805x-freertos-debug/obj/adc.o
 .debug_abbrev  0x0000000000004c24      0x252 /home/vboxuser/topst/cr5-bsp/sources/build/tcc805x/gcc/tcc805x-freertos-debug/obj/can.o
 .debug_abbrev  0x0000000000004e76      0x2a7 /home/vboxuser/topst/cr5-bsp/sources/build/tcc805x/gcc/tcc805x-freertos-debug/obj/can_drv.o
 .debug_abbrev  0x000000000000511d      0x293 /home/vboxuser/topst/cr5-bsp/sources/build/tcc805x/gcc/tcc805x-freertos-debug/obj/can_msg.o
 .debug_abbrev  0x00000000000053b0      0x128 /home/vboxuser/topst/cr5-bsp/sources/build/tcc805x/gcc/tcc805x-freertos-debug/obj/can_par.o
 .debug_abbrev  0x00000000000054d8      0x26a /home/vboxuser/topst/cr5-bsp/sources/build/tcc805x/gcc/tcc805x-freertos-debug/obj/can_porting.o
 .debug_abbrev  0x0000000000005742      0x2dd /home/vboxuser/topst/cr5-bsp/sources/build/tcc805x/gcc/tcc805x-freertos-debug/obj/clock_dev.o
 .debug_abbrev  0x0000000000005a1f      0x21e /home/vboxuser/topst/cr5-bsp/sources/build/tcc805x/gcc/tcc805x-freertos-debug/obj/debug.o
 .debug_abbrev  0x0000000000005c3d      0x179 /home/vboxuser/topst/cr5-bsp/sources/build/tcc805x/gcc/tcc805x-freertos-debug/obj/bsp.o
 .debug_abbrev  0x0000000000005db6      0x25a /home/vboxuser/topst/cr5-bsp/sources/build/tcc805x/gcc/tcc805x-freertos-debug/obj/fmu.o
 .debug_abbrev  0x0000000000006010      0x204 /home/vboxuser/topst/cr5-bsp/sources/build/tcc805x/gcc/tcc805x-freertos-debug/obj/gdma.o
 .debug_abbrev  0x0000000000006214      0x22b /home/vboxuser/topst/cr5-bsp/sources/build/tcc805x/gcc/tcc805x-freertos-debug/obj/gic.o
 .debug_abbrev  0x000000000000643f      0x1c7 /home/vboxuser/topst/cr5-bsp/sources/build/tcc805x/gcc/tcc805x-freertos-debug/obj/gpio.o
 .debug_abbrev  0x0000000000006606      0x288 /home/vboxuser/topst/cr5-bsp/sources/build/tcc805x/gcc/tcc805x-freertos-debug/obj/i2c.o
 .debug_abbrev  0x000000000000688e      0x12a /home/vboxuser/topst/cr5-bsp/sources/build/tcc805x/gcc/tcc805x-freertos-debug/obj/i2c_reg.o
 .debug_abbrev  0x00000000000069b8      0x270 /home/vboxuser/topst/cr5-bsp/sources/build/tcc805x/gcc/tcc805x-freertos-debug/obj/ictc.o
 .debug_abbrev  0x0000000000006c28      0x2e1 /home/vboxuser/topst/cr5-bsp/sources/build/tcc805x/gcc/tcc805x-freertos-debug/obj/mbox_phy.o
 .debug_abbrev  0x0000000000006f09      0x340 /home/vboxuser/topst/cr5-bsp/sources/build/tcc805x/gcc/tcc805x-freertos-debug/obj/mbox_dev.o
 .debug_abbrev  0x0000000000007249      0x267 /home/vboxuser/topst/cr5-bsp/sources/build/tcc805x/gcc/tcc805x-freertos-debug/obj/mbox.o
 .debug_abbrev  0x00000000000074b0      0x1b4 /home/vboxuser/topst/cr5-bsp/sources/build/tcc805x/gcc/tcc805x-freertos-debug/obj/mpu.o
 .debug_abbrev  0x0000000000007664      0x236 /home/vboxuser/topst/cr5-bsp/sources/build/tcc805x/gcc/tcc805x-freertos-debug/obj/pdm.o
 .debug_abbrev  0x000000000000789a      0x338 /home/vboxuser/topst/cr5-bsp/sources/build/tcc805x/gcc/tcc805x-freertos-debug/obj/pmio_dev.o
 .debug_abbrev  0x0000000000007bd2      0x24a /home/vboxuser/topst/cr5-bsp/sources/build/tcc805x/gcc/tcc805x-freertos-debug/obj/gpsb.o
 .debug_abbrev  0x0000000000007e1c      0x119 /home/vboxuser/topst/cr5-bsp/sources/build/tcc805x/gcc/tcc805x-freertos-debug/obj/gpsb_reg.o
 .debug_abbrev  0x0000000000007f35      0x265 /home/vboxuser/topst/cr5-bsp/sources/build/tcc805x/gcc/tcc805x-freertos-debug/obj/timer.o
 .debug_abbrev  0x000000000000819a      0x249 /home/vboxuser/topst/cr5-bsp/sources/build/tcc805x/gcc/tcc805x-freertos-debug/obj/uart.o
 .debug_abbrev  0x00000000000083e3      0x24d /home/vboxuser/topst/cr5-bsp/sources/build/tcc805x/gcc/tcc805x-freertos-debug/obj/udma.o
 .debug_abbrev  0x0000000000008630      0x257 /home/vboxuser/topst/cr5-bsp/sources/build/tcc805x/gcc/tcc805x-freertos-debug/obj/wdt.o
 .debug_abbrev  0x0000000000008887      0x1fb /home/vboxuser/topst/cr5-bsp/sources/build/tcc805x/gcc/tcc805x-freertos-debug/obj/dse.o
 .debug_abbrev  0x0000000000008a82      0x206 /home/vboxuser/topst/cr5-bsp/sources/build/tcc805x/gcc/tcc805x-freertos-debug/obj/midf.o
 .debug_abbrev  0x0000000000008c88      0x218 /home/vboxuser/topst/cr5-bsp/sources/build/tcc805x/gcc/tcc805x-freertos-debug/obj/pmu_reset.o
 .debug_abbrev  0x0000000000008ea0      0x2fe /home/vboxuser/topst/cr5-bsp/sources/build/tcc805x/gcc/tcc805x-freertos-debug/obj/tasks.o
 .debug_abbrev  0x000000000000919e      0x1e4 /home/vboxuser/topst/cr5-bsp/sources/build/tcc805x/gcc/tcc805x-freertos-debug/obj/list.o
 .debug_abbrev  0x0000000000009382      0x2bf /home/vboxuser/topst/cr5-bsp/sources/build/tcc805x/gcc/tcc805x-freertos-debug/obj/queue.o
 .debug_abbrev  0x0000000000009641      0x229 /home/vboxuser/topst/cr5-bsp/sources/build/tcc805x/gcc/tcc805x-freertos-debug/obj/event_groups.o
 .debug_abbrev  0x000000000000986a      0x291 /home/vboxuser/topst/cr5-bsp/sources/build/tcc805x/gcc/tcc805x-freertos-debug/obj/timers.o
 .debug_abbrev  0x0000000000009afb      0x294 /home/vboxuser/topst/cr5-bsp/sources/build/tcc805x/gcc/tcc805x-freertos-debug/obj/stream_buffer.o
 .debug_abbrev  0x0000000000009d8f      0x303 /home/vboxuser/topst/cr5-bsp/sources/build/tcc805x/gcc/tcc805x-freertos-debug/obj/port.o
 .debug_abbrev  0x000000000000a092      0x252 /home/vboxuser/topst/cr5-bsp/sources/build/tcc805x/gcc/tcc805x-freertos-debug/obj/heap_5.o
 .debug_abbrev  0x000000000000a2e4      0x154 /home/vboxuser/topst/cr5-bsp/sources/build/tcc805x/gcc/tcc805x-freertos-debug/obj/sal_api.o
 .debug_abbrev  0x000000000000a438      0x27f /home/vboxuser/topst/cr5-bsp/sources/build/tcc805x/gcc/tcc805x-freertos-debug/obj/sal_freertos_impl.o
 .debug_abbrev  0x000000000000a6b7       0x14 /home/vboxuser/topst/cr5-bsp/sources/build/tcc805x/gcc/tcc805x-freertos-debug/obj/startup.o
 .debug_abbrev  0x000000000000a6cb       0x14 /home/vboxuser/topst/cr5-bsp/sources/build/tcc805x/gcc/tcc805x-freertos-debug/obj/vector.o
 .debug_abbrev  0x000000000000a6df       0x14 /home/vboxuser/topst/cr5-bsp/sources/build/tcc805x/gcc/tcc805x-freertos-debug/obj/vfp_init.o
 .debug_abbrev  0x000000000000a6f3       0x14 /home/vboxuser/topst/cr5-bsp/sources/build/tcc805x/gcc/tcc805x-freertos-debug/obj/arm_a.o
 .debug_abbrev  0x000000000000a707       0x14 /home/vboxuser/topst/cr5-bsp/sources/build/tcc805x/gcc/tcc805x-freertos-debug/obj/portASM.o
 .debug_abbrev  0x000000000000a71b       0x14 /home/vboxuser/topst/cr5-bsp/sources/build/tcc805x/gcc/tcc805x-freertos-debug/obj/freertos.o
 .debug_abbrev  0x000000000000a72f       0x14 /home/vboxuser/topst/cr5-bsp/sources/build/tcc805x/gcc/tcc805x-freertos-debug/obj/sal.o
 .debug_abbrev  0x000000000000a743      0x1e2 /home/vboxuser/topst/buildtools/gcc-linaro-7.2.1-2017.11-x86_64_arm-eabi/arm-eabi/libc/usr/lib/libc.a(lib_a-atoi.o)
 .debug_abbrev  0x000000000000a925      0x1e2 /home/vboxuser/topst/buildtools/gcc-linaro-7.2.1-2017.11-x86_64_arm-eabi/arm-eabi/libc/usr/lib/libc.a(lib_a-atol.o)
 .debug_abbrev  0x000000000000ab07      0x1bd /home/vboxuser/topst/buildtools/gcc-linaro-7.2.1-2017.11-x86_64_arm-eabi/arm-eabi/libc/usr/lib/libc.a(lib_a-memcmp.o)
 .debug_abbrev  0x000000000000acc4      0x1e2 /home/vboxuser/topst/buildtools/gcc-linaro-7.2.1-2017.11-x86_64_arm-eabi/arm-eabi/libc/usr/lib/libc.a(lib_a-memcpy-stub.o)
 .debug_abbrev  0x000000000000aea6      0x1de /home/vboxuser/topst/buildtools/gcc-linaro-7.2.1-2017.11-x86_64_arm-eabi/arm-eabi/libc/usr/lib/libc.a(lib_a-memset.o)
 .debug_abbrev  0x000000000000b084      0x26c /home/vboxuser/topst/buildtools/gcc-linaro-7.2.1-2017.11-x86_64_arm-eabi/arm-eabi/libc/usr/lib/libc.a(lib_a-snprintf.o)
 .debug_abbrev  0x000000000000b2f0      0x1a7 /home/vboxuser/topst/buildtools/gcc-linaro-7.2.1-2017.11-x86_64_arm-eabi/arm-eabi/libc/usr/lib/libc.a(lib_a-strlen-stub.o)
 .debug_abbrev  0x000000000000b497      0x1b8 /home/vboxuser/topst/buildtools/gcc-linaro-7.2.1-2017.11-x86_64_arm-eabi/arm-eabi/libc/usr/lib/libc.a(lib_a-strncmp.o)
 .debug_abbrev  0x000000000000b64f      0x1ea /home/vboxuser/topst/buildtools/gcc-linaro-7.2.1-2017.11-x86_64_arm-eabi/arm-eabi/libc/usr/lib/libc.a(lib_a-strncpy.o)
 .debug_abbrev  0x000000000000b839      0x1b6 /home/vboxuser/topst/buildtools/gcc-linaro-7.2.1-2017.11-x86_64_arm-eabi/arm-eabi/libc/usr/lib/libc.a(lib_a-strnlen.o)
 .debug_abbrev  0x000000000000b9ef      0x2bb /home/vboxuser/topst/buildtools/gcc-linaro-7.2.1-2017.11-x86_64_arm-eabi/arm-eabi/libc/usr/lib/libc.a(lib_a-strtol.o)
 .debug_abbrev  0x000000000000bcaa      0x2bb /home/vboxuser/topst/buildtools/gcc-linaro-7.2.1-2017.11-x86_64_arm-eabi/arm-eabi/libc/usr/lib/libc.a(lib_a-strtoul.o)
 .debug_abbrev  0x000000000000bf65      0x40c /home/vboxuser/topst/buildtools/gcc-linaro-7.2.1-2017.11-x86_64_arm-eabi/arm-eabi/libc/usr/lib/libc.a(lib_a-svfprintf.o)
 .debug_abbrev  0x000000000000c371      0x23f /home/vboxuser/topst/buildtools/gcc-linaro-7.2.1-2017.11-x86_64_arm-eabi/arm-eabi/libc/usr/lib/libc.a(lib_a-wcrtomb.o)
 .debug_abbrev  0x000000000000c5b0      0x1e7 /home/vboxuser/topst/buildtools/gcc-linaro-7.2.1-2017.11-x86_64_arm-eabi/arm-eabi/libc/usr/lib/libc.a(lib_a-wcsrtombs.o)
 .debug_abbrev  0x000000000000c797      0x2f2 /home/vboxuser/topst/buildtools/gcc-linaro-7.2.1-2017.11-x86_64_arm-eabi/arm-eabi/libc/usr/lib/libc.a(lib_a-dtoa.o)
 .debug_abbrev  0x000000000000ca89      0x273 /home/vboxuser/topst/buildtools/gcc-linaro-7.2.1-2017.11-x86_64_arm-eabi/arm-eabi/libc/usr/lib/libc.a(lib_a-freer.o)
 .debug_abbrev  0x000000000000ccfc      0x192 /home/vboxuser/topst/buildtools/gcc-linaro-7.2.1-2017.11-x86_64_arm-eabi/arm-eabi/libc/usr/lib/libc.a(lib_a-impure.o)
 .debug_abbrev  0x000000000000ce8e      0x39c /home/vboxuser/topst/buildtools/gcc-linaro-7.2.1-2017.11-x86_64_arm-eabi/arm-eabi/libc/usr/lib/libc.a(lib_a-locale.o)
 .debug_abbrev  0x000000000000d22a      0x246 /home/vboxuser/topst/buildtools/gcc-linaro-7.2.1-2017.11-x86_64_arm-eabi/arm-eabi/libc/usr/lib/libc.a(lib_a-localeconv.o)
 .debug_abbrev  0x000000000000d470      0x2cd /home/vboxuser/topst/buildtools/gcc-linaro-7.2.1-2017.11-x86_64_arm-eabi/arm-eabi/libc/usr/lib/libc.a(lib_a-mallocr.o)
 .debug_abbrev  0x000000000000d73d      0x2d8 /home/vboxuser/topst/buildtools/gcc-linaro-7.2.1-2017.11-x86_64_arm-eabi/arm-eabi/libc/usr/lib/libc.a(lib_a-mbtowc_r.o)
 .debug_abbrev  0x000000000000da15      0x1db /home/vboxuser/topst/buildtools/gcc-linaro-7.2.1-2017.11-x86_64_arm-eabi/arm-eabi/libc/usr/lib/libc.a(lib_a-memchr-stub.o)
 .debug_abbrev  0x000000000000dbf0      0x1d3 /home/vboxuser/topst/buildtools/gcc-linaro-7.2.1-2017.11-x86_64_arm-eabi/arm-eabi/libc/usr/lib/libc.a(lib_a-mlock.o)
 .debug_abbrev  0x000000000000ddc3      0x401 /home/vboxuser/topst/buildtools/gcc-linaro-7.2.1-2017.11-x86_64_arm-eabi/arm-eabi/libc/usr/lib/libc.a(lib_a-mprec.o)
 .debug_abbrev  0x000000000000e1c4      0x245 /home/vboxuser/topst/buildtools/gcc-linaro-7.2.1-2017.11-x86_64_arm-eabi/arm-eabi/libc/usr/lib/libc.a(lib_a-s_frexp.o)
 .debug_abbrev  0x000000000000e409      0x215 /home/vboxuser/topst/buildtools/gcc-linaro-7.2.1-2017.11-x86_64_arm-eabi/arm-eabi/libc/usr/lib/libc.a(lib_a-sbrkr.o)
 .debug_abbrev  0x000000000000e61e      0x1fc /home/vboxuser/topst/buildtools/gcc-linaro-7.2.1-2017.11-x86_64_arm-eabi/arm-eabi/libc/usr/lib/libc.a(lib_a-strcasecmp.o)
 .debug_abbrev  0x000000000000e81a      0x1f5 /home/vboxuser/topst/buildtools/gcc-linaro-7.2.1-2017.11-x86_64_arm-eabi/arm-eabi/libc/usr/lib/libc.a(lib_a-strcat.o)
 .debug_abbrev  0x000000000000ea0f      0x1c7 /home/vboxuser/topst/buildtools/gcc-linaro-7.2.1-2017.11-x86_64_arm-eabi/arm-eabi/libc/usr/lib/libc.a(lib_a-strchr.o)
 .debug_abbrev  0x000000000000ebd6       0x14 /home/vboxuser/topst/buildtools/gcc-linaro-7.2.1-2017.11-x86_64_arm-eabi/arm-eabi/libc/usr/lib/libc.a(lib_a-strcmp.o)
 .debug_abbrev  0x000000000000ebea      0x1b6 /home/vboxuser/topst/buildtools/gcc-linaro-7.2.1-2017.11-x86_64_arm-eabi/arm-eabi/libc/usr/lib/libc.a(lib_a-strcpy.o)
 .debug_abbrev  0x000000000000eda0      0x1c5 /home/vboxuser/topst/buildtools/gcc-linaro-7.2.1-2017.11-x86_64_arm-eabi/arm-eabi/libc/usr/lib/libc.a(lib_a-strlcpy.o)
 .debug_abbrev  0x000000000000ef65      0x205 /home/vboxuser/topst/buildtools/gcc-linaro-7.2.1-2017.11-x86_64_arm-eabi/arm-eabi/libc/usr/lib/libc.a(lib_a-strncasecmp.o)
 .debug_abbrev  0x000000000000f16a      0x37e /home/vboxuser/topst/buildtools/gcc-linaro-7.2.1-2017.11-x86_64_arm-eabi/arm-eabi/libc/usr/lib/libc.a(lib_a-svfiprintf.o)
 .debug_abbrev  0x000000000000f4e8      0x518 /home/vboxuser/topst/buildtools/gcc-linaro-7.2.1-2017.11-x86_64_arm-eabi/arm-eabi/libc/usr/lib/libc.a(lib_a-syscalls.o)
 .debug_abbrev  0x000000000000fa00      0x25e /home/vboxuser/topst/buildtools/gcc-linaro-7.2.1-2017.11-x86_64_arm-eabi/arm-eabi/libc/usr/lib/libc.a(lib_a-wcsnrtombs.o)
 .debug_abbrev  0x000000000000fc5e      0x270 /home/vboxuser/topst/buildtools/gcc-linaro-7.2.1-2017.11-x86_64_arm-eabi/arm-eabi/libc/usr/lib/libc.a(lib_a-wctomb_r.o)
 .debug_abbrev  0x000000000000fece      0x240 /home/vboxuser/topst/buildtools/gcc-linaro-7.2.1-2017.11-x86_64_arm-eabi/arm-eabi/libc/usr/lib/libc.a(lib_a-callocr.o)
 .debug_abbrev  0x000000000001010e      0x1d9 /home/vboxuser/topst/buildtools/gcc-linaro-7.2.1-2017.11-x86_64_arm-eabi/arm-eabi/libc/usr/lib/libc.a(lib_a-ctype_.o)
 .debug_abbrev  0x00000000000102e7      0x1ae /home/vboxuser/topst/buildtools/gcc-linaro-7.2.1-2017.11-x86_64_arm-eabi/arm-eabi/libc/usr/lib/libc.a(lib_a-errno.o)
 .debug_abbrev  0x0000000000010495      0x3a8 /home/vboxuser/topst/buildtools/gcc-linaro-7.2.1-2017.11-x86_64_arm-eabi/arm-eabi/libc/usr/lib/libc.a(lib_a-findfp.o)
 .debug_abbrev  0x000000000001083d      0x215 /home/vboxuser/topst/buildtools/gcc-linaro-7.2.1-2017.11-x86_64_arm-eabi/arm-eabi/libc/usr/lib/libc.a(lib_a-fwalk.o)
 .debug_abbrev  0x0000000000010a52      0x21a /home/vboxuser/topst/buildtools/gcc-linaro-7.2.1-2017.11-x86_64_arm-eabi/arm-eabi/libc/usr/lib/libc.a(lib_a-getenv_r.o)
 .debug_abbrev  0x0000000000010c6c      0x1e3 /home/vboxuser/topst/buildtools/gcc-linaro-7.2.1-2017.11-x86_64_arm-eabi/arm-eabi/libc/usr/lib/libc.a(lib_a-memmove.o)
 .debug_abbrev  0x0000000000010e4f      0x26c /home/vboxuser/topst/buildtools/gcc-linaro-7.2.1-2017.11-x86_64_arm-eabi/arm-eabi/libc/usr/lib/libc.a(lib_a-reallocr.o)
 .debug_abbrev  0x00000000000110bb      0x281 /home/vboxuser/topst/buildtools/gcc-linaro-7.2.1-2017.11-x86_64_arm-eabi/arm-eabi/libc/usr/lib/libc.a(lib_a-reent.o)
 .debug_abbrev  0x000000000001133c      0x25d /home/vboxuser/topst/buildtools/gcc-linaro-7.2.1-2017.11-x86_64_arm-eabi/arm-eabi/libc/usr/lib/libc.a(lib_a-stdio.o)
 .debug_abbrev  0x0000000000011599      0x215 /home/vboxuser/topst/buildtools/gcc-linaro-7.2.1-2017.11-x86_64_arm-eabi/arm-eabi/libc/usr/lib/libc.a(lib_a-writer.o)
 .debug_abbrev  0x00000000000117ae      0x210 /home/vboxuser/topst/buildtools/gcc-linaro-7.2.1-2017.11-x86_64_arm-eabi/arm-eabi/libc/usr/lib/libc.a(lib_a-closer.o)
 .debug_abbrev  0x00000000000119be       0x56 /home/vboxuser/topst/buildtools/gcc-linaro-7.2.1-2017.11-x86_64_arm-eabi/arm-eabi/libc/usr/lib/libc.a(lib_a-environ.o)
 .debug_abbrev  0x0000000000011a14      0x1d7 /home/vboxuser/topst/buildtools/gcc-linaro-7.2.1-2017.11-x86_64_arm-eabi/arm-eabi/libc/usr/lib/libc.a(lib_a-envlock.o)
 .debug_abbrev  0x0000000000011beb      0x2d9 /home/vboxuser/topst/buildtools/gcc-linaro-7.2.1-2017.11-x86_64_arm-eabi/arm-eabi/libc/usr/lib/libc.a(lib_a-fclose.o)
 .debug_abbrev  0x0000000000011ec4      0x2e2 /home/vboxuser/topst/buildtools/gcc-linaro-7.2.1-2017.11-x86_64_arm-eabi/arm-eabi/libc/usr/lib/libc.a(lib_a-fflush.o)
 .debug_abbrev  0x00000000000121a6      0x21f /home/vboxuser/topst/buildtools/gcc-linaro-7.2.1-2017.11-x86_64_arm-eabi/arm-eabi/libc/usr/lib/libc.a(lib_a-lseekr.o)
 .debug_abbrev  0x00000000000123c5      0x210 /home/vboxuser/topst/buildtools/gcc-linaro-7.2.1-2017.11-x86_64_arm-eabi/arm-eabi/libc/usr/lib/libc.a(lib_a-readr.o)
 .debug_abbrev  0x00000000000125d5       0x14 /home/vboxuser/topst/buildtools/gcc-linaro-7.2.1-2017.11-x86_64_arm-eabi/arm-eabi/libc/usr/lib/libgcc.a(_udivsi3.o)
 .debug_abbrev  0x00000000000125e9       0x14 /home/vboxuser/topst/buildtools/gcc-linaro-7.2.1-2017.11-x86_64_arm-eabi/arm-eabi/libc/usr/lib/libgcc.a(_dvmd_tls.o)
 .debug_abbrev  0x00000000000125fd       0x14 /home/vboxuser/topst/buildtools/gcc-linaro-7.2.1-2017.11-x86_64_arm-eabi/arm-eabi/libc/usr/lib/libgcc.a(_arm_addsubdf3.o)
 .debug_abbrev  0x0000000000012611       0x14 /home/vboxuser/topst/buildtools/gcc-linaro-7.2.1-2017.11-x86_64_arm-eabi/arm-eabi/libc/usr/lib/libgcc.a(_arm_muldivdf3.o)
 .debug_abbrev  0x0000000000012625       0x14 /home/vboxuser/topst/buildtools/gcc-linaro-7.2.1-2017.11-x86_64_arm-eabi/arm-eabi/libc/usr/lib/libgcc.a(_arm_cmpdf2.o)
 .debug_abbrev  0x0000000000012639       0x14 /home/vboxuser/topst/buildtools/gcc-linaro-7.2.1-2017.11-x86_64_arm-eabi/arm-eabi/libc/usr/lib/libgcc.a(_arm_unorddf2.o)
 .debug_abbrev  0x000000000001264d       0x14 /home/vboxuser/topst/buildtools/gcc-linaro-7.2.1-2017.11-x86_64_arm-eabi/arm-eabi/libc/usr/lib/libgcc.a(_arm_fixdfsi.o)
 .debug_abbrev  0x0000000000012661       0x14 /home/vboxuser/topst/buildtools/gcc-linaro-7.2.1-2017.11-x86_64_arm-eabi/arm-eabi/libc/usr/lib/libgcc.a(_arm_fixunsdfsi.o)
 .debug_abbrev  0x0000000000012675       0x14 /home/vboxuser/topst/buildtools/gcc-linaro-7.2.1-2017.11-x86_64_arm-eabi/arm-eabi/libc/usr/lib/libgcc.a(_arm_addsubsf3.o)
 .debug_abbrev  0x0000000000012689       0x14 /home/vboxuser/topst/buildtools/gcc-linaro-7.2.1-2017.11-x86_64_arm-eabi/arm-eabi/libc/usr/lib/libgcc.a(_arm_muldivsf3.o)
 .debug_abbrev  0x000000000001269d       0x14 /home/vboxuser/topst/buildtools/gcc-linaro-7.2.1-2017.11-x86_64_arm-eabi/arm-eabi/libc/usr/lib/libgcc.a(_arm_fixunssfsi.o)
 .debug_abbrev  0x00000000000126b1       0x14 /home/vboxuser/topst/buildtools/gcc-linaro-7.2.1-2017.11-x86_64_arm-eabi/arm-eabi/libc/usr/lib/libgcc.a(_aeabi_uldivmod.o)
 .debug_abbrev  0x00000000000126c5      0x21a /home/vboxuser/topst/buildtools/gcc-linaro-7.2.1-2017.11-x86_64_arm-eabi/arm-eabi/libc/usr/lib/libgcc.a(_udivmoddi4.o)
 .debug_abbrev  0x00000000000128df       0x14 /home/vboxuser/topst/buildtools/gcc-linaro-7.2.1-2017.11-x86_64_arm-eabi/arm-eabi/libc/usr/lib/libgcc.a(_clzdi2.o)
 .debug_abbrev  0x00000000000128f3       0x14 /home/vboxuser/topst/buildtools/gcc-linaro-7.2.1-2017.11-x86_64_arm-eabi/arm-eabi/libc/usr/lib/libgcc.a(_clzsi2.o)

.debug_loc      0x0000000000000000    0x2d948
 .debug_loc     0x0000000000000000       0xbc /home/vboxuser/topst/cr5-bsp/sources/build/tcc805x/gcc/tcc805x-freertos-debug/obj/main.o
 .debug_loc     0x00000000000000bc      0x268 /home/vboxuser/topst/cr5-bsp/sources/build/tcc805x/gcc/tcc805x-freertos-debug/obj/can_demo.o
 .debug_loc     0x0000000000000324      0xaf4 /home/vboxuser/topst/cr5-bsp/sources/build/tcc805x/gcc/tcc805x-freertos-debug/obj/console.o
 .debug_loc     0x0000000000000e18       0xd4 /home/vboxuser/topst/cr5-bsp/sources/build/tcc805x/gcc/tcc805x-freertos-debug/obj/fwug.o
 .debug_loc     0x0000000000000eec       0xf8 /home/vboxuser/topst/cr5-bsp/sources/build/tcc805x/gcc/tcc805x-freertos-debug/obj/key_adc.o
 .debug_loc     0x0000000000000fe4      0x144 /home/vboxuser/topst/cr5-bsp/sources/build/tcc805x/gcc/tcc805x-freertos-debug/obj/key_gpio.o
 .debug_loc     0x0000000000001128      0x168 /home/vboxuser/topst/cr5-bsp/sources/build/tcc805x/gcc/tcc805x-freertos-debug/obj/key_i2c.o
 .debug_loc     0x0000000000001290      0x124 /home/vboxuser/topst/cr5-bsp/sources/build/tcc805x/gcc/tcc805x-freertos-debug/obj/system_monitoring.o
 .debug_loc     0x00000000000013b4      0x15c /home/vboxuser/topst/cr5-bsp/sources/build/tcc805x/gcc/tcc805x-freertos-debug/obj/bootctrl.o
 .debug_loc     0x0000000000001510       0x38 /home/vboxuser/topst/cr5-bsp/sources/build/tcc805x/gcc/tcc805x-freertos-debug/obj/reset_demo.o
 .debug_loc     0x0000000000001548      0x2b8 /home/vboxuser/topst/cr5-bsp/sources/build/tcc805x/gcc/tcc805x-freertos-debug/obj/adc_test.o
 .debug_loc     0x0000000000001800       0xa8 /home/vboxuser/topst/cr5-bsp/sources/build/tcc805x/gcc/tcc805x-freertos-debug/obj/dse_test.o
 .debug_loc     0x00000000000018a8      0x1a0 /home/vboxuser/topst/cr5-bsp/sources/build/tcc805x/gcc/tcc805x-freertos-debug/obj/fmu_test.o
 .debug_loc     0x0000000000001a48       0x38 /home/vboxuser/topst/cr5-bsp/sources/build/tcc805x/gcc/tcc805x-freertos-debug/obj/gdma_test.o
 .debug_loc     0x0000000000001a80       0xa8 /home/vboxuser/topst/cr5-bsp/sources/build/tcc805x/gcc/tcc805x-freertos-debug/obj/gic_test.o
 .debug_loc     0x0000000000001b28       0xa8 /home/vboxuser/topst/cr5-bsp/sources/build/tcc805x/gcc/tcc805x-freertos-debug/obj/gpio_test.o
 .debug_loc     0x0000000000001bd0      0x348 /home/vboxuser/topst/cr5-bsp/sources/build/tcc805x/gcc/tcc805x-freertos-debug/obj/gpsb_test.o
 .debug_loc     0x0000000000001f18      0x3b8 /home/vboxuser/topst/cr5-bsp/sources/build/tcc805x/gcc/tcc805x-freertos-debug/obj/hsm_test.o
 .debug_loc     0x00000000000022d0      0x224 /home/vboxuser/topst/cr5-bsp/sources/build/tcc805x/gcc/tcc805x-freertos-debug/obj/i2c_test.o
 .debug_loc     0x00000000000024f4      0x100 /home/vboxuser/topst/cr5-bsp/sources/build/tcc805x/gcc/tcc805x-freertos-debug/obj/ictc_test.o
 .debug_loc     0x00000000000025f4       0x64 /home/vboxuser/topst/cr5-bsp/sources/build/tcc805x/gcc/tcc805x-freertos-debug/obj/lin_test.o
 .debug_loc     0x0000000000002658      0x144 /home/vboxuser/topst/cr5-bsp/sources/build/tcc805x/gcc/tcc805x-freertos-debug/obj/pdm_test.o
 .debug_loc     0x000000000000279c      0x204 /home/vboxuser/topst/cr5-bsp/sources/build/tcc805x/gcc/tcc805x-freertos-debug/obj/pmio_test.o
 .debug_loc     0x00000000000029a0      0x460 /home/vboxuser/topst/cr5-bsp/sources/build/tcc805x/gcc/tcc805x-freertos-debug/obj/timer_test.o
 .debug_loc     0x0000000000002e00      0x368 /home/vboxuser/topst/cr5-bsp/sources/build/tcc805x/gcc/tcc805x-freertos-debug/obj/wdt_test.o
 .debug_loc     0x0000000000003168      0x158 /home/vboxuser/topst/cr5-bsp/sources/build/tcc805x/gcc/tcc805x-freertos-debug/obj/pwm_test.o
 .debug_loc     0x00000000000032c0      0x100 /home/vboxuser/topst/cr5-bsp/sources/build/tcc805x/gcc/tcc805x-freertos-debug/obj/hap.o
 .debug_loc     0x00000000000033c0       0x64 /home/vboxuser/topst/cr5-bsp/sources/build/tcc805x/gcc/tcc805x-freertos-debug/obj/mptool.o
 .debug_loc     0x0000000000003424      0x868 /home/vboxuser/topst/cr5-bsp/sources/build/tcc805x/gcc/tcc805x-freertos-debug/obj/ipc_os.o
 .debug_loc     0x0000000000003c8c      0x36c /home/vboxuser/topst/cr5-bsp/sources/build/tcc805x/gcc/tcc805x-freertos-debug/obj/ipc_buffer.o
 .debug_loc     0x0000000000003ff8      0x150 /home/vboxuser/topst/cr5-bsp/sources/build/tcc805x/gcc/tcc805x-freertos-debug/obj/ipc_cmd.o
 .debug_loc     0x0000000000004148      0x46c /home/vboxuser/topst/cr5-bsp/sources/build/tcc805x/gcc/tcc805x-freertos-debug/obj/ipc_ctl.o
 .debug_loc     0x00000000000045b4      0x100 /home/vboxuser/topst/cr5-bsp/sources/build/tcc805x/gcc/tcc805x-freertos-debug/obj/ipc_parser.o
 .debug_loc     0x00000000000046b4      0x124 /home/vboxuser/topst/cr5-bsp/sources/build/tcc805x/gcc/tcc805x-freertos-debug/obj/ipc_api.o
 .debug_loc     0x00000000000047d8       0xe0 /home/vboxuser/topst/cr5-bsp/sources/build/tcc805x/gcc/tcc805x-freertos-debug/obj/ipc.o
 .debug_loc     0x00000000000048b8      0x1c0 /home/vboxuser/topst/cr5-bsp/sources/build/tcc805x/gcc/tcc805x-freertos-debug/obj/lin.o
 .debug_loc     0x0000000000004a78      0x188 /home/vboxuser/topst/cr5-bsp/sources/build/tcc805x/gcc/tcc805x-freertos-debug/obj/sdm.o
 .debug_loc     0x0000000000004c00      0x310 /home/vboxuser/topst/cr5-bsp/sources/build/tcc805x/gcc/tcc805x-freertos-debug/obj/hsm_manager.o
 .debug_loc     0x0000000000004f10      0x204 /home/vboxuser/topst/cr5-bsp/sources/build/tcc805x/gcc/tcc805x-freertos-debug/obj/adc.o
 .debug_loc     0x0000000000005114      0x3bc /home/vboxuser/topst/cr5-bsp/sources/build/tcc805x/gcc/tcc805x-freertos-debug/obj/can.o
 .debug_loc     0x00000000000054d0      0x6a0 /home/vboxuser/topst/cr5-bsp/sources/build/tcc805x/gcc/tcc805x-freertos-debug/obj/can_drv.o
 .debug_loc     0x0000000000005b70      0x34c /home/vboxuser/topst/cr5-bsp/sources/build/tcc805x/gcc/tcc805x-freertos-debug/obj/can_msg.o
 .debug_loc     0x0000000000005ebc      0x87c /home/vboxuser/topst/cr5-bsp/sources/build/tcc805x/gcc/tcc805x-freertos-debug/obj/can_porting.o
 .debug_loc     0x0000000000006738      0x640 /home/vboxuser/topst/cr5-bsp/sources/build/tcc805x/gcc/tcc805x-freertos-debug/obj/clock_dev.o
 .debug_loc     0x0000000000006d78      0x180 /home/vboxuser/topst/cr5-bsp/sources/build/tcc805x/gcc/tcc805x-freertos-debug/obj/debug.o
 .debug_loc     0x0000000000006ef8       0xc8 /home/vboxuser/topst/cr5-bsp/sources/build/tcc805x/gcc/tcc805x-freertos-debug/obj/bsp.o
 .debug_loc     0x0000000000006fc0      0x334 /home/vboxuser/topst/cr5-bsp/sources/build/tcc805x/gcc/tcc805x-freertos-debug/obj/fmu.o
 .debug_loc     0x00000000000072f4      0x338 /home/vboxuser/topst/cr5-bsp/sources/build/tcc805x/gcc/tcc805x-freertos-debug/obj/gdma.o
 .debug_loc     0x000000000000762c      0x3b4 /home/vboxuser/topst/cr5-bsp/sources/build/tcc805x/gcc/tcc805x-freertos-debug/obj/gic.o
 .debug_loc     0x00000000000079e0      0x124 /home/vboxuser/topst/cr5-bsp/sources/build/tcc805x/gcc/tcc805x-freertos-debug/obj/gpio.o
 .debug_loc     0x0000000000007b04      0x65c /home/vboxuser/topst/cr5-bsp/sources/build/tcc805x/gcc/tcc805x-freertos-debug/obj/i2c.o
 .debug_loc     0x0000000000008160      0x4f8 /home/vboxuser/topst/cr5-bsp/sources/build/tcc805x/gcc/tcc805x-freertos-debug/obj/ictc.o
 .debug_loc     0x0000000000008658      0x714 /home/vboxuser/topst/cr5-bsp/sources/build/tcc805x/gcc/tcc805x-freertos-debug/obj/mbox_phy.o
 .debug_loc     0x0000000000008d6c      0x7b4 /home/vboxuser/topst/cr5-bsp/sources/build/tcc805x/gcc/tcc805x-freertos-debug/obj/mbox_dev.o
 .debug_loc     0x0000000000009520      0x25c /home/vboxuser/topst/cr5-bsp/sources/build/tcc805x/gcc/tcc805x-freertos-debug/obj/mbox.o
 .debug_loc     0x000000000000977c      0x174 /home/vboxuser/topst/cr5-bsp/sources/build/tcc805x/gcc/tcc805x-freertos-debug/obj/mpu.o
 .debug_loc     0x00000000000098f0      0x614 /home/vboxuser/topst/cr5-bsp/sources/build/tcc805x/gcc/tcc805x-freertos-debug/obj/pdm.o
 .debug_loc     0x0000000000009f04      0x754 /home/vboxuser/topst/cr5-bsp/sources/build/tcc805x/gcc/tcc805x-freertos-debug/obj/pmio_dev.o
 .debug_loc     0x000000000000a658      0xf08 /home/vboxuser/topst/cr5-bsp/sources/build/tcc805x/gcc/tcc805x-freertos-debug/obj/gpsb.o
 .debug_loc     0x000000000000b560      0x2c4 /home/vboxuser/topst/cr5-bsp/sources/build/tcc805x/gcc/tcc805x-freertos-debug/obj/timer.o
 .debug_loc     0x000000000000b824      0x934 /home/vboxuser/topst/cr5-bsp/sources/build/tcc805x/gcc/tcc805x-freertos-debug/obj/uart.o
 .debug_loc     0x000000000000c158      0x440 /home/vboxuser/topst/cr5-bsp/sources/build/tcc805x/gcc/tcc805x-freertos-debug/obj/udma.o
 .debug_loc     0x000000000000c598      0x264 /home/vboxuser/topst/cr5-bsp/sources/build/tcc805x/gcc/tcc805x-freertos-debug/obj/wdt.o
 .debug_loc     0x000000000000c7fc      0x124 /home/vboxuser/topst/cr5-bsp/sources/build/tcc805x/gcc/tcc805x-freertos-debug/obj/dse.o
 .debug_loc     0x000000000000c920      0x1fc /home/vboxuser/topst/cr5-bsp/sources/build/tcc805x/gcc/tcc805x-freertos-debug/obj/midf.o
 .debug_loc     0x000000000000cb1c      0x1e4 /home/vboxuser/topst/cr5-bsp/sources/build/tcc805x/gcc/tcc805x-freertos-debug/obj/pmu_reset.o
 .debug_loc     0x000000000000cd00      0xd28 /home/vboxuser/topst/cr5-bsp/sources/build/tcc805x/gcc/tcc805x-freertos-debug/obj/tasks.o
 .debug_loc     0x000000000000da28      0x154 /home/vboxuser/topst/cr5-bsp/sources/build/tcc805x/gcc/tcc805x-freertos-debug/obj/list.o
 .debug_loc     0x000000000000db7c      0x9c8 /home/vboxuser/topst/cr5-bsp/sources/build/tcc805x/gcc/tcc805x-freertos-debug/obj/queue.o
 .debug_loc     0x000000000000e544      0x274 /home/vboxuser/topst/cr5-bsp/sources/build/tcc805x/gcc/tcc805x-freertos-debug/obj/event_groups.o
 .debug_loc     0x000000000000e7b8      0x5a8 /home/vboxuser/topst/cr5-bsp/sources/build/tcc805x/gcc/tcc805x-freertos-debug/obj/timers.o
 .debug_loc     0x000000000000ed60      0x500 /home/vboxuser/topst/cr5-bsp/sources/build/tcc805x/gcc/tcc805x-freertos-debug/obj/stream_buffer.o
 .debug_loc     0x000000000000f260      0x4c0 /home/vboxuser/topst/cr5-bsp/sources/build/tcc805x/gcc/tcc805x-freertos-debug/obj/port.o
 .debug_loc     0x000000000000f720      0x1b8 /home/vboxuser/topst/cr5-bsp/sources/build/tcc805x/gcc/tcc805x-freertos-debug/obj/heap_5.o
 .debug_loc     0x000000000000f8d8       0x44 /home/vboxuser/topst/cr5-bsp/sources/build/tcc805x/gcc/tcc805x-freertos-debug/obj/sal_api.o
 .debug_loc     0x000000000000f91c      0x648 /home/vboxuser/topst/cr5-bsp/sources/build/tcc805x/gcc/tcc805x-freertos-debug/obj/sal_freertos_impl.o
 .debug_loc     0x000000000000ff64       0x63 /home/vboxuser/topst/buildtools/gcc-linaro-7.2.1-2017.11-x86_64_arm-eabi/arm-eabi/libc/usr/lib/libc.a(lib_a-atoi.o)
 .debug_loc     0x000000000000ffc7       0x63 /home/vboxuser/topst/buildtools/gcc-linaro-7.2.1-2017.11-x86_64_arm-eabi/arm-eabi/libc/usr/lib/libc.a(lib_a-atol.o)
 .debug_loc     0x000000000001002a      0x2b6 /home/vboxuser/topst/buildtools/gcc-linaro-7.2.1-2017.11-x86_64_arm-eabi/arm-eabi/libc/usr/lib/libc.a(lib_a-memcmp.o)
 .debug_loc     0x00000000000102e0      0x1be /home/vboxuser/topst/buildtools/gcc-linaro-7.2.1-2017.11-x86_64_arm-eabi/arm-eabi/libc/usr/lib/libc.a(lib_a-memcpy-stub.o)
 .debug_loc     0x000000000001049e      0x200 /home/vboxuser/topst/buildtools/gcc-linaro-7.2.1-2017.11-x86_64_arm-eabi/arm-eabi/libc/usr/lib/libc.a(lib_a-memset.o)
 .debug_loc     0x000000000001069e      0x199 /home/vboxuser/topst/buildtools/gcc-linaro-7.2.1-2017.11-x86_64_arm-eabi/arm-eabi/libc/usr/lib/libc.a(lib_a-snprintf.o)
 .debug_loc     0x0000000000010837       0x21 /home/vboxuser/topst/buildtools/gcc-linaro-7.2.1-2017.11-x86_64_arm-eabi/arm-eabi/libc/usr/lib/libc.a(lib_a-strlen-stub.o)
 .debug_loc     0x0000000000010858      0x150 /home/vboxuser/topst/buildtools/gcc-linaro-7.2.1-2017.11-x86_64_arm-eabi/arm-eabi/libc/usr/lib/libc.a(lib_a-strncmp.o)
 .debug_loc     0x00000000000109a8      0x128 /home/vboxuser/topst/buildtools/gcc-linaro-7.2.1-2017.11-x86_64_arm-eabi/arm-eabi/libc/usr/lib/libc.a(lib_a-strncpy.o)
 .debug_loc     0x0000000000010ad0      0x14f /home/vboxuser/topst/buildtools/gcc-linaro-7.2.1-2017.11-x86_64_arm-eabi/arm-eabi/libc/usr/lib/libc.a(lib_a-strnlen.o)
 .debug_loc     0x0000000000010c1f      0x49e /home/vboxuser/topst/buildtools/gcc-linaro-7.2.1-2017.11-x86_64_arm-eabi/arm-eabi/libc/usr/lib/libc.a(lib_a-strtol.o)
 .debug_loc     0x00000000000110bd      0x496 /home/vboxuser/topst/buildtools/gcc-linaro-7.2.1-2017.11-x86_64_arm-eabi/arm-eabi/libc/usr/lib/libc.a(lib_a-strtoul.o)
 .debug_loc     0x0000000000011553     0x8c37 /home/vboxuser/topst/buildtools/gcc-linaro-7.2.1-2017.11-x86_64_arm-eabi/arm-eabi/libc/usr/lib/libc.a(lib_a-svfprintf.o)
 .debug_loc     0x000000000001a18a      0x250 /home/vboxuser/topst/buildtools/gcc-linaro-7.2.1-2017.11-x86_64_arm-eabi/arm-eabi/libc/usr/lib/libc.a(lib_a-wcrtomb.o)
 .debug_loc     0x000000000001a3da      0x142 /home/vboxuser/topst/buildtools/gcc-linaro-7.2.1-2017.11-x86_64_arm-eabi/arm-eabi/libc/usr/lib/libc.a(lib_a-wcsrtombs.o)
 .debug_loc     0x000000000001a51c     0x26a5 /home/vboxuser/topst/buildtools/gcc-linaro-7.2.1-2017.11-x86_64_arm-eabi/arm-eabi/libc/usr/lib/libc.a(lib_a-dtoa.o)
 .debug_loc     0x000000000001cbc1      0x4b2 /home/vboxuser/topst/buildtools/gcc-linaro-7.2.1-2017.11-x86_64_arm-eabi/arm-eabi/libc/usr/lib/libc.a(lib_a-freer.o)
 .debug_loc     0x000000000001d073      0x9e8 /home/vboxuser/topst/buildtools/gcc-linaro-7.2.1-2017.11-x86_64_arm-eabi/arm-eabi/libc/usr/lib/libc.a(lib_a-locale.o)
 .debug_loc     0x000000000001da5b       0x63 /home/vboxuser/topst/buildtools/gcc-linaro-7.2.1-2017.11-x86_64_arm-eabi/arm-eabi/libc/usr/lib/libc.a(lib_a-localeconv.o)
 .debug_loc     0x000000000001dabe      0xb21 /home/vboxuser/topst/buildtools/gcc-linaro-7.2.1-2017.11-x86_64_arm-eabi/arm-eabi/libc/usr/lib/libc.a(lib_a-mallocr.o)
 .debug_loc     0x000000000001e5df      0xc4f /home/vboxuser/topst/buildtools/gcc-linaro-7.2.1-2017.11-x86_64_arm-eabi/arm-eabi/libc/usr/lib/libc.a(lib_a-mbtowc_r.o)
 .debug_loc     0x000000000001f22e      0x1cd /home/vboxuser/topst/buildtools/gcc-linaro-7.2.1-2017.11-x86_64_arm-eabi/arm-eabi/libc/usr/lib/libc.a(lib_a-memchr-stub.o)
 .debug_loc     0x000000000001f3fb     0x2457 /home/vboxuser/topst/buildtools/gcc-linaro-7.2.1-2017.11-x86_64_arm-eabi/arm-eabi/libc/usr/lib/libc.a(lib_a-mprec.o)
 .debug_loc     0x0000000000021852       0xe4 /home/vboxuser/topst/buildtools/gcc-linaro-7.2.1-2017.11-x86_64_arm-eabi/arm-eabi/libc/usr/lib/libc.a(lib_a-s_frexp.o)
 .debug_loc     0x0000000000021936       0x4d /home/vboxuser/topst/buildtools/gcc-linaro-7.2.1-2017.11-x86_64_arm-eabi/arm-eabi/libc/usr/lib/libc.a(lib_a-sbrkr.o)
 .debug_loc     0x0000000000021983      0x130 /home/vboxuser/topst/buildtools/gcc-linaro-7.2.1-2017.11-x86_64_arm-eabi/arm-eabi/libc/usr/lib/libc.a(lib_a-strcasecmp.o)
 .debug_loc     0x0000000000021ab3       0xa0 /home/vboxuser/topst/buildtools/gcc-linaro-7.2.1-2017.11-x86_64_arm-eabi/arm-eabi/libc/usr/lib/libc.a(lib_a-strcat.o)
 .debug_loc     0x0000000000021b53      0x21f /home/vboxuser/topst/buildtools/gcc-linaro-7.2.1-2017.11-x86_64_arm-eabi/arm-eabi/libc/usr/lib/libc.a(lib_a-strchr.o)
 .debug_loc     0x0000000000021d72       0x21 /home/vboxuser/topst/buildtools/gcc-linaro-7.2.1-2017.11-x86_64_arm-eabi/arm-eabi/libc/usr/lib/libc.a(lib_a-strcpy.o)
 .debug_loc     0x0000000000021d93      0x10b /home/vboxuser/topst/buildtools/gcc-linaro-7.2.1-2017.11-x86_64_arm-eabi/arm-eabi/libc/usr/lib/libc.a(lib_a-strlcpy.o)
 .debug_loc     0x0000000000021e9e      0x196 /home/vboxuser/topst/buildtools/gcc-linaro-7.2.1-2017.11-x86_64_arm-eabi/arm-eabi/libc/usr/lib/libc.a(lib_a-strncasecmp.o)
 .debug_loc     0x0000000000022034     0x751b /home/vboxuser/topst/buildtools/gcc-linaro-7.2.1-2017.11-x86_64_arm-eabi/arm-eabi/libc/usr/lib/libc.a(lib_a-svfiprintf.o)
 .debug_loc     0x000000000002954f     0x125f /home/vboxuser/topst/buildtools/gcc-linaro-7.2.1-2017.11-x86_64_arm-eabi/arm-eabi/libc/usr/lib/libc.a(lib_a-syscalls.o)
 .debug_loc     0x000000000002a7ae      0x5d8 /home/vboxuser/topst/buildtools/gcc-linaro-7.2.1-2017.11-x86_64_arm-eabi/arm-eabi/libc/usr/lib/libc.a(lib_a-wcsnrtombs.o)
 .debug_loc     0x000000000002ad86      0x86a /home/vboxuser/topst/buildtools/gcc-linaro-7.2.1-2017.11-x86_64_arm-eabi/arm-eabi/libc/usr/lib/libc.a(lib_a-wctomb_r.o)
 .debug_loc     0x000000000002b5f0      0x201 /home/vboxuser/topst/buildtools/gcc-linaro-7.2.1-2017.11-x86_64_arm-eabi/arm-eabi/libc/usr/lib/libc.a(lib_a-callocr.o)
 .debug_loc     0x000000000002b7f1      0x331 /home/vboxuser/topst/buildtools/gcc-linaro-7.2.1-2017.11-x86_64_arm-eabi/arm-eabi/libc/usr/lib/libc.a(lib_a-findfp.o)
 .debug_loc     0x000000000002bb22      0x1c1 /home/vboxuser/topst/buildtools/gcc-linaro-7.2.1-2017.11-x86_64_arm-eabi/arm-eabi/libc/usr/lib/libc.a(lib_a-fwalk.o)
 .debug_loc     0x000000000002bce3      0x1a6 /home/vboxuser/topst/buildtools/gcc-linaro-7.2.1-2017.11-x86_64_arm-eabi/arm-eabi/libc/usr/lib/libc.a(lib_a-getenv_r.o)
 .debug_loc     0x000000000002be89      0x223 /home/vboxuser/topst/buildtools/gcc-linaro-7.2.1-2017.11-x86_64_arm-eabi/arm-eabi/libc/usr/lib/libc.a(lib_a-memmove.o)
 .debug_loc     0x000000000002c0ac      0xbe9 /home/vboxuser/topst/buildtools/gcc-linaro-7.2.1-2017.11-x86_64_arm-eabi/arm-eabi/libc/usr/lib/libc.a(lib_a-reallocr.o)
 .debug_loc     0x000000000002cc95      0x136 /home/vboxuser/topst/buildtools/gcc-linaro-7.2.1-2017.11-x86_64_arm-eabi/arm-eabi/libc/usr/lib/libc.a(lib_a-reent.o)
 .debug_loc     0x000000000002cdcb      0x2d6 /home/vboxuser/topst/buildtools/gcc-linaro-7.2.1-2017.11-x86_64_arm-eabi/arm-eabi/libc/usr/lib/libc.a(lib_a-stdio.o)
 .debug_loc     0x000000000002d0a1       0xa5 /home/vboxuser/topst/buildtools/gcc-linaro-7.2.1-2017.11-x86_64_arm-eabi/arm-eabi/libc/usr/lib/libc.a(lib_a-writer.o)
 .debug_loc     0x000000000002d146       0x4d /home/vboxuser/topst/buildtools/gcc-linaro-7.2.1-2017.11-x86_64_arm-eabi/arm-eabi/libc/usr/lib/libc.a(lib_a-closer.o)
 .debug_loc     0x000000000002d193      0x17e /home/vboxuser/topst/buildtools/gcc-linaro-7.2.1-2017.11-x86_64_arm-eabi/arm-eabi/libc/usr/lib/libc.a(lib_a-fclose.o)
 .debug_loc     0x000000000002d311      0x342 /home/vboxuser/topst/buildtools/gcc-linaro-7.2.1-2017.11-x86_64_arm-eabi/arm-eabi/libc/usr/lib/libc.a(lib_a-fflush.o)
 .debug_loc     0x000000000002d653       0xa5 /home/vboxuser/topst/buildtools/gcc-linaro-7.2.1-2017.11-x86_64_arm-eabi/arm-eabi/libc/usr/lib/libc.a(lib_a-lseekr.o)
 .debug_loc     0x000000000002d6f8       0xa5 /home/vboxuser/topst/buildtools/gcc-linaro-7.2.1-2017.11-x86_64_arm-eabi/arm-eabi/libc/usr/lib/libc.a(lib_a-readr.o)
 .debug_loc     0x000000000002d79d      0x1ab /home/vboxuser/topst/buildtools/gcc-linaro-7.2.1-2017.11-x86_64_arm-eabi/arm-eabi/libc/usr/lib/libgcc.a(_udivmoddi4.o)

.debug_aranges  0x0000000000000000     0x1378
 .debug_aranges
                0x0000000000000000       0x20 /home/vboxuser/topst/cr5-bsp/sources/build/tcc805x/gcc/tcc805x-freertos-debug/obj/main.o
 .debug_aranges
                0x0000000000000020       0x20 /home/vboxuser/topst/cr5-bsp/sources/build/tcc805x/gcc/tcc805x-freertos-debug/obj/can_demo.o
 .debug_aranges
                0x0000000000000040       0x20 /home/vboxuser/topst/cr5-bsp/sources/build/tcc805x/gcc/tcc805x-freertos-debug/obj/console.o
 .debug_aranges
                0x0000000000000060       0x20 /home/vboxuser/topst/cr5-bsp/sources/build/tcc805x/gcc/tcc805x-freertos-debug/obj/fwug.o
 .debug_aranges
                0x0000000000000080       0x20 /home/vboxuser/topst/cr5-bsp/sources/build/tcc805x/gcc/tcc805x-freertos-debug/obj/key_adc.o
 .debug_aranges
                0x00000000000000a0       0x20 /home/vboxuser/topst/cr5-bsp/sources/build/tcc805x/gcc/tcc805x-freertos-debug/obj/key_gpio.o
 .debug_aranges
                0x00000000000000c0       0x20 /home/vboxuser/topst/cr5-bsp/sources/build/tcc805x/gcc/tcc805x-freertos-debug/obj/key_i2c.o
 .debug_aranges
                0x00000000000000e0       0x20 /home/vboxuser/topst/cr5-bsp/sources/build/tcc805x/gcc/tcc805x-freertos-debug/obj/system_monitoring.o
 .debug_aranges
                0x0000000000000100       0x20 /home/vboxuser/topst/cr5-bsp/sources/build/tcc805x/gcc/tcc805x-freertos-debug/obj/bootctrl.o
 .debug_aranges
                0x0000000000000120       0x20 /home/vboxuser/topst/cr5-bsp/sources/build/tcc805x/gcc/tcc805x-freertos-debug/obj/reset_demo.o
 .debug_aranges
                0x0000000000000140       0x20 /home/vboxuser/topst/cr5-bsp/sources/build/tcc805x/gcc/tcc805x-freertos-debug/obj/adc_test.o
 .debug_aranges
                0x0000000000000160       0x20 /home/vboxuser/topst/cr5-bsp/sources/build/tcc805x/gcc/tcc805x-freertos-debug/obj/dse_test.o
 .debug_aranges
                0x0000000000000180       0x20 /home/vboxuser/topst/cr5-bsp/sources/build/tcc805x/gcc/tcc805x-freertos-debug/obj/fmu_test.o
 .debug_aranges
                0x00000000000001a0       0x20 /home/vboxuser/topst/cr5-bsp/sources/build/tcc805x/gcc/tcc805x-freertos-debug/obj/gdma_test.o
 .debug_aranges
                0x00000000000001c0       0x20 /home/vboxuser/topst/cr5-bsp/sources/build/tcc805x/gcc/tcc805x-freertos-debug/obj/gic_test.o
 .debug_aranges
                0x00000000000001e0       0x20 /home/vboxuser/topst/cr5-bsp/sources/build/tcc805x/gcc/tcc805x-freertos-debug/obj/gpio_test.o
 .debug_aranges
                0x0000000000000200       0x20 /home/vboxuser/topst/cr5-bsp/sources/build/tcc805x/gcc/tcc805x-freertos-debug/obj/gpsb_test.o
 .debug_aranges
                0x0000000000000220       0x20 /home/vboxuser/topst/cr5-bsp/sources/build/tcc805x/gcc/tcc805x-freertos-debug/obj/hsm_test.o
 .debug_aranges
                0x0000000000000240       0x20 /home/vboxuser/topst/cr5-bsp/sources/build/tcc805x/gcc/tcc805x-freertos-debug/obj/i2c_test.o
 .debug_aranges
                0x0000000000000260       0x20 /home/vboxuser/topst/cr5-bsp/sources/build/tcc805x/gcc/tcc805x-freertos-debug/obj/ictc_test.o
 .debug_aranges
                0x0000000000000280       0x20 /home/vboxuser/topst/cr5-bsp/sources/build/tcc805x/gcc/tcc805x-freertos-debug/obj/lin_test.o
 .debug_aranges
                0x00000000000002a0       0x20 /home/vboxuser/topst/cr5-bsp/sources/build/tcc805x/gcc/tcc805x-freertos-debug/obj/pdm_test.o
 .debug_aranges
                0x00000000000002c0       0x20 /home/vboxuser/topst/cr5-bsp/sources/build/tcc805x/gcc/tcc805x-freertos-debug/obj/pmio_test.o
 .debug_aranges
                0x00000000000002e0       0x20 /home/vboxuser/topst/cr5-bsp/sources/build/tcc805x/gcc/tcc805x-freertos-debug/obj/timer_test.o
 .debug_aranges
                0x0000000000000300       0x20 /home/vboxuser/topst/cr5-bsp/sources/build/tcc805x/gcc/tcc805x-freertos-debug/obj/wdt_test.o
 .debug_aranges
                0x0000000000000320       0x20 /home/vboxuser/topst/cr5-bsp/sources/build/tcc805x/gcc/tcc805x-freertos-debug/obj/pwm_test.o
 .debug_aranges
                0x0000000000000340       0x20 /home/vboxuser/topst/cr5-bsp/sources/build/tcc805x/gcc/tcc805x-freertos-debug/obj/hap.o
 .debug_aranges
                0x0000000000000360       0x20 /home/vboxuser/topst/cr5-bsp/sources/build/tcc805x/gcc/tcc805x-freertos-debug/obj/mptool.o
 .debug_aranges
                0x0000000000000380       0x20 /home/vboxuser/topst/cr5-bsp/sources/build/tcc805x/gcc/tcc805x-freertos-debug/obj/ipc_os.o
 .debug_aranges
                0x00000000000003a0       0x20 /home/vboxuser/topst/cr5-bsp/sources/build/tcc805x/gcc/tcc805x-freertos-debug/obj/ipc_buffer.o
 .debug_aranges
                0x00000000000003c0       0x20 /home/vboxuser/topst/cr5-bsp/sources/build/tcc805x/gcc/tcc805x-freertos-debug/obj/ipc_cmd.o
 .debug_aranges
                0x00000000000003e0       0x20 /home/vboxuser/topst/cr5-bsp/sources/build/tcc805x/gcc/tcc805x-freertos-debug/obj/ipc_ctl.o
 .debug_aranges
                0x0000000000000400       0x20 /home/vboxuser/topst/cr5-bsp/sources/build/tcc805x/gcc/tcc805x-freertos-debug/obj/ipc_parser.o
 .debug_aranges
                0x0000000000000420       0x20 /home/vboxuser/topst/cr5-bsp/sources/build/tcc805x/gcc/tcc805x-freertos-debug/obj/ipc_api.o
 .debug_aranges
                0x0000000000000440       0x20 /home/vboxuser/topst/cr5-bsp/sources/build/tcc805x/gcc/tcc805x-freertos-debug/obj/ipc.o
 .debug_aranges
                0x0000000000000460       0x20 /home/vboxuser/topst/cr5-bsp/sources/build/tcc805x/gcc/tcc805x-freertos-debug/obj/lin.o
 .debug_aranges
                0x0000000000000480       0x20 /home/vboxuser/topst/cr5-bsp/sources/build/tcc805x/gcc/tcc805x-freertos-debug/obj/sdm.o
 .debug_aranges
                0x00000000000004a0       0x20 /home/vboxuser/topst/cr5-bsp/sources/build/tcc805x/gcc/tcc805x-freertos-debug/obj/hsm_manager.o
 .debug_aranges
                0x00000000000004c0       0x20 /home/vboxuser/topst/cr5-bsp/sources/build/tcc805x/gcc/tcc805x-freertos-debug/obj/adc.o
 .debug_aranges
                0x00000000000004e0       0x20 /home/vboxuser/topst/cr5-bsp/sources/build/tcc805x/gcc/tcc805x-freertos-debug/obj/can.o
 .debug_aranges
                0x0000000000000500       0x20 /home/vboxuser/topst/cr5-bsp/sources/build/tcc805x/gcc/tcc805x-freertos-debug/obj/can_drv.o
 .debug_aranges
                0x0000000000000520       0x20 /home/vboxuser/topst/cr5-bsp/sources/build/tcc805x/gcc/tcc805x-freertos-debug/obj/can_msg.o
 .debug_aranges
                0x0000000000000540       0x18 /home/vboxuser/topst/cr5-bsp/sources/build/tcc805x/gcc/tcc805x-freertos-debug/obj/can_par.o
 .debug_aranges
                0x0000000000000558       0x20 /home/vboxuser/topst/cr5-bsp/sources/build/tcc805x/gcc/tcc805x-freertos-debug/obj/can_porting.o
 .debug_aranges
                0x0000000000000578       0x20 /home/vboxuser/topst/cr5-bsp/sources/build/tcc805x/gcc/tcc805x-freertos-debug/obj/clock_dev.o
 .debug_aranges
                0x0000000000000598       0x20 /home/vboxuser/topst/cr5-bsp/sources/build/tcc805x/gcc/tcc805x-freertos-debug/obj/debug.o
 .debug_aranges
                0x00000000000005b8       0x20 /home/vboxuser/topst/cr5-bsp/sources/build/tcc805x/gcc/tcc805x-freertos-debug/obj/bsp.o
 .debug_aranges
                0x00000000000005d8       0x20 /home/vboxuser/topst/cr5-bsp/sources/build/tcc805x/gcc/tcc805x-freertos-debug/obj/fmu.o
 .debug_aranges
                0x00000000000005f8       0x20 /home/vboxuser/topst/cr5-bsp/sources/build/tcc805x/gcc/tcc805x-freertos-debug/obj/gdma.o
 .debug_aranges
                0x0000000000000618       0x20 /home/vboxuser/topst/cr5-bsp/sources/build/tcc805x/gcc/tcc805x-freertos-debug/obj/gic.o
 .debug_aranges
                0x0000000000000638       0x20 /home/vboxuser/topst/cr5-bsp/sources/build/tcc805x/gcc/tcc805x-freertos-debug/obj/gpio.o
 .debug_aranges
                0x0000000000000658       0x20 /home/vboxuser/topst/cr5-bsp/sources/build/tcc805x/gcc/tcc805x-freertos-debug/obj/i2c.o
 .debug_aranges
                0x0000000000000678       0x18 /home/vboxuser/topst/cr5-bsp/sources/build/tcc805x/gcc/tcc805x-freertos-debug/obj/i2c_reg.o
 .debug_aranges
                0x0000000000000690       0x20 /home/vboxuser/topst/cr5-bsp/sources/build/tcc805x/gcc/tcc805x-freertos-debug/obj/ictc.o
 .debug_aranges
                0x00000000000006b0       0x20 /home/vboxuser/topst/cr5-bsp/sources/build/tcc805x/gcc/tcc805x-freertos-debug/obj/mbox_phy.o
 .debug_aranges
                0x00000000000006d0       0x20 /home/vboxuser/topst/cr5-bsp/sources/build/tcc805x/gcc/tcc805x-freertos-debug/obj/mbox_dev.o
 .debug_aranges
                0x00000000000006f0       0x20 /home/vboxuser/topst/cr5-bsp/sources/build/tcc805x/gcc/tcc805x-freertos-debug/obj/mbox.o
 .debug_aranges
                0x0000000000000710       0x20 /home/vboxuser/topst/cr5-bsp/sources/build/tcc805x/gcc/tcc805x-freertos-debug/obj/mpu.o
 .debug_aranges
                0x0000000000000730       0x20 /home/vboxuser/topst/cr5-bsp/sources/build/tcc805x/gcc/tcc805x-freertos-debug/obj/pdm.o
 .debug_aranges
                0x0000000000000750       0x20 /home/vboxuser/topst/cr5-bsp/sources/build/tcc805x/gcc/tcc805x-freertos-debug/obj/pmio_dev.o
 .debug_aranges
                0x0000000000000770       0x20 /home/vboxuser/topst/cr5-bsp/sources/build/tcc805x/gcc/tcc805x-freertos-debug/obj/gpsb.o
 .debug_aranges
                0x0000000000000790       0x18 /home/vboxuser/topst/cr5-bsp/sources/build/tcc805x/gcc/tcc805x-freertos-debug/obj/gpsb_reg.o
 .debug_aranges
                0x00000000000007a8       0x20 /home/vboxuser/topst/cr5-bsp/sources/build/tcc805x/gcc/tcc805x-freertos-debug/obj/timer.o
 .debug_aranges
                0x00000000000007c8       0x20 /home/vboxuser/topst/cr5-bsp/sources/build/tcc805x/gcc/tcc805x-freertos-debug/obj/uart.o
 .debug_aranges
                0x00000000000007e8       0x20 /home/vboxuser/topst/cr5-bsp/sources/build/tcc805x/gcc/tcc805x-freertos-debug/obj/udma.o
 .debug_aranges
                0x0000000000000808       0x20 /home/vboxuser/topst/cr5-bsp/sources/build/tcc805x/gcc/tcc805x-freertos-debug/obj/wdt.o
 .debug_aranges
                0x0000000000000828       0x20 /home/vboxuser/topst/cr5-bsp/sources/build/tcc805x/gcc/tcc805x-freertos-debug/obj/dse.o
 .debug_aranges
                0x0000000000000848       0x20 /home/vboxuser/topst/cr5-bsp/sources/build/tcc805x/gcc/tcc805x-freertos-debug/obj/midf.o
 .debug_aranges
                0x0000000000000868       0x20 /home/vboxuser/topst/cr5-bsp/sources/build/tcc805x/gcc/tcc805x-freertos-debug/obj/pmu_reset.o
 .debug_aranges
                0x0000000000000888       0x20 /home/vboxuser/topst/cr5-bsp/sources/build/tcc805x/gcc/tcc805x-freertos-debug/obj/tasks.o
 .debug_aranges
                0x00000000000008a8       0x20 /home/vboxuser/topst/cr5-bsp/sources/build/tcc805x/gcc/tcc805x-freertos-debug/obj/list.o
 .debug_aranges
                0x00000000000008c8       0x20 /home/vboxuser/topst/cr5-bsp/sources/build/tcc805x/gcc/tcc805x-freertos-debug/obj/queue.o
 .debug_aranges
                0x00000000000008e8       0x20 /home/vboxuser/topst/cr5-bsp/sources/build/tcc805x/gcc/tcc805x-freertos-debug/obj/event_groups.o
 .debug_aranges
                0x0000000000000908       0x20 /home/vboxuser/topst/cr5-bsp/sources/build/tcc805x/gcc/tcc805x-freertos-debug/obj/timers.o
 .debug_aranges
                0x0000000000000928       0x20 /home/vboxuser/topst/cr5-bsp/sources/build/tcc805x/gcc/tcc805x-freertos-debug/obj/stream_buffer.o
 .debug_aranges
                0x0000000000000948       0x20 /home/vboxuser/topst/cr5-bsp/sources/build/tcc805x/gcc/tcc805x-freertos-debug/obj/port.o
 .debug_aranges
                0x0000000000000968       0x20 /home/vboxuser/topst/cr5-bsp/sources/build/tcc805x/gcc/tcc805x-freertos-debug/obj/heap_5.o
 .debug_aranges
                0x0000000000000988       0x20 /home/vboxuser/topst/cr5-bsp/sources/build/tcc805x/gcc/tcc805x-freertos-debug/obj/sal_api.o
 .debug_aranges
                0x00000000000009a8       0x20 /home/vboxuser/topst/cr5-bsp/sources/build/tcc805x/gcc/tcc805x-freertos-debug/obj/sal_freertos_impl.o
 .debug_aranges
                0x00000000000009c8       0x20 /home/vboxuser/topst/cr5-bsp/sources/build/tcc805x/gcc/tcc805x-freertos-debug/obj/startup.o
 .debug_aranges
                0x00000000000009e8       0x20 /home/vboxuser/topst/cr5-bsp/sources/build/tcc805x/gcc/tcc805x-freertos-debug/obj/vector.o
 .debug_aranges
                0x0000000000000a08       0x20 /home/vboxuser/topst/cr5-bsp/sources/build/tcc805x/gcc/tcc805x-freertos-debug/obj/vfp_init.o
 .debug_aranges
                0x0000000000000a28       0x20 /home/vboxuser/topst/cr5-bsp/sources/build/tcc805x/gcc/tcc805x-freertos-debug/obj/arm_a.o
 .debug_aranges
                0x0000000000000a48       0x20 /home/vboxuser/topst/cr5-bsp/sources/build/tcc805x/gcc/tcc805x-freertos-debug/obj/portASM.o
 .debug_aranges
                0x0000000000000a68       0x20 /home/vboxuser/topst/cr5-bsp/sources/build/tcc805x/gcc/tcc805x-freertos-debug/obj/freertos.o
 .debug_aranges
                0x0000000000000a88       0x20 /home/vboxuser/topst/cr5-bsp/sources/build/tcc805x/gcc/tcc805x-freertos-debug/obj/sal.o
 .debug_aranges
                0x0000000000000aa8       0x20 /home/vboxuser/topst/buildtools/gcc-linaro-7.2.1-2017.11-x86_64_arm-eabi/arm-eabi/libc/usr/lib/libc.a(lib_a-atoi.o)
 .debug_aranges
                0x0000000000000ac8       0x20 /home/vboxuser/topst/buildtools/gcc-linaro-7.2.1-2017.11-x86_64_arm-eabi/arm-eabi/libc/usr/lib/libc.a(lib_a-atol.o)
 .debug_aranges
                0x0000000000000ae8       0x20 /home/vboxuser/topst/buildtools/gcc-linaro-7.2.1-2017.11-x86_64_arm-eabi/arm-eabi/libc/usr/lib/libc.a(lib_a-memcmp.o)
 .debug_aranges
                0x0000000000000b08       0x20 /home/vboxuser/topst/buildtools/gcc-linaro-7.2.1-2017.11-x86_64_arm-eabi/arm-eabi/libc/usr/lib/libc.a(lib_a-memcpy-stub.o)
 .debug_aranges
                0x0000000000000b28       0x20 /home/vboxuser/topst/buildtools/gcc-linaro-7.2.1-2017.11-x86_64_arm-eabi/arm-eabi/libc/usr/lib/libc.a(lib_a-memset.o)
 .debug_aranges
                0x0000000000000b48       0x20 /home/vboxuser/topst/buildtools/gcc-linaro-7.2.1-2017.11-x86_64_arm-eabi/arm-eabi/libc/usr/lib/libc.a(lib_a-snprintf.o)
 .debug_aranges
                0x0000000000000b68       0x20 /home/vboxuser/topst/buildtools/gcc-linaro-7.2.1-2017.11-x86_64_arm-eabi/arm-eabi/libc/usr/lib/libc.a(lib_a-strlen-stub.o)
 .debug_aranges
                0x0000000000000b88       0x20 /home/vboxuser/topst/buildtools/gcc-linaro-7.2.1-2017.11-x86_64_arm-eabi/arm-eabi/libc/usr/lib/libc.a(lib_a-strncmp.o)
 .debug_aranges
                0x0000000000000ba8       0x20 /home/vboxuser/topst/buildtools/gcc-linaro-7.2.1-2017.11-x86_64_arm-eabi/arm-eabi/libc/usr/lib/libc.a(lib_a-strncpy.o)
 .debug_aranges
                0x0000000000000bc8       0x20 /home/vboxuser/topst/buildtools/gcc-linaro-7.2.1-2017.11-x86_64_arm-eabi/arm-eabi/libc/usr/lib/libc.a(lib_a-strnlen.o)
 .debug_aranges
                0x0000000000000be8       0x20 /home/vboxuser/topst/buildtools/gcc-linaro-7.2.1-2017.11-x86_64_arm-eabi/arm-eabi/libc/usr/lib/libc.a(lib_a-strtol.o)
 .debug_aranges
                0x0000000000000c08       0x20 /home/vboxuser/topst/buildtools/gcc-linaro-7.2.1-2017.11-x86_64_arm-eabi/arm-eabi/libc/usr/lib/libc.a(lib_a-strtoul.o)
 .debug_aranges
                0x0000000000000c28       0x20 /home/vboxuser/topst/buildtools/gcc-linaro-7.2.1-2017.11-x86_64_arm-eabi/arm-eabi/libc/usr/lib/libc.a(lib_a-svfprintf.o)
 .debug_aranges
                0x0000000000000c48       0x20 /home/vboxuser/topst/buildtools/gcc-linaro-7.2.1-2017.11-x86_64_arm-eabi/arm-eabi/libc/usr/lib/libc.a(lib_a-wcrtomb.o)
 .debug_aranges
                0x0000000000000c68       0x20 /home/vboxuser/topst/buildtools/gcc-linaro-7.2.1-2017.11-x86_64_arm-eabi/arm-eabi/libc/usr/lib/libc.a(lib_a-wcsrtombs.o)
 .debug_aranges
                0x0000000000000c88       0x20 /home/vboxuser/topst/buildtools/gcc-linaro-7.2.1-2017.11-x86_64_arm-eabi/arm-eabi/libc/usr/lib/libc.a(lib_a-dtoa.o)
 .debug_aranges
                0x0000000000000ca8       0x20 /home/vboxuser/topst/buildtools/gcc-linaro-7.2.1-2017.11-x86_64_arm-eabi/arm-eabi/libc/usr/lib/libc.a(lib_a-freer.o)
 .debug_aranges
                0x0000000000000cc8       0x18 /home/vboxuser/topst/buildtools/gcc-linaro-7.2.1-2017.11-x86_64_arm-eabi/arm-eabi/libc/usr/lib/libc.a(lib_a-impure.o)
 .debug_aranges
                0x0000000000000ce0       0x20 /home/vboxuser/topst/buildtools/gcc-linaro-7.2.1-2017.11-x86_64_arm-eabi/arm-eabi/libc/usr/lib/libc.a(lib_a-locale.o)
 .debug_aranges
                0x0000000000000d00       0x20 /home/vboxuser/topst/buildtools/gcc-linaro-7.2.1-2017.11-x86_64_arm-eabi/arm-eabi/libc/usr/lib/libc.a(lib_a-localeconv.o)
 .debug_aranges
                0x0000000000000d20       0x20 /home/vboxuser/topst/buildtools/gcc-linaro-7.2.1-2017.11-x86_64_arm-eabi/arm-eabi/libc/usr/lib/libc.a(lib_a-mallocr.o)
 .debug_aranges
                0x0000000000000d40       0x20 /home/vboxuser/topst/buildtools/gcc-linaro-7.2.1-2017.11-x86_64_arm-eabi/arm-eabi/libc/usr/lib/libc.a(lib_a-mbtowc_r.o)
 .debug_aranges
                0x0000000000000d60       0x20 /home/vboxuser/topst/buildtools/gcc-linaro-7.2.1-2017.11-x86_64_arm-eabi/arm-eabi/libc/usr/lib/libc.a(lib_a-memchr-stub.o)
 .debug_aranges
                0x0000000000000d80       0x20 /home/vboxuser/topst/buildtools/gcc-linaro-7.2.1-2017.11-x86_64_arm-eabi/arm-eabi/libc/usr/lib/libc.a(lib_a-mlock.o)
 .debug_aranges
                0x0000000000000da0       0x20 /home/vboxuser/topst/buildtools/gcc-linaro-7.2.1-2017.11-x86_64_arm-eabi/arm-eabi/libc/usr/lib/libc.a(lib_a-mprec.o)
 .debug_aranges
                0x0000000000000dc0       0x20 /home/vboxuser/topst/buildtools/gcc-linaro-7.2.1-2017.11-x86_64_arm-eabi/arm-eabi/libc/usr/lib/libc.a(lib_a-s_frexp.o)
 .debug_aranges
                0x0000000000000de0       0x20 /home/vboxuser/topst/buildtools/gcc-linaro-7.2.1-2017.11-x86_64_arm-eabi/arm-eabi/libc/usr/lib/libc.a(lib_a-sbrkr.o)
 .debug_aranges
                0x0000000000000e00       0x20 /home/vboxuser/topst/buildtools/gcc-linaro-7.2.1-2017.11-x86_64_arm-eabi/arm-eabi/libc/usr/lib/libc.a(lib_a-strcasecmp.o)
 .debug_aranges
                0x0000000000000e20       0x20 /home/vboxuser/topst/buildtools/gcc-linaro-7.2.1-2017.11-x86_64_arm-eabi/arm-eabi/libc/usr/lib/libc.a(lib_a-strcat.o)
 .debug_aranges
                0x0000000000000e40       0x20 /home/vboxuser/topst/buildtools/gcc-linaro-7.2.1-2017.11-x86_64_arm-eabi/arm-eabi/libc/usr/lib/libc.a(lib_a-strchr.o)
 .debug_aranges
                0x0000000000000e60       0x20 /home/vboxuser/topst/buildtools/gcc-linaro-7.2.1-2017.11-x86_64_arm-eabi/arm-eabi/libc/usr/lib/libc.a(lib_a-strcmp.o)
 .debug_aranges
                0x0000000000000e80       0x20 /home/vboxuser/topst/buildtools/gcc-linaro-7.2.1-2017.11-x86_64_arm-eabi/arm-eabi/libc/usr/lib/libc.a(lib_a-strcpy.o)
 .debug_aranges
                0x0000000000000ea0       0x20 /home/vboxuser/topst/buildtools/gcc-linaro-7.2.1-2017.11-x86_64_arm-eabi/arm-eabi/libc/usr/lib/libc.a(lib_a-strlcpy.o)
 .debug_aranges
                0x0000000000000ec0       0x20 /home/vboxuser/topst/buildtools/gcc-linaro-7.2.1-2017.11-x86_64_arm-eabi/arm-eabi/libc/usr/lib/libc.a(lib_a-strncasecmp.o)
 .debug_aranges
                0x0000000000000ee0       0x20 /home/vboxuser/topst/buildtools/gcc-linaro-7.2.1-2017.11-x86_64_arm-eabi/arm-eabi/libc/usr/lib/libc.a(lib_a-svfiprintf.o)
 .debug_aranges
                0x0000000000000f00       0x20 /home/vboxuser/topst/buildtools/gcc-linaro-7.2.1-2017.11-x86_64_arm-eabi/arm-eabi/libc/usr/lib/libc.a(lib_a-syscalls.o)
 .debug_aranges
                0x0000000000000f20       0x20 /home/vboxuser/topst/buildtools/gcc-linaro-7.2.1-2017.11-x86_64_arm-eabi/arm-eabi/libc/usr/lib/libc.a(lib_a-wcsnrtombs.o)
 .debug_aranges
                0x0000000000000f40       0x20 /home/vboxuser/topst/buildtools/gcc-linaro-7.2.1-2017.11-x86_64_arm-eabi/arm-eabi/libc/usr/lib/libc.a(lib_a-wctomb_r.o)
 .debug_aranges
                0x0000000000000f60       0x20 /home/vboxuser/topst/buildtools/gcc-linaro-7.2.1-2017.11-x86_64_arm-eabi/arm-eabi/libc/usr/lib/libc.a(lib_a-callocr.o)
 .debug_aranges
                0x0000000000000f80       0x20 /home/vboxuser/topst/buildtools/gcc-linaro-7.2.1-2017.11-x86_64_arm-eabi/arm-eabi/libc/usr/lib/libc.a(lib_a-ctype_.o)
 .debug_aranges
                0x0000000000000fa0       0x20 /home/vboxuser/topst/buildtools/gcc-linaro-7.2.1-2017.11-x86_64_arm-eabi/arm-eabi/libc/usr/lib/libc.a(lib_a-errno.o)
 .debug_aranges
                0x0000000000000fc0       0x20 /home/vboxuser/topst/buildtools/gcc-linaro-7.2.1-2017.11-x86_64_arm-eabi/arm-eabi/libc/usr/lib/libc.a(lib_a-findfp.o)
 .debug_aranges
                0x0000000000000fe0       0x20 /home/vboxuser/topst/buildtools/gcc-linaro-7.2.1-2017.11-x86_64_arm-eabi/arm-eabi/libc/usr/lib/libc.a(lib_a-fwalk.o)
 .debug_aranges
                0x0000000000001000       0x20 /home/vboxuser/topst/buildtools/gcc-linaro-7.2.1-2017.11-x86_64_arm-eabi/arm-eabi/libc/usr/lib/libc.a(lib_a-getenv_r.o)
 .debug_aranges
                0x0000000000001020       0x20 /home/vboxuser/topst/buildtools/gcc-linaro-7.2.1-2017.11-x86_64_arm-eabi/arm-eabi/libc/usr/lib/libc.a(lib_a-memmove.o)
 .debug_aranges
                0x0000000000001040       0x20 /home/vboxuser/topst/buildtools/gcc-linaro-7.2.1-2017.11-x86_64_arm-eabi/arm-eabi/libc/usr/lib/libc.a(lib_a-reallocr.o)
 .debug_aranges
                0x0000000000001060       0x20 /home/vboxuser/topst/buildtools/gcc-linaro-7.2.1-2017.11-x86_64_arm-eabi/arm-eabi/libc/usr/lib/libc.a(lib_a-reent.o)
 .debug_aranges
                0x0000000000001080       0x20 /home/vboxuser/topst/buildtools/gcc-linaro-7.2.1-2017.11-x86_64_arm-eabi/arm-eabi/libc/usr/lib/libc.a(lib_a-stdio.o)
 .debug_aranges
                0x00000000000010a0       0x20 /home/vboxuser/topst/buildtools/gcc-linaro-7.2.1-2017.11-x86_64_arm-eabi/arm-eabi/libc/usr/lib/libc.a(lib_a-writer.o)
 .debug_aranges
                0x00000000000010c0       0x20 /home/vboxuser/topst/buildtools/gcc-linaro-7.2.1-2017.11-x86_64_arm-eabi/arm-eabi/libc/usr/lib/libc.a(lib_a-closer.o)
 .debug_aranges
                0x00000000000010e0       0x18 /home/vboxuser/topst/buildtools/gcc-linaro-7.2.1-2017.11-x86_64_arm-eabi/arm-eabi/libc/usr/lib/libc.a(lib_a-environ.o)
 .debug_aranges
                0x00000000000010f8       0x20 /home/vboxuser/topst/buildtools/gcc-linaro-7.2.1-2017.11-x86_64_arm-eabi/arm-eabi/libc/usr/lib/libc.a(lib_a-envlock.o)
 .debug_aranges
                0x0000000000001118       0x20 /home/vboxuser/topst/buildtools/gcc-linaro-7.2.1-2017.11-x86_64_arm-eabi/arm-eabi/libc/usr/lib/libc.a(lib_a-fclose.o)
 .debug_aranges
                0x0000000000001138       0x20 /home/vboxuser/topst/buildtools/gcc-linaro-7.2.1-2017.11-x86_64_arm-eabi/arm-eabi/libc/usr/lib/libc.a(lib_a-fflush.o)
 .debug_aranges
                0x0000000000001158       0x20 /home/vboxuser/topst/buildtools/gcc-linaro-7.2.1-2017.11-x86_64_arm-eabi/arm-eabi/libc/usr/lib/libc.a(lib_a-lseekr.o)
 .debug_aranges
                0x0000000000001178       0x20 /home/vboxuser/topst/buildtools/gcc-linaro-7.2.1-2017.11-x86_64_arm-eabi/arm-eabi/libc/usr/lib/libc.a(lib_a-readr.o)
 .debug_aranges
                0x0000000000001198       0x20 /home/vboxuser/topst/buildtools/gcc-linaro-7.2.1-2017.11-x86_64_arm-eabi/arm-eabi/libc/usr/lib/libgcc.a(_udivsi3.o)
 .debug_aranges
                0x00000000000011b8       0x20 /home/vboxuser/topst/buildtools/gcc-linaro-7.2.1-2017.11-x86_64_arm-eabi/arm-eabi/libc/usr/lib/libgcc.a(_dvmd_tls.o)
 .debug_aranges
                0x00000000000011d8       0x20 /home/vboxuser/topst/buildtools/gcc-linaro-7.2.1-2017.11-x86_64_arm-eabi/arm-eabi/libc/usr/lib/libgcc.a(_arm_addsubdf3.o)
 .debug_aranges
                0x00000000000011f8       0x20 /home/vboxuser/topst/buildtools/gcc-linaro-7.2.1-2017.11-x86_64_arm-eabi/arm-eabi/libc/usr/lib/libgcc.a(_arm_muldivdf3.o)
 .debug_aranges
                0x0000000000001218       0x20 /home/vboxuser/topst/buildtools/gcc-linaro-7.2.1-2017.11-x86_64_arm-eabi/arm-eabi/libc/usr/lib/libgcc.a(_arm_cmpdf2.o)
 .debug_aranges
                0x0000000000001238       0x20 /home/vboxuser/topst/buildtools/gcc-linaro-7.2.1-2017.11-x86_64_arm-eabi/arm-eabi/libc/usr/lib/libgcc.a(_arm_unorddf2.o)
 .debug_aranges
                0x0000000000001258       0x20 /home/vboxuser/topst/buildtools/gcc-linaro-7.2.1-2017.11-x86_64_arm-eabi/arm-eabi/libc/usr/lib/libgcc.a(_arm_fixdfsi.o)
 .debug_aranges
                0x0000000000001278       0x20 /home/vboxuser/topst/buildtools/gcc-linaro-7.2.1-2017.11-x86_64_arm-eabi/arm-eabi/libc/usr/lib/libgcc.a(_arm_fixunsdfsi.o)
 .debug_aranges
                0x0000000000001298       0x20 /home/vboxuser/topst/buildtools/gcc-linaro-7.2.1-2017.11-x86_64_arm-eabi/arm-eabi/libc/usr/lib/libgcc.a(_arm_addsubsf3.o)
 .debug_aranges
                0x00000000000012b8       0x20 /home/vboxuser/topst/buildtools/gcc-linaro-7.2.1-2017.11-x86_64_arm-eabi/arm-eabi/libc/usr/lib/libgcc.a(_arm_muldivsf3.o)
 .debug_aranges
                0x00000000000012d8       0x20 /home/vboxuser/topst/buildtools/gcc-linaro-7.2.1-2017.11-x86_64_arm-eabi/arm-eabi/libc/usr/lib/libgcc.a(_arm_fixunssfsi.o)
 .debug_aranges
                0x00000000000012f8       0x20 /home/vboxuser/topst/buildtools/gcc-linaro-7.2.1-2017.11-x86_64_arm-eabi/arm-eabi/libc/usr/lib/libgcc.a(_aeabi_uldivmod.o)
 .debug_aranges
                0x0000000000001318       0x20 /home/vboxuser/topst/buildtools/gcc-linaro-7.2.1-2017.11-x86_64_arm-eabi/arm-eabi/libc/usr/lib/libgcc.a(_udivmoddi4.o)
 .debug_aranges
                0x0000000000001338       0x20 /home/vboxuser/topst/buildtools/gcc-linaro-7.2.1-2017.11-x86_64_arm-eabi/arm-eabi/libc/usr/lib/libgcc.a(_clzdi2.o)
 .debug_aranges
                0x0000000000001358       0x20 /home/vboxuser/topst/buildtools/gcc-linaro-7.2.1-2017.11-x86_64_arm-eabi/arm-eabi/libc/usr/lib/libgcc.a(_clzsi2.o)

.debug_line     0x0000000000000000    0x25ce1
 .debug_line    0x0000000000000000      0x31d /home/vboxuser/topst/cr5-bsp/sources/build/tcc805x/gcc/tcc805x-freertos-debug/obj/main.o
 .debug_line    0x000000000000031d      0x4da /home/vboxuser/topst/cr5-bsp/sources/build/tcc805x/gcc/tcc805x-freertos-debug/obj/can_demo.o
 .debug_line    0x00000000000007f7      0xa81 /home/vboxuser/topst/cr5-bsp/sources/build/tcc805x/gcc/tcc805x-freertos-debug/obj/console.o
 .debug_line    0x0000000000001278      0x27e /home/vboxuser/topst/cr5-bsp/sources/build/tcc805x/gcc/tcc805x-freertos-debug/obj/fwug.o
 .debug_line    0x00000000000014f6      0x2af /home/vboxuser/topst/cr5-bsp/sources/build/tcc805x/gcc/tcc805x-freertos-debug/obj/key_adc.o
 .debug_line    0x00000000000017a5      0x1a8 /home/vboxuser/topst/cr5-bsp/sources/build/tcc805x/gcc/tcc805x-freertos-debug/obj/key_gpio.o
 .debug_line    0x000000000000194d      0x241 /home/vboxuser/topst/cr5-bsp/sources/build/tcc805x/gcc/tcc805x-freertos-debug/obj/key_i2c.o
 .debug_line    0x0000000000001b8e        0x0 /home/vboxuser/topst/cr5-bsp/sources/build/tcc805x/gcc/tcc805x-freertos-debug/obj/key.o
 .debug_line    0x0000000000001b8e      0x2d8 /home/vboxuser/topst/cr5-bsp/sources/build/tcc805x/gcc/tcc805x-freertos-debug/obj/system_monitoring.o
 .debug_line    0x0000000000001e66      0x1bd /home/vboxuser/topst/cr5-bsp/sources/build/tcc805x/gcc/tcc805x-freertos-debug/obj/bootctrl.o
 .debug_line    0x0000000000002023      0x153 /home/vboxuser/topst/cr5-bsp/sources/build/tcc805x/gcc/tcc805x-freertos-debug/obj/reset_demo.o
 .debug_line    0x0000000000002176      0x503 /home/vboxuser/topst/cr5-bsp/sources/build/tcc805x/gcc/tcc805x-freertos-debug/obj/adc_test.o
 .debug_line    0x0000000000002679      0x255 /home/vboxuser/topst/cr5-bsp/sources/build/tcc805x/gcc/tcc805x-freertos-debug/obj/dse_test.o
 .debug_line    0x00000000000028ce      0x1e9 /home/vboxuser/topst/cr5-bsp/sources/build/tcc805x/gcc/tcc805x-freertos-debug/obj/fmu_test.o
 .debug_line    0x0000000000002ab7      0x1cc /home/vboxuser/topst/cr5-bsp/sources/build/tcc805x/gcc/tcc805x-freertos-debug/obj/gdma_test.o
 .debug_line    0x0000000000002c83      0x1e5 /home/vboxuser/topst/cr5-bsp/sources/build/tcc805x/gcc/tcc805x-freertos-debug/obj/gic_test.o
 .debug_line    0x0000000000002e68      0x332 /home/vboxuser/topst/cr5-bsp/sources/build/tcc805x/gcc/tcc805x-freertos-debug/obj/gpio_test.o
 .debug_line    0x000000000000319a      0x605 /home/vboxuser/topst/cr5-bsp/sources/build/tcc805x/gcc/tcc805x-freertos-debug/obj/gpsb_test.o
 .debug_line    0x000000000000379f      0x81e /home/vboxuser/topst/cr5-bsp/sources/build/tcc805x/gcc/tcc805x-freertos-debug/obj/hsm_test.o
 .debug_line    0x0000000000003fbd      0x268 /home/vboxuser/topst/cr5-bsp/sources/build/tcc805x/gcc/tcc805x-freertos-debug/obj/i2c_test.o
 .debug_line    0x0000000000004225      0x191 /home/vboxuser/topst/cr5-bsp/sources/build/tcc805x/gcc/tcc805x-freertos-debug/obj/ictc_test.o
 .debug_line    0x00000000000043b6      0x1b4 /home/vboxuser/topst/cr5-bsp/sources/build/tcc805x/gcc/tcc805x-freertos-debug/obj/lin_test.o
 .debug_line    0x000000000000456a      0x1d4 /home/vboxuser/topst/cr5-bsp/sources/build/tcc805x/gcc/tcc805x-freertos-debug/obj/pdm_test.o
 .debug_line    0x000000000000473e      0x356 /home/vboxuser/topst/cr5-bsp/sources/build/tcc805x/gcc/tcc805x-freertos-debug/obj/pmio_test.o
 .debug_line    0x0000000000004a94      0x43a /home/vboxuser/topst/cr5-bsp/sources/build/tcc805x/gcc/tcc805x-freertos-debug/obj/timer_test.o
 .debug_line    0x0000000000004ece      0x320 /home/vboxuser/topst/cr5-bsp/sources/build/tcc805x/gcc/tcc805x-freertos-debug/obj/wdt_test.o
 .debug_line    0x00000000000051ee      0x1e4 /home/vboxuser/topst/cr5-bsp/sources/build/tcc805x/gcc/tcc805x-freertos-debug/obj/pwm_test.o
 .debug_line    0x00000000000053d2      0x406 /home/vboxuser/topst/cr5-bsp/sources/build/tcc805x/gcc/tcc805x-freertos-debug/obj/hap.o
 .debug_line    0x00000000000057d8      0x143 /home/vboxuser/topst/cr5-bsp/sources/build/tcc805x/gcc/tcc805x-freertos-debug/obj/mptool.o
 .debug_line    0x000000000000591b      0x48f /home/vboxuser/topst/cr5-bsp/sources/build/tcc805x/gcc/tcc805x-freertos-debug/obj/ipc_os.o
 .debug_line    0x0000000000005daa      0x2f3 /home/vboxuser/topst/cr5-bsp/sources/build/tcc805x/gcc/tcc805x-freertos-debug/obj/ipc_buffer.o
 .debug_line    0x000000000000609d      0x248 /home/vboxuser/topst/cr5-bsp/sources/build/tcc805x/gcc/tcc805x-freertos-debug/obj/ipc_cmd.o
 .debug_line    0x00000000000062e5      0x428 /home/vboxuser/topst/cr5-bsp/sources/build/tcc805x/gcc/tcc805x-freertos-debug/obj/ipc_ctl.o
 .debug_line    0x000000000000670d      0x1f4 /home/vboxuser/topst/cr5-bsp/sources/build/tcc805x/gcc/tcc805x-freertos-debug/obj/ipc_parser.o
 .debug_line    0x0000000000006901      0x3a0 /home/vboxuser/topst/cr5-bsp/sources/build/tcc805x/gcc/tcc805x-freertos-debug/obj/ipc_api.o
 .debug_line    0x0000000000006ca1      0x15f /home/vboxuser/topst/cr5-bsp/sources/build/tcc805x/gcc/tcc805x-freertos-debug/obj/ipc.o
 .debug_line    0x0000000000006e00      0x2ce /home/vboxuser/topst/cr5-bsp/sources/build/tcc805x/gcc/tcc805x-freertos-debug/obj/lin.o
 .debug_line    0x00000000000070ce      0x2ba /home/vboxuser/topst/cr5-bsp/sources/build/tcc805x/gcc/tcc805x-freertos-debug/obj/sdm.o
 .debug_line    0x0000000000007388      0x6de /home/vboxuser/topst/cr5-bsp/sources/build/tcc805x/gcc/tcc805x-freertos-debug/obj/hsm_manager.o
 .debug_line    0x0000000000007a66      0x2e5 /home/vboxuser/topst/cr5-bsp/sources/build/tcc805x/gcc/tcc805x-freertos-debug/obj/adc.o
 .debug_line    0x0000000000007d4b      0x2c1 /home/vboxuser/topst/cr5-bsp/sources/build/tcc805x/gcc/tcc805x-freertos-debug/obj/can.o
 .debug_line    0x000000000000800c      0x581 /home/vboxuser/topst/cr5-bsp/sources/build/tcc805x/gcc/tcc805x-freertos-debug/obj/can_drv.o
 .debug_line    0x000000000000858d      0x3da /home/vboxuser/topst/cr5-bsp/sources/build/tcc805x/gcc/tcc805x-freertos-debug/obj/can_msg.o
 .debug_line    0x0000000000008967       0xfb /home/vboxuser/topst/cr5-bsp/sources/build/tcc805x/gcc/tcc805x-freertos-debug/obj/can_par.o
 .debug_line    0x0000000000008a62      0x350 /home/vboxuser/topst/cr5-bsp/sources/build/tcc805x/gcc/tcc805x-freertos-debug/obj/can_porting.o
 .debug_line    0x0000000000008db2      0x5b6 /home/vboxuser/topst/cr5-bsp/sources/build/tcc805x/gcc/tcc805x-freertos-debug/obj/clock_dev.o
 .debug_line    0x0000000000009368      0x2af /home/vboxuser/topst/cr5-bsp/sources/build/tcc805x/gcc/tcc805x-freertos-debug/obj/debug.o
 .debug_line    0x0000000000009617      0x162 /home/vboxuser/topst/cr5-bsp/sources/build/tcc805x/gcc/tcc805x-freertos-debug/obj/bsp.o
 .debug_line    0x0000000000009779      0x3ea /home/vboxuser/topst/cr5-bsp/sources/build/tcc805x/gcc/tcc805x-freertos-debug/obj/fmu.o
 .debug_line    0x0000000000009b63      0x3a4 /home/vboxuser/topst/cr5-bsp/sources/build/tcc805x/gcc/tcc805x-freertos-debug/obj/gdma.o
 .debug_line    0x0000000000009f07      0x2dd /home/vboxuser/topst/cr5-bsp/sources/build/tcc805x/gcc/tcc805x-freertos-debug/obj/gic.o
 .debug_line    0x000000000000a1e4      0x269 /home/vboxuser/topst/cr5-bsp/sources/build/tcc805x/gcc/tcc805x-freertos-debug/obj/gpio.o
 .debug_line    0x000000000000a44d      0x898 /home/vboxuser/topst/cr5-bsp/sources/build/tcc805x/gcc/tcc805x-freertos-debug/obj/i2c.o
 .debug_line    0x000000000000ace5      0x186 /home/vboxuser/topst/cr5-bsp/sources/build/tcc805x/gcc/tcc805x-freertos-debug/obj/i2c_reg.o
 .debug_line    0x000000000000ae6b      0x3f9 /home/vboxuser/topst/cr5-bsp/sources/build/tcc805x/gcc/tcc805x-freertos-debug/obj/ictc.o
 .debug_line    0x000000000000b264      0x2db /home/vboxuser/topst/cr5-bsp/sources/build/tcc805x/gcc/tcc805x-freertos-debug/obj/mbox_phy.o
 .debug_line    0x000000000000b53f      0xa2e /home/vboxuser/topst/cr5-bsp/sources/build/tcc805x/gcc/tcc805x-freertos-debug/obj/mbox_dev.o
 .debug_line    0x000000000000bf6d      0x350 /home/vboxuser/topst/cr5-bsp/sources/build/tcc805x/gcc/tcc805x-freertos-debug/obj/mbox.o
 .debug_line    0x000000000000c2bd      0x17c /home/vboxuser/topst/cr5-bsp/sources/build/tcc805x/gcc/tcc805x-freertos-debug/obj/mpu.o
 .debug_line    0x000000000000c439      0x6a2 /home/vboxuser/topst/cr5-bsp/sources/build/tcc805x/gcc/tcc805x-freertos-debug/obj/pdm.o
 .debug_line    0x000000000000cadb      0x62a /home/vboxuser/topst/cr5-bsp/sources/build/tcc805x/gcc/tcc805x-freertos-debug/obj/pmio_dev.o
 .debug_line    0x000000000000d105      0xb35 /home/vboxuser/topst/cr5-bsp/sources/build/tcc805x/gcc/tcc805x-freertos-debug/obj/gpsb.o
 .debug_line    0x000000000000dc3a      0x18b /home/vboxuser/topst/cr5-bsp/sources/build/tcc805x/gcc/tcc805x-freertos-debug/obj/gpsb_reg.o
 .debug_line    0x000000000000ddc5      0x5e7 /home/vboxuser/topst/cr5-bsp/sources/build/tcc805x/gcc/tcc805x-freertos-debug/obj/timer.o
 .debug_line    0x000000000000e3ac      0x77f /home/vboxuser/topst/cr5-bsp/sources/build/tcc805x/gcc/tcc805x-freertos-debug/obj/uart.o
 .debug_line    0x000000000000eb2b      0x3a9 /home/vboxuser/topst/cr5-bsp/sources/build/tcc805x/gcc/tcc805x-freertos-debug/obj/udma.o
 .debug_line    0x000000000000eed4      0x2bd /home/vboxuser/topst/cr5-bsp/sources/build/tcc805x/gcc/tcc805x-freertos-debug/obj/wdt.o
 .debug_line    0x000000000000f191      0x22a /home/vboxuser/topst/cr5-bsp/sources/build/tcc805x/gcc/tcc805x-freertos-debug/obj/dse.o
 .debug_line    0x000000000000f3bb      0x251 /home/vboxuser/topst/cr5-bsp/sources/build/tcc805x/gcc/tcc805x-freertos-debug/obj/midf.o
 .debug_line    0x000000000000f60c      0x29a /home/vboxuser/topst/cr5-bsp/sources/build/tcc805x/gcc/tcc805x-freertos-debug/obj/pmu_reset.o
 .debug_line    0x000000000000f8a6      0xb1d /home/vboxuser/topst/cr5-bsp/sources/build/tcc805x/gcc/tcc805x-freertos-debug/obj/tasks.o
 .debug_line    0x00000000000103c3      0x342 /home/vboxuser/topst/cr5-bsp/sources/build/tcc805x/gcc/tcc805x-freertos-debug/obj/list.o
 .debug_line    0x0000000000010705      0x942 /home/vboxuser/topst/cr5-bsp/sources/build/tcc805x/gcc/tcc805x-freertos-debug/obj/queue.o
 .debug_line    0x0000000000011047      0x481 /home/vboxuser/topst/cr5-bsp/sources/build/tcc805x/gcc/tcc805x-freertos-debug/obj/event_groups.o
 .debug_line    0x00000000000114c8      0x55f /home/vboxuser/topst/cr5-bsp/sources/build/tcc805x/gcc/tcc805x-freertos-debug/obj/timers.o
 .debug_line    0x0000000000011a27      0x54b /home/vboxuser/topst/cr5-bsp/sources/build/tcc805x/gcc/tcc805x-freertos-debug/obj/stream_buffer.o
 .debug_line    0x0000000000011f72      0x53b /home/vboxuser/topst/cr5-bsp/sources/build/tcc805x/gcc/tcc805x-freertos-debug/obj/port.o
 .debug_line    0x00000000000124ad      0x406 /home/vboxuser/topst/cr5-bsp/sources/build/tcc805x/gcc/tcc805x-freertos-debug/obj/heap_5.o
 .debug_line    0x00000000000128b3       0xaf /home/vboxuser/topst/cr5-bsp/sources/build/tcc805x/gcc/tcc805x-freertos-debug/obj/sal_api.o
 .debug_line    0x0000000000012962      0x78d /home/vboxuser/topst/cr5-bsp/sources/build/tcc805x/gcc/tcc805x-freertos-debug/obj/sal_freertos_impl.o
 .debug_line    0x00000000000130ef       0xf2 /home/vboxuser/topst/cr5-bsp/sources/build/tcc805x/gcc/tcc805x-freertos-debug/obj/startup.o
 .debug_line    0x00000000000131e1       0x7c /home/vboxuser/topst/cr5-bsp/sources/build/tcc805x/gcc/tcc805x-freertos-debug/obj/vector.o
 .debug_line    0x000000000001325d       0x6a /home/vboxuser/topst/cr5-bsp/sources/build/tcc805x/gcc/tcc805x-freertos-debug/obj/vfp_init.o
 .debug_line    0x00000000000132c7       0x68 /home/vboxuser/topst/cr5-bsp/sources/build/tcc805x/gcc/tcc805x-freertos-debug/obj/arm_a.o
 .debug_line    0x000000000001332f       0xd2 /home/vboxuser/topst/cr5-bsp/sources/build/tcc805x/gcc/tcc805x-freertos-debug/obj/portASM.o
 .debug_line    0x0000000000013401       0xc1 /home/vboxuser/topst/cr5-bsp/sources/build/tcc805x/gcc/tcc805x-freertos-debug/obj/freertos.o
 .debug_line    0x00000000000134c2       0x6d /home/vboxuser/topst/cr5-bsp/sources/build/tcc805x/gcc/tcc805x-freertos-debug/obj/sal.o
 .debug_line    0x000000000001352f      0x31c /home/vboxuser/topst/buildtools/gcc-linaro-7.2.1-2017.11-x86_64_arm-eabi/arm-eabi/libc/usr/lib/libc.a(lib_a-atoi.o)
 .debug_line    0x000000000001384b      0x31b /home/vboxuser/topst/buildtools/gcc-linaro-7.2.1-2017.11-x86_64_arm-eabi/arm-eabi/libc/usr/lib/libc.a(lib_a-atol.o)
 .debug_line    0x0000000000013b66      0x345 /home/vboxuser/topst/buildtools/gcc-linaro-7.2.1-2017.11-x86_64_arm-eabi/arm-eabi/libc/usr/lib/libc.a(lib_a-memcmp.o)
 .debug_line    0x0000000000013eab      0x36d /home/vboxuser/topst/buildtools/gcc-linaro-7.2.1-2017.11-x86_64_arm-eabi/arm-eabi/libc/usr/lib/libc.a(lib_a-memcpy-stub.o)
 .debug_line    0x0000000000014218      0x433 /home/vboxuser/topst/buildtools/gcc-linaro-7.2.1-2017.11-x86_64_arm-eabi/arm-eabi/libc/usr/lib/libc.a(lib_a-memset.o)
 .debug_line    0x000000000001464b      0x41b /home/vboxuser/topst/buildtools/gcc-linaro-7.2.1-2017.11-x86_64_arm-eabi/arm-eabi/libc/usr/lib/libc.a(lib_a-snprintf.o)
 .debug_line    0x0000000000014a66      0x323 /home/vboxuser/topst/buildtools/gcc-linaro-7.2.1-2017.11-x86_64_arm-eabi/arm-eabi/libc/usr/lib/libc.a(lib_a-strlen-stub.o)
 .debug_line    0x0000000000014d89      0x370 /home/vboxuser/topst/buildtools/gcc-linaro-7.2.1-2017.11-x86_64_arm-eabi/arm-eabi/libc/usr/lib/libc.a(lib_a-strncmp.o)
 .debug_line    0x00000000000150f9      0x345 /home/vboxuser/topst/buildtools/gcc-linaro-7.2.1-2017.11-x86_64_arm-eabi/arm-eabi/libc/usr/lib/libc.a(lib_a-strncpy.o)
 .debug_line    0x000000000001543e      0x324 /home/vboxuser/topst/buildtools/gcc-linaro-7.2.1-2017.11-x86_64_arm-eabi/arm-eabi/libc/usr/lib/libc.a(lib_a-strnlen.o)
 .debug_line    0x0000000000015762      0x47c /home/vboxuser/topst/buildtools/gcc-linaro-7.2.1-2017.11-x86_64_arm-eabi/arm-eabi/libc/usr/lib/libc.a(lib_a-strtol.o)
 .debug_line    0x0000000000015bde      0x47b /home/vboxuser/topst/buildtools/gcc-linaro-7.2.1-2017.11-x86_64_arm-eabi/arm-eabi/libc/usr/lib/libc.a(lib_a-strtoul.o)
 .debug_line    0x0000000000016059     0x23c8 /home/vboxuser/topst/buildtools/gcc-linaro-7.2.1-2017.11-x86_64_arm-eabi/arm-eabi/libc/usr/lib/libc.a(lib_a-svfprintf.o)
 .debug_line    0x0000000000018421      0x45e /home/vboxuser/topst/buildtools/gcc-linaro-7.2.1-2017.11-x86_64_arm-eabi/arm-eabi/libc/usr/lib/libc.a(lib_a-wcrtomb.o)
 .debug_line    0x000000000001887f      0x324 /home/vboxuser/topst/buildtools/gcc-linaro-7.2.1-2017.11-x86_64_arm-eabi/arm-eabi/libc/usr/lib/libc.a(lib_a-wcsrtombs.o)
 .debug_line    0x0000000000018ba3      0x950 /home/vboxuser/topst/buildtools/gcc-linaro-7.2.1-2017.11-x86_64_arm-eabi/arm-eabi/libc/usr/lib/libc.a(lib_a-dtoa.o)
 .debug_line    0x00000000000194f3      0x417 /home/vboxuser/topst/buildtools/gcc-linaro-7.2.1-2017.11-x86_64_arm-eabi/arm-eabi/libc/usr/lib/libc.a(lib_a-freer.o)
 .debug_line    0x000000000001990a      0x259 /home/vboxuser/topst/buildtools/gcc-linaro-7.2.1-2017.11-x86_64_arm-eabi/arm-eabi/libc/usr/lib/libc.a(lib_a-impure.o)
 .debug_line    0x0000000000019b63      0x61c /home/vboxuser/topst/buildtools/gcc-linaro-7.2.1-2017.11-x86_64_arm-eabi/arm-eabi/libc/usr/lib/libc.a(lib_a-locale.o)
 .debug_line    0x000000000001a17f      0x35d /home/vboxuser/topst/buildtools/gcc-linaro-7.2.1-2017.11-x86_64_arm-eabi/arm-eabi/libc/usr/lib/libc.a(lib_a-localeconv.o)
 .debug_line    0x000000000001a4dc      0x536 /home/vboxuser/topst/buildtools/gcc-linaro-7.2.1-2017.11-x86_64_arm-eabi/arm-eabi/libc/usr/lib/libc.a(lib_a-mallocr.o)
 .debug_line    0x000000000001aa12      0x61e /home/vboxuser/topst/buildtools/gcc-linaro-7.2.1-2017.11-x86_64_arm-eabi/arm-eabi/libc/usr/lib/libc.a(lib_a-mbtowc_r.o)
 .debug_line    0x000000000001b030      0x35d /home/vboxuser/topst/buildtools/gcc-linaro-7.2.1-2017.11-x86_64_arm-eabi/arm-eabi/libc/usr/lib/libc.a(lib_a-memchr-stub.o)
 .debug_line    0x000000000001b38d      0x269 /home/vboxuser/topst/buildtools/gcc-linaro-7.2.1-2017.11-x86_64_arm-eabi/arm-eabi/libc/usr/lib/libc.a(lib_a-mlock.o)
 .debug_line    0x000000000001b5f6      0x8d4 /home/vboxuser/topst/buildtools/gcc-linaro-7.2.1-2017.11-x86_64_arm-eabi/arm-eabi/libc/usr/lib/libc.a(lib_a-mprec.o)
 .debug_line    0x000000000001beca      0x4ac /home/vboxuser/topst/buildtools/gcc-linaro-7.2.1-2017.11-x86_64_arm-eabi/arm-eabi/libc/usr/lib/libc.a(lib_a-s_frexp.o)
 .debug_line    0x000000000001c376      0x335 /home/vboxuser/topst/buildtools/gcc-linaro-7.2.1-2017.11-x86_64_arm-eabi/arm-eabi/libc/usr/lib/libc.a(lib_a-sbrkr.o)
 .debug_line    0x000000000001c6ab      0x342 /home/vboxuser/topst/buildtools/gcc-linaro-7.2.1-2017.11-x86_64_arm-eabi/arm-eabi/libc/usr/lib/libc.a(lib_a-strcasecmp.o)
 .debug_line    0x000000000001c9ed      0x32a /home/vboxuser/topst/buildtools/gcc-linaro-7.2.1-2017.11-x86_64_arm-eabi/arm-eabi/libc/usr/lib/libc.a(lib_a-strcat.o)
 .debug_line    0x000000000001cd17      0x357 /home/vboxuser/topst/buildtools/gcc-linaro-7.2.1-2017.11-x86_64_arm-eabi/arm-eabi/libc/usr/lib/libc.a(lib_a-strchr.o)
 .debug_line    0x000000000001d06e      0x176 /home/vboxuser/topst/buildtools/gcc-linaro-7.2.1-2017.11-x86_64_arm-eabi/arm-eabi/libc/usr/lib/libc.a(lib_a-strcmp.o)
 .debug_line    0x000000000001d1e4      0x31e /home/vboxuser/topst/buildtools/gcc-linaro-7.2.1-2017.11-x86_64_arm-eabi/arm-eabi/libc/usr/lib/libc.a(lib_a-strcpy.o)
 .debug_line    0x000000000001d502      0x332 /home/vboxuser/topst/buildtools/gcc-linaro-7.2.1-2017.11-x86_64_arm-eabi/arm-eabi/libc/usr/lib/libc.a(lib_a-strlcpy.o)
 .debug_line    0x000000000001d834      0x353 /home/vboxuser/topst/buildtools/gcc-linaro-7.2.1-2017.11-x86_64_arm-eabi/arm-eabi/libc/usr/lib/libc.a(lib_a-strncasecmp.o)
 .debug_line    0x000000000001db87     0x1f1b /home/vboxuser/topst/buildtools/gcc-linaro-7.2.1-2017.11-x86_64_arm-eabi/arm-eabi/libc/usr/lib/libc.a(lib_a-svfiprintf.o)
 .debug_line    0x000000000001faa2      0x79c /home/vboxuser/topst/buildtools/gcc-linaro-7.2.1-2017.11-x86_64_arm-eabi/arm-eabi/libc/usr/lib/libc.a(lib_a-syscalls.o)
 .debug_line    0x000000000002023e      0x480 /home/vboxuser/topst/buildtools/gcc-linaro-7.2.1-2017.11-x86_64_arm-eabi/arm-eabi/libc/usr/lib/libc.a(lib_a-wcsnrtombs.o)
 .debug_line    0x00000000000206be      0x50b /home/vboxuser/topst/buildtools/gcc-linaro-7.2.1-2017.11-x86_64_arm-eabi/arm-eabi/libc/usr/lib/libc.a(lib_a-wctomb_r.o)
 .debug_line    0x0000000000020bc9      0x2ad /home/vboxuser/topst/buildtools/gcc-linaro-7.2.1-2017.11-x86_64_arm-eabi/arm-eabi/libc/usr/lib/libc.a(lib_a-callocr.o)
 .debug_line    0x0000000000020e76      0x3f8 /home/vboxuser/topst/buildtools/gcc-linaro-7.2.1-2017.11-x86_64_arm-eabi/arm-eabi/libc/usr/lib/libc.a(lib_a-ctype_.o)
 .debug_line    0x000000000002126e      0x274 /home/vboxuser/topst/buildtools/gcc-linaro-7.2.1-2017.11-x86_64_arm-eabi/arm-eabi/libc/usr/lib/libc.a(lib_a-errno.o)
 .debug_line    0x00000000000214e2      0x44f /home/vboxuser/topst/buildtools/gcc-linaro-7.2.1-2017.11-x86_64_arm-eabi/arm-eabi/libc/usr/lib/libc.a(lib_a-findfp.o)
 .debug_line    0x0000000000021931      0x38e /home/vboxuser/topst/buildtools/gcc-linaro-7.2.1-2017.11-x86_64_arm-eabi/arm-eabi/libc/usr/lib/libc.a(lib_a-fwalk.o)
 .debug_line    0x0000000000021cbf      0x363 /home/vboxuser/topst/buildtools/gcc-linaro-7.2.1-2017.11-x86_64_arm-eabi/arm-eabi/libc/usr/lib/libc.a(lib_a-getenv_r.o)
 .debug_line    0x0000000000022022      0x440 /home/vboxuser/topst/buildtools/gcc-linaro-7.2.1-2017.11-x86_64_arm-eabi/arm-eabi/libc/usr/lib/libc.a(lib_a-memmove.o)
 .debug_line    0x0000000000022462      0x3a8 /home/vboxuser/topst/buildtools/gcc-linaro-7.2.1-2017.11-x86_64_arm-eabi/arm-eabi/libc/usr/lib/libc.a(lib_a-reallocr.o)
 .debug_line    0x000000000002280a      0x34d /home/vboxuser/topst/buildtools/gcc-linaro-7.2.1-2017.11-x86_64_arm-eabi/arm-eabi/libc/usr/lib/libc.a(lib_a-reent.o)
 .debug_line    0x0000000000022b57      0x382 /home/vboxuser/topst/buildtools/gcc-linaro-7.2.1-2017.11-x86_64_arm-eabi/arm-eabi/libc/usr/lib/libc.a(lib_a-stdio.o)
 .debug_line    0x0000000000022ed9      0x336 /home/vboxuser/topst/buildtools/gcc-linaro-7.2.1-2017.11-x86_64_arm-eabi/arm-eabi/libc/usr/lib/libc.a(lib_a-writer.o)
 .debug_line    0x000000000002320f      0x336 /home/vboxuser/topst/buildtools/gcc-linaro-7.2.1-2017.11-x86_64_arm-eabi/arm-eabi/libc/usr/lib/libc.a(lib_a-closer.o)
 .debug_line    0x0000000000023545       0xcc /home/vboxuser/topst/buildtools/gcc-linaro-7.2.1-2017.11-x86_64_arm-eabi/arm-eabi/libc/usr/lib/libc.a(lib_a-environ.o)
 .debug_line    0x0000000000023611      0x31b /home/vboxuser/topst/buildtools/gcc-linaro-7.2.1-2017.11-x86_64_arm-eabi/arm-eabi/libc/usr/lib/libc.a(lib_a-envlock.o)
 .debug_line    0x000000000002392c      0x371 /home/vboxuser/topst/buildtools/gcc-linaro-7.2.1-2017.11-x86_64_arm-eabi/arm-eabi/libc/usr/lib/libc.a(lib_a-fclose.o)
 .debug_line    0x0000000000023c9d      0x41e /home/vboxuser/topst/buildtools/gcc-linaro-7.2.1-2017.11-x86_64_arm-eabi/arm-eabi/libc/usr/lib/libc.a(lib_a-fflush.o)
 .debug_line    0x00000000000240bb      0x336 /home/vboxuser/topst/buildtools/gcc-linaro-7.2.1-2017.11-x86_64_arm-eabi/arm-eabi/libc/usr/lib/libc.a(lib_a-lseekr.o)
 .debug_line    0x00000000000243f1      0x335 /home/vboxuser/topst/buildtools/gcc-linaro-7.2.1-2017.11-x86_64_arm-eabi/arm-eabi/libc/usr/lib/libc.a(lib_a-readr.o)
 .debug_line    0x0000000000024726       0xfd /home/vboxuser/topst/buildtools/gcc-linaro-7.2.1-2017.11-x86_64_arm-eabi/arm-eabi/libc/usr/lib/libgcc.a(_udivsi3.o)
 .debug_line    0x0000000000024823       0xe0 /home/vboxuser/topst/buildtools/gcc-linaro-7.2.1-2017.11-x86_64_arm-eabi/arm-eabi/libc/usr/lib/libgcc.a(_dvmd_tls.o)
 .debug_line    0x0000000000024903      0x1ef /home/vboxuser/topst/buildtools/gcc-linaro-7.2.1-2017.11-x86_64_arm-eabi/arm-eabi/libc/usr/lib/libgcc.a(_arm_addsubdf3.o)
 .debug_line    0x0000000000024af2      0x201 /home/vboxuser/topst/buildtools/gcc-linaro-7.2.1-2017.11-x86_64_arm-eabi/arm-eabi/libc/usr/lib/libgcc.a(_arm_muldivdf3.o)
 .debug_line    0x0000000000024cf3      0x131 /home/vboxuser/topst/buildtools/gcc-linaro-7.2.1-2017.11-x86_64_arm-eabi/arm-eabi/libc/usr/lib/libgcc.a(_arm_cmpdf2.o)
 .debug_line    0x0000000000024e24       0xee /home/vboxuser/topst/buildtools/gcc-linaro-7.2.1-2017.11-x86_64_arm-eabi/arm-eabi/libc/usr/lib/libgcc.a(_arm_unorddf2.o)
 .debug_line    0x0000000000024f12       0xf7 /home/vboxuser/topst/buildtools/gcc-linaro-7.2.1-2017.11-x86_64_arm-eabi/arm-eabi/libc/usr/lib/libgcc.a(_arm_fixdfsi.o)
 .debug_line    0x0000000000025009       0xf5 /home/vboxuser/topst/buildtools/gcc-linaro-7.2.1-2017.11-x86_64_arm-eabi/arm-eabi/libc/usr/lib/libgcc.a(_arm_fixunsdfsi.o)
 .debug_line    0x00000000000250fe      0x196 /home/vboxuser/topst/buildtools/gcc-linaro-7.2.1-2017.11-x86_64_arm-eabi/arm-eabi/libc/usr/lib/libgcc.a(_arm_addsubsf3.o)
 .debug_line    0x0000000000025294      0x1a2 /home/vboxuser/topst/buildtools/gcc-linaro-7.2.1-2017.11-x86_64_arm-eabi/arm-eabi/libc/usr/lib/libgcc.a(_arm_muldivsf3.o)
 .debug_line    0x0000000000025436       0xf5 /home/vboxuser/topst/buildtools/gcc-linaro-7.2.1-2017.11-x86_64_arm-eabi/arm-eabi/libc/usr/lib/libgcc.a(_arm_fixunssfsi.o)
 .debug_line    0x000000000002552b       0xe0 /home/vboxuser/topst/buildtools/gcc-linaro-7.2.1-2017.11-x86_64_arm-eabi/arm-eabi/libc/usr/lib/libgcc.a(_aeabi_uldivmod.o)
 .debug_line    0x000000000002560b      0x4ff /home/vboxuser/topst/buildtools/gcc-linaro-7.2.1-2017.11-x86_64_arm-eabi/arm-eabi/libc/usr/lib/libgcc.a(_udivmoddi4.o)
 .debug_line    0x0000000000025b0a       0xea /home/vboxuser/topst/buildtools/gcc-linaro-7.2.1-2017.11-x86_64_arm-eabi/arm-eabi/libc/usr/lib/libgcc.a(_clzdi2.o)
 .debug_line    0x0000000000025bf4       0xed /home/vboxuser/topst/buildtools/gcc-linaro-7.2.1-2017.11-x86_64_arm-eabi/arm-eabi/libc/usr/lib/libgcc.a(_clzsi2.o)

.debug_str      0x0000000000000000    0x19938
 .debug_str     0x0000000000000000     0x16fb /home/vboxuser/topst/cr5-bsp/sources/build/tcc805x/gcc/tcc805x-freertos-debug/obj/main.o
                                       0x1848 (size before relaxing)
 .debug_str     0x00000000000016fb      0x7a0 /home/vboxuser/topst/cr5-bsp/sources/build/tcc805x/gcc/tcc805x-freertos-debug/obj/can_demo.o
                                       0x19f7 (size before relaxing)
 .debug_str     0x0000000000001e9b      0xb05 /home/vboxuser/topst/cr5-bsp/sources/build/tcc805x/gcc/tcc805x-freertos-debug/obj/console.o
                                       0x2323 (size before relaxing)
 .debug_str     0x00000000000029a0      0x715 /home/vboxuser/topst/cr5-bsp/sources/build/tcc805x/gcc/tcc805x-freertos-debug/obj/fwug.o
                                       0x1ad2 (size before relaxing)
 .debug_str     0x00000000000030b5      0x2d9 /home/vboxuser/topst/cr5-bsp/sources/build/tcc805x/gcc/tcc805x-freertos-debug/obj/key_adc.o
                                       0x1516 (size before relaxing)
 .debug_str     0x000000000000338e      0x2a0 /home/vboxuser/topst/cr5-bsp/sources/build/tcc805x/gcc/tcc805x-freertos-debug/obj/key_gpio.o
                                       0x14f2 (size before relaxing)
 .debug_str     0x000000000000362e      0x25f /home/vboxuser/topst/cr5-bsp/sources/build/tcc805x/gcc/tcc805x-freertos-debug/obj/key_i2c.o
                                       0x14db (size before relaxing)
 .debug_str     0x000000000000388d       0x3e /home/vboxuser/topst/cr5-bsp/sources/build/tcc805x/gcc/tcc805x-freertos-debug/obj/key.o
                                        0x105 (size before relaxing)
 .debug_str     0x00000000000038cb      0x39d /home/vboxuser/topst/cr5-bsp/sources/build/tcc805x/gcc/tcc805x-freertos-debug/obj/system_monitoring.o
                                       0x15e4 (size before relaxing)
 .debug_str     0x0000000000003c68      0x143 /home/vboxuser/topst/cr5-bsp/sources/build/tcc805x/gcc/tcc805x-freertos-debug/obj/bootctrl.o
                                       0x14e6 (size before relaxing)
 .debug_str     0x0000000000003dab       0x62 /home/vboxuser/topst/cr5-bsp/sources/build/tcc805x/gcc/tcc805x-freertos-debug/obj/reset_demo.o
                                       0x12a0 (size before relaxing)
 .debug_str     0x0000000000003e0d      0xe49 /home/vboxuser/topst/cr5-bsp/sources/build/tcc805x/gcc/tcc805x-freertos-debug/obj/adc_test.o
                                       0x25de (size before relaxing)
 .debug_str     0x0000000000004c56      0x12c /home/vboxuser/topst/cr5-bsp/sources/build/tcc805x/gcc/tcc805x-freertos-debug/obj/dse_test.o
                                       0x1698 (size before relaxing)
 .debug_str     0x0000000000004d82      0x7c9 /home/vboxuser/topst/cr5-bsp/sources/build/tcc805x/gcc/tcc805x-freertos-debug/obj/fmu_test.o
                                       0x1d57 (size before relaxing)
 .debug_str     0x000000000000554b       0xd6 /home/vboxuser/topst/cr5-bsp/sources/build/tcc805x/gcc/tcc805x-freertos-debug/obj/gdma_test.o
                                       0x1308 (size before relaxing)
 .debug_str     0x0000000000005621       0x91 /home/vboxuser/topst/cr5-bsp/sources/build/tcc805x/gcc/tcc805x-freertos-debug/obj/gic_test.o
                                       0x12e0 (size before relaxing)
 .debug_str     0x00000000000056b2       0xc3 /home/vboxuser/topst/cr5-bsp/sources/build/tcc805x/gcc/tcc805x-freertos-debug/obj/gpio_test.o
                                       0x1303 (size before relaxing)
 .debug_str     0x0000000000005775      0x36c /home/vboxuser/topst/cr5-bsp/sources/build/tcc805x/gcc/tcc805x-freertos-debug/obj/gpsb_test.o
                                       0x1a8d (size before relaxing)
 .debug_str     0x0000000000005ae1      0x320 /home/vboxuser/topst/cr5-bsp/sources/build/tcc805x/gcc/tcc805x-freertos-debug/obj/hsm_test.o
                                       0x1994 (size before relaxing)
 .debug_str     0x0000000000005e01      0x15e /home/vboxuser/topst/cr5-bsp/sources/build/tcc805x/gcc/tcc805x-freertos-debug/obj/i2c_test.o
                                       0x1579 (size before relaxing)
 .debug_str     0x0000000000005f5f       0xea /home/vboxuser/topst/cr5-bsp/sources/build/tcc805x/gcc/tcc805x-freertos-debug/obj/ictc_test.o
                                       0x131d (size before relaxing)
 .debug_str     0x0000000000006049       0xf1 /home/vboxuser/topst/cr5-bsp/sources/build/tcc805x/gcc/tcc805x-freertos-debug/obj/lin_test.o
                                       0x132e (size before relaxing)
 .debug_str     0x000000000000613a       0xc2 /home/vboxuser/topst/cr5-bsp/sources/build/tcc805x/gcc/tcc805x-freertos-debug/obj/pdm_test.o
                                       0x1424 (size before relaxing)
 .debug_str     0x00000000000061fc      0x1a9 /home/vboxuser/topst/cr5-bsp/sources/build/tcc805x/gcc/tcc805x-freertos-debug/obj/pmio_test.o
                                       0x17d8 (size before relaxing)
 .debug_str     0x00000000000063a5      0x5c7 /home/vboxuser/topst/cr5-bsp/sources/build/tcc805x/gcc/tcc805x-freertos-debug/obj/timer_test.o
                                       0x1d67 (size before relaxing)
 .debug_str     0x000000000000696c      0x231 /home/vboxuser/topst/cr5-bsp/sources/build/tcc805x/gcc/tcc805x-freertos-debug/obj/wdt_test.o
                                       0x1af9 (size before relaxing)
 .debug_str     0x0000000000006b9d      0x104 /home/vboxuser/topst/cr5-bsp/sources/build/tcc805x/gcc/tcc805x-freertos-debug/obj/pwm_test.o
                                       0x147e (size before relaxing)
 .debug_str     0x0000000000006ca1      0x10a /home/vboxuser/topst/cr5-bsp/sources/build/tcc805x/gcc/tcc805x-freertos-debug/obj/hap.o
                                       0x1924 (size before relaxing)
 .debug_str     0x0000000000006dab       0x86 /home/vboxuser/topst/cr5-bsp/sources/build/tcc805x/gcc/tcc805x-freertos-debug/obj/mptool.o
                                       0x12bd (size before relaxing)
 .debug_str     0x0000000000006e31      0x4b1 /home/vboxuser/topst/cr5-bsp/sources/build/tcc805x/gcc/tcc805x-freertos-debug/obj/ipc_os.o
                                       0x1786 (size before relaxing)
 .debug_str     0x00000000000072e2      0x20d /home/vboxuser/topst/cr5-bsp/sources/build/tcc805x/gcc/tcc805x-freertos-debug/obj/ipc_buffer.o
                                       0x14a1 (size before relaxing)
 .debug_str     0x00000000000074ef      0x15c /home/vboxuser/topst/cr5-bsp/sources/build/tcc805x/gcc/tcc805x-freertos-debug/obj/ipc_cmd.o
                                       0x162d (size before relaxing)
 .debug_str     0x000000000000764b      0x4d7 /home/vboxuser/topst/cr5-bsp/sources/build/tcc805x/gcc/tcc805x-freertos-debug/obj/ipc_ctl.o
                                       0x1aba (size before relaxing)
 .debug_str     0x0000000000007b22      0x1e1 /home/vboxuser/topst/cr5-bsp/sources/build/tcc805x/gcc/tcc805x-freertos-debug/obj/ipc_parser.o
                                       0x14ea (size before relaxing)
 .debug_str     0x0000000000007d03      0x150 /home/vboxuser/topst/cr5-bsp/sources/build/tcc805x/gcc/tcc805x-freertos-debug/obj/ipc_api.o
                                       0x1986 (size before relaxing)
 .debug_str     0x0000000000007e53       0x90 /home/vboxuser/topst/cr5-bsp/sources/build/tcc805x/gcc/tcc805x-freertos-debug/obj/ipc.o
                                       0x143c (size before relaxing)
 .debug_str     0x0000000000007ee3      0x1b1 /home/vboxuser/topst/cr5-bsp/sources/build/tcc805x/gcc/tcc805x-freertos-debug/obj/lin.o
                                       0x143e (size before relaxing)
 .debug_str     0x0000000000008094      0x163 /home/vboxuser/topst/cr5-bsp/sources/build/tcc805x/gcc/tcc805x-freertos-debug/obj/sdm.o
                                       0x1580 (size before relaxing)
 .debug_str     0x00000000000081f7      0x231 /home/vboxuser/topst/cr5-bsp/sources/build/tcc805x/gcc/tcc805x-freertos-debug/obj/hsm_manager.o
                                       0x19f4 (size before relaxing)
 .debug_str     0x0000000000008428      0x342 /home/vboxuser/topst/cr5-bsp/sources/build/tcc805x/gcc/tcc805x-freertos-debug/obj/adc.o
                                       0x1bc8 (size before relaxing)
 .debug_str     0x000000000000876a     0x2051 /home/vboxuser/topst/cr5-bsp/sources/build/tcc805x/gcc/tcc805x-freertos-debug/obj/can.o
                                       0x3797 (size before relaxing)
 .debug_str     0x000000000000a7bb      0x811 /home/vboxuser/topst/cr5-bsp/sources/build/tcc805x/gcc/tcc805x-freertos-debug/obj/can_drv.o
                                       0x3c6c (size before relaxing)
 .debug_str     0x000000000000afcc      0x7e6 /home/vboxuser/topst/cr5-bsp/sources/build/tcc805x/gcc/tcc805x-freertos-debug/obj/can_msg.o
                                       0x3d70 (size before relaxing)
 .debug_str     0x000000000000b7b2       0xcf /home/vboxuser/topst/cr5-bsp/sources/build/tcc805x/gcc/tcc805x-freertos-debug/obj/can_par.o
                                       0x1d26 (size before relaxing)
 .debug_str     0x000000000000b881      0x4b2 /home/vboxuser/topst/cr5-bsp/sources/build/tcc805x/gcc/tcc805x-freertos-debug/obj/can_porting.o
                                       0x4075 (size before relaxing)
 .debug_str     0x000000000000bd33      0xe73 /home/vboxuser/topst/cr5-bsp/sources/build/tcc805x/gcc/tcc805x-freertos-debug/obj/clock_dev.o
                                       0x2713 (size before relaxing)
 .debug_str     0x000000000000cba6      0x106 /home/vboxuser/topst/cr5-bsp/sources/build/tcc805x/gcc/tcc805x-freertos-debug/obj/debug.o
                                       0x134c (size before relaxing)
 .debug_str     0x000000000000ccac       0xa3 /home/vboxuser/topst/cr5-bsp/sources/build/tcc805x/gcc/tcc805x-freertos-debug/obj/bsp.o
                                       0x1438 (size before relaxing)
 .debug_str     0x000000000000cd4f      0x3aa /home/vboxuser/topst/cr5-bsp/sources/build/tcc805x/gcc/tcc805x-freertos-debug/obj/fmu.o
                                       0x242d (size before relaxing)
 .debug_str     0x000000000000d0f9      0x278 /home/vboxuser/topst/cr5-bsp/sources/build/tcc805x/gcc/tcc805x-freertos-debug/obj/gdma.o
                                       0x203f (size before relaxing)
 .debug_str     0x000000000000d371      0x407 /home/vboxuser/topst/cr5-bsp/sources/build/tcc805x/gcc/tcc805x-freertos-debug/obj/gic.o
                                       0x1b9e (size before relaxing)
 .debug_str     0x000000000000d778      0x119 /home/vboxuser/topst/cr5-bsp/sources/build/tcc805x/gcc/tcc805x-freertos-debug/obj/gpio.o
                                       0x1369 (size before relaxing)
 .debug_str     0x000000000000d891      0x283 /home/vboxuser/topst/cr5-bsp/sources/build/tcc805x/gcc/tcc805x-freertos-debug/obj/i2c.o
                                       0x1bec (size before relaxing)
 .debug_str     0x000000000000db14       0x47 /home/vboxuser/topst/cr5-bsp/sources/build/tcc805x/gcc/tcc805x-freertos-debug/obj/i2c_reg.o
                                       0x1c2b (size before relaxing)
 .debug_str     0x000000000000db5b      0x392 /home/vboxuser/topst/cr5-bsp/sources/build/tcc805x/gcc/tcc805x-freertos-debug/obj/ictc.o
                                       0x1daa (size before relaxing)
 .debug_str     0x000000000000deed      0x743 /home/vboxuser/topst/cr5-bsp/sources/build/tcc805x/gcc/tcc805x-freertos-debug/obj/mbox_phy.o
                                       0x203b (size before relaxing)
 .debug_str     0x000000000000e630      0x43b /home/vboxuser/topst/cr5-bsp/sources/build/tcc805x/gcc/tcc805x-freertos-debug/obj/mbox_dev.o
                                       0x20df (size before relaxing)
 .debug_str     0x000000000000ea6b       0xd6 /home/vboxuser/topst/cr5-bsp/sources/build/tcc805x/gcc/tcc805x-freertos-debug/obj/mbox.o
                                       0x1952 (size before relaxing)
 .debug_str     0x000000000000eb41      0x133 /home/vboxuser/topst/cr5-bsp/sources/build/tcc805x/gcc/tcc805x-freertos-debug/obj/mpu.o
                                       0x1380 (size before relaxing)
 .debug_str     0x000000000000ec74      0x650 /home/vboxuser/topst/cr5-bsp/sources/build/tcc805x/gcc/tcc805x-freertos-debug/obj/pdm.o
                                       0x1f4f (size before relaxing)
 .debug_str     0x000000000000f2c4      0x87c /home/vboxuser/topst/cr5-bsp/sources/build/tcc805x/gcc/tcc805x-freertos-debug/obj/pmio_dev.o
                                       0x2721 (size before relaxing)
 .debug_str     0x000000000000fb40      0x59d /home/vboxuser/topst/cr5-bsp/sources/build/tcc805x/gcc/tcc805x-freertos-debug/obj/gpsb.o
                                       0x1f08 (size before relaxing)
 .debug_str     0x00000000000100dd       0x49 /home/vboxuser/topst/cr5-bsp/sources/build/tcc805x/gcc/tcc805x-freertos-debug/obj/gpsb_reg.o
                                       0x1bf0 (size before relaxing)
 .debug_str     0x0000000000010126      0x350 /home/vboxuser/topst/cr5-bsp/sources/build/tcc805x/gcc/tcc805x-freertos-debug/obj/timer.o
                                       0x1f68 (size before relaxing)
 .debug_str     0x0000000000010476      0x644 /home/vboxuser/topst/cr5-bsp/sources/build/tcc805x/gcc/tcc805x-freertos-debug/obj/uart.o
                                       0x27af (size before relaxing)
 .debug_str     0x0000000000010aba      0x287 /home/vboxuser/topst/cr5-bsp/sources/build/tcc805x/gcc/tcc805x-freertos-debug/obj/udma.o
                                       0x209c (size before relaxing)
 .debug_str     0x0000000000010d41      0x219 /home/vboxuser/topst/cr5-bsp/sources/build/tcc805x/gcc/tcc805x-freertos-debug/obj/wdt.o
                                       0x1e1a (size before relaxing)
 .debug_str     0x0000000000010f5a      0x1d2 /home/vboxuser/topst/cr5-bsp/sources/build/tcc805x/gcc/tcc805x-freertos-debug/obj/dse.o
                                       0x1987 (size before relaxing)
 .debug_str     0x000000000001112c      0x1be /home/vboxuser/topst/cr5-bsp/sources/build/tcc805x/gcc/tcc805x-freertos-debug/obj/midf.o
                                       0x1764 (size before relaxing)
 .debug_str     0x00000000000112ea      0x148 /home/vboxuser/topst/cr5-bsp/sources/build/tcc805x/gcc/tcc805x-freertos-debug/obj/pmu_reset.o
                                       0x18e7 (size before relaxing)
 .debug_str     0x0000000000011432      0xdf4 /home/vboxuser/topst/cr5-bsp/sources/build/tcc805x/gcc/tcc805x-freertos-debug/obj/tasks.o
                                       0x1414 (size before relaxing)
 .debug_str     0x0000000000012226       0xc5 /home/vboxuser/topst/cr5-bsp/sources/build/tcc805x/gcc/tcc805x-freertos-debug/obj/list.o
                                        0x6e4 (size before relaxing)
 .debug_str     0x00000000000122eb      0x7c8 /home/vboxuser/topst/cr5-bsp/sources/build/tcc805x/gcc/tcc805x-freertos-debug/obj/queue.o
                                        0xf68 (size before relaxing)
 .debug_str     0x0000000000012ab3      0x2c3 /home/vboxuser/topst/cr5-bsp/sources/build/tcc805x/gcc/tcc805x-freertos-debug/obj/event_groups.o
                                        0x9ff (size before relaxing)
 .debug_str     0x0000000000012d76      0x584 /home/vboxuser/topst/cr5-bsp/sources/build/tcc805x/gcc/tcc805x-freertos-debug/obj/timers.o
                                        0xe48 (size before relaxing)
 .debug_str     0x00000000000132fa      0x4b1 /home/vboxuser/topst/cr5-bsp/sources/build/tcc805x/gcc/tcc805x-freertos-debug/obj/stream_buffer.o
                                        0xb98 (size before relaxing)
 .debug_str     0x00000000000137ab      0x406 /home/vboxuser/topst/cr5-bsp/sources/build/tcc805x/gcc/tcc805x-freertos-debug/obj/port.o
                                       0x217f (size before relaxing)
 .debug_str     0x0000000000013bb1      0x322 /home/vboxuser/topst/cr5-bsp/sources/build/tcc805x/gcc/tcc805x-freertos-debug/obj/heap_5.o
                                        0x912 (size before relaxing)
 .debug_str     0x0000000000013ed3      0x103 /home/vboxuser/topst/cr5-bsp/sources/build/tcc805x/gcc/tcc805x-freertos-debug/obj/sal_api.o
                                       0x12fa (size before relaxing)
 .debug_str     0x0000000000013fd6      0x52f /home/vboxuser/topst/cr5-bsp/sources/build/tcc805x/gcc/tcc805x-freertos-debug/obj/sal_freertos_impl.o
                                       0x1e65 (size before relaxing)
 .debug_str     0x0000000000014505      0x1c3 /home/vboxuser/topst/buildtools/gcc-linaro-7.2.1-2017.11-x86_64_arm-eabi/arm-eabi/libc/usr/lib/libc.a(lib_a-atoi.o)
                                        0x641 (size before relaxing)
 .debug_str     0x00000000000146c8       0xb6 /home/vboxuser/topst/buildtools/gcc-linaro-7.2.1-2017.11-x86_64_arm-eabi/arm-eabi/libc/usr/lib/libc.a(lib_a-atol.o)
                                        0x641 (size before relaxing)
 .debug_str     0x000000000001477e      0x183 /home/vboxuser/topst/buildtools/gcc-linaro-7.2.1-2017.11-x86_64_arm-eabi/arm-eabi/libc/usr/lib/libc.a(lib_a-memcmp.o)
                                        0x629 (size before relaxing)
 .debug_str     0x0000000000014901      0x1b9 /home/vboxuser/topst/buildtools/gcc-linaro-7.2.1-2017.11-x86_64_arm-eabi/arm-eabi/libc/usr/lib/libc.a(lib_a-memcpy-stub.o)
                                        0x65f (size before relaxing)
 .debug_str     0x0000000000014aba      0x2fc /home/vboxuser/topst/buildtools/gcc-linaro-7.2.1-2017.11-x86_64_arm-eabi/arm-eabi/libc/usr/lib/libc.a(lib_a-memset.o)
                                        0x952 (size before relaxing)
 .debug_str     0x0000000000014db6      0x2c4 /home/vboxuser/topst/buildtools/gcc-linaro-7.2.1-2017.11-x86_64_arm-eabi/arm-eabi/libc/usr/lib/libc.a(lib_a-snprintf.o)
                                        0x7c6 (size before relaxing)
 .debug_str     0x000000000001507a       0xbc /home/vboxuser/topst/buildtools/gcc-linaro-7.2.1-2017.11-x86_64_arm-eabi/arm-eabi/libc/usr/lib/libc.a(lib_a-strlen-stub.o)
                                        0x638 (size before relaxing)
 .debug_str     0x0000000000015136       0xb4 /home/vboxuser/topst/buildtools/gcc-linaro-7.2.1-2017.11-x86_64_arm-eabi/arm-eabi/libc/usr/lib/libc.a(lib_a-strncmp.o)
                                        0x62b (size before relaxing)
 .debug_str     0x00000000000151ea       0xb4 /home/vboxuser/topst/buildtools/gcc-linaro-7.2.1-2017.11-x86_64_arm-eabi/arm-eabi/libc/usr/lib/libc.a(lib_a-strncpy.o)
                                        0x653 (size before relaxing)
 .debug_str     0x000000000001529e       0xb4 /home/vboxuser/topst/buildtools/gcc-linaro-7.2.1-2017.11-x86_64_arm-eabi/arm-eabi/libc/usr/lib/libc.a(lib_a-strnlen.o)
                                        0x631 (size before relaxing)
 .debug_str     0x0000000000015352      0x125 /home/vboxuser/topst/buildtools/gcc-linaro-7.2.1-2017.11-x86_64_arm-eabi/arm-eabi/libc/usr/lib/libc.a(lib_a-strtol.o)
                                        0x9f5 (size before relaxing)
 .debug_str     0x0000000000015477       0xca /home/vboxuser/topst/buildtools/gcc-linaro-7.2.1-2017.11-x86_64_arm-eabi/arm-eabi/libc/usr/lib/libc.a(lib_a-strtoul.o)
                                        0x9fa (size before relaxing)
 .debug_str     0x0000000000015541      0x49a /home/vboxuser/topst/buildtools/gcc-linaro-7.2.1-2017.11-x86_64_arm-eabi/arm-eabi/libc/usr/lib/libc.a(lib_a-svfprintf.o)
                                        0xfc2 (size before relaxing)
 .debug_str     0x00000000000159db       0xb4 /home/vboxuser/topst/buildtools/gcc-linaro-7.2.1-2017.11-x86_64_arm-eabi/arm-eabi/libc/usr/lib/libc.a(lib_a-wcrtomb.o)
                                        0x9c2 (size before relaxing)
 .debug_str     0x0000000000015a8f       0xc6 /home/vboxuser/topst/buildtools/gcc-linaro-7.2.1-2017.11-x86_64_arm-eabi/arm-eabi/libc/usr/lib/libc.a(lib_a-wcsrtombs.o)
                                        0x65c (size before relaxing)
 .debug_str     0x0000000000015b55      0x1dc /home/vboxuser/topst/buildtools/gcc-linaro-7.2.1-2017.11-x86_64_arm-eabi/arm-eabi/libc/usr/lib/libc.a(lib_a-dtoa.o)
                                        0xb2b (size before relaxing)
 .debug_str     0x0000000000015d31      0x218 /home/vboxuser/topst/buildtools/gcc-linaro-7.2.1-2017.11-x86_64_arm-eabi/arm-eabi/libc/usr/lib/libc.a(lib_a-freer.o)
                                        0x806 (size before relaxing)
 .debug_str     0x0000000000015f49      0x186 /home/vboxuser/topst/buildtools/gcc-linaro-7.2.1-2017.11-x86_64_arm-eabi/arm-eabi/libc/usr/lib/libc.a(lib_a-impure.o)
                                        0x625 (size before relaxing)
 .debug_str     0x00000000000160cf      0x2eb /home/vboxuser/topst/buildtools/gcc-linaro-7.2.1-2017.11-x86_64_arm-eabi/arm-eabi/libc/usr/lib/libc.a(lib_a-locale.o)
                                        0xb66 (size before relaxing)
 .debug_str     0x00000000000163ba       0xd8 /home/vboxuser/topst/buildtools/gcc-linaro-7.2.1-2017.11-x86_64_arm-eabi/arm-eabi/libc/usr/lib/libc.a(lib_a-localeconv.o)
                                        0x9c2 (size before relaxing)
 .debug_str     0x0000000000016492       0xb0 /home/vboxuser/topst/buildtools/gcc-linaro-7.2.1-2017.11-x86_64_arm-eabi/arm-eabi/libc/usr/lib/libc.a(lib_a-mallocr.o)
                                        0x88d (size before relaxing)
 .debug_str     0x0000000000016542      0x1d5 /home/vboxuser/topst/buildtools/gcc-linaro-7.2.1-2017.11-x86_64_arm-eabi/arm-eabi/libc/usr/lib/libc.a(lib_a-mbtowc_r.o)
                                        0xafe (size before relaxing)
 .debug_str     0x0000000000016717       0xc3 /home/vboxuser/topst/buildtools/gcc-linaro-7.2.1-2017.11-x86_64_arm-eabi/arm-eabi/libc/usr/lib/libc.a(lib_a-memchr-stub.o)
                                        0x652 (size before relaxing)
 .debug_str     0x00000000000167da       0xbf /home/vboxuser/topst/buildtools/gcc-linaro-7.2.1-2017.11-x86_64_arm-eabi/arm-eabi/libc/usr/lib/libc.a(lib_a-mlock.o)
                                        0x64d (size before relaxing)
 .debug_str     0x0000000000016899      0x104 /home/vboxuser/topst/buildtools/gcc-linaro-7.2.1-2017.11-x86_64_arm-eabi/arm-eabi/libc/usr/lib/libc.a(lib_a-mprec.o)
                                        0xad4 (size before relaxing)
 .debug_str     0x000000000001699d      0x1ba /home/vboxuser/topst/buildtools/gcc-linaro-7.2.1-2017.11-x86_64_arm-eabi/arm-eabi/libc/usr/lib/libc.a(lib_a-s_frexp.o)
                                        0x6d8 (size before relaxing)
 .debug_str     0x0000000000016b57       0xbe /home/vboxuser/topst/buildtools/gcc-linaro-7.2.1-2017.11-x86_64_arm-eabi/arm-eabi/libc/usr/lib/libc.a(lib_a-sbrkr.o)
                                        0x668 (size before relaxing)
 .debug_str     0x0000000000016c15       0xaf /home/vboxuser/topst/buildtools/gcc-linaro-7.2.1-2017.11-x86_64_arm-eabi/arm-eabi/libc/usr/lib/libc.a(lib_a-strcasecmp.o)
                                        0x645 (size before relaxing)
 .debug_str     0x0000000000016cc4       0xb6 /home/vboxuser/topst/buildtools/gcc-linaro-7.2.1-2017.11-x86_64_arm-eabi/arm-eabi/libc/usr/lib/libc.a(lib_a-strcat.o)
                                        0x634 (size before relaxing)
 .debug_str     0x0000000000016d7a       0xab /home/vboxuser/topst/buildtools/gcc-linaro-7.2.1-2017.11-x86_64_arm-eabi/arm-eabi/libc/usr/lib/libc.a(lib_a-strchr.o)
                                        0x634 (size before relaxing)
 .debug_str     0x0000000000016e25       0xb0 /home/vboxuser/topst/buildtools/gcc-linaro-7.2.1-2017.11-x86_64_arm-eabi/arm-eabi/libc/usr/lib/libc.a(lib_a-strcpy.o)
                                        0x62c (size before relaxing)
 .debug_str     0x0000000000016ed5       0xac /home/vboxuser/topst/buildtools/gcc-linaro-7.2.1-2017.11-x86_64_arm-eabi/arm-eabi/libc/usr/lib/libc.a(lib_a-strlcpy.o)
                                        0x62b (size before relaxing)
 .debug_str     0x0000000000016f81       0xb0 /home/vboxuser/topst/buildtools/gcc-linaro-7.2.1-2017.11-x86_64_arm-eabi/arm-eabi/libc/usr/lib/libc.a(lib_a-strncasecmp.o)
                                        0x64e (size before relaxing)
 .debug_str     0x0000000000017031       0x30 /home/vboxuser/topst/buildtools/gcc-linaro-7.2.1-2017.11-x86_64_arm-eabi/arm-eabi/libc/usr/lib/libc.a(lib_a-svfiprintf.o)
                                        0xf39 (size before relaxing)
 .debug_str     0x0000000000017061      0x47e /home/vboxuser/topst/buildtools/gcc-linaro-7.2.1-2017.11-x86_64_arm-eabi/arm-eabi/libc/usr/lib/libc.a(lib_a-syscalls.o)
                                        0xa33 (size before relaxing)
 .debug_str     0x00000000000174df       0xcd /home/vboxuser/topst/buildtools/gcc-linaro-7.2.1-2017.11-x86_64_arm-eabi/arm-eabi/libc/usr/lib/libc.a(lib_a-wcsnrtombs.o)
                                        0x9e2 (size before relaxing)
 .debug_str     0x00000000000175ac      0x111 /home/vboxuser/topst/buildtools/gcc-linaro-7.2.1-2017.11-x86_64_arm-eabi/arm-eabi/libc/usr/lib/libc.a(lib_a-wctomb_r.o)
                                        0xa13 (size before relaxing)
 .debug_str     0x00000000000176bd        0xf /home/vboxuser/topst/buildtools/gcc-linaro-7.2.1-2017.11-x86_64_arm-eabi/arm-eabi/libc/usr/lib/libc.a(lib_a-callocr.o)
                                        0x7b1 (size before relaxing)
 .debug_str     0x00000000000176cc      0x17a /home/vboxuser/topst/buildtools/gcc-linaro-7.2.1-2017.11-x86_64_arm-eabi/arm-eabi/libc/usr/lib/libc.a(lib_a-ctype_.o)
                                        0x951 (size before relaxing)
 .debug_str     0x0000000000017846      0x179 /home/vboxuser/topst/buildtools/gcc-linaro-7.2.1-2017.11-x86_64_arm-eabi/arm-eabi/libc/usr/lib/libc.a(lib_a-errno.o)
                                        0x637 (size before relaxing)
 .debug_str     0x00000000000179bf      0x194 /home/vboxuser/topst/buildtools/gcc-linaro-7.2.1-2017.11-x86_64_arm-eabi/arm-eabi/libc/usr/lib/libc.a(lib_a-findfp.o)
                                        0x8b3 (size before relaxing)
 .debug_str     0x0000000000017b53       0xb8 /home/vboxuser/topst/buildtools/gcc-linaro-7.2.1-2017.11-x86_64_arm-eabi/arm-eabi/libc/usr/lib/libc.a(lib_a-fwalk.o)
                                        0x79b (size before relaxing)
 .debug_str     0x0000000000017c0b       0xda /home/vboxuser/topst/buildtools/gcc-linaro-7.2.1-2017.11-x86_64_arm-eabi/arm-eabi/libc/usr/lib/libc.a(lib_a-getenv_r.o)
                                        0x684 (size before relaxing)
 .debug_str     0x0000000000017ce5       0xb5 /home/vboxuser/topst/buildtools/gcc-linaro-7.2.1-2017.11-x86_64_arm-eabi/arm-eabi/libc/usr/lib/libc.a(lib_a-memmove.o)
                                        0x971 (size before relaxing)
 .debug_str     0x0000000000017d9a       0x49 /home/vboxuser/topst/buildtools/gcc-linaro-7.2.1-2017.11-x86_64_arm-eabi/arm-eabi/libc/usr/lib/libc.a(lib_a-reallocr.o)
                                        0x844 (size before relaxing)
 .debug_str     0x0000000000017de3       0xd5 /home/vboxuser/topst/buildtools/gcc-linaro-7.2.1-2017.11-x86_64_arm-eabi/arm-eabi/libc/usr/lib/libc.a(lib_a-reent.o)
                                        0x661 (size before relaxing)
 .debug_str     0x0000000000017eb8      0x109 /home/vboxuser/topst/buildtools/gcc-linaro-7.2.1-2017.11-x86_64_arm-eabi/arm-eabi/libc/usr/lib/libc.a(lib_a-stdio.o)
                                        0x7ef (size before relaxing)
 .debug_str     0x0000000000017fc1       0xaa /home/vboxuser/topst/buildtools/gcc-linaro-7.2.1-2017.11-x86_64_arm-eabi/arm-eabi/libc/usr/lib/libc.a(lib_a-writer.o)
                                        0x665 (size before relaxing)
 .debug_str     0x000000000001806b       0xaa /home/vboxuser/topst/buildtools/gcc-linaro-7.2.1-2017.11-x86_64_arm-eabi/arm-eabi/libc/usr/lib/libc.a(lib_a-closer.o)
                                        0x655 (size before relaxing)
 .debug_str     0x0000000000018115       0xb8 /home/vboxuser/topst/buildtools/gcc-linaro-7.2.1-2017.11-x86_64_arm-eabi/arm-eabi/libc/usr/lib/libc.a(lib_a-environ.o)
                                        0x1ce (size before relaxing)
 .debug_str     0x00000000000181cd       0xbe /home/vboxuser/topst/buildtools/gcc-linaro-7.2.1-2017.11-x86_64_arm-eabi/arm-eabi/libc/usr/lib/libc.a(lib_a-envlock.o)
                                        0x646 (size before relaxing)
 .debug_str     0x000000000001828b       0xd6 /home/vboxuser/topst/buildtools/gcc-linaro-7.2.1-2017.11-x86_64_arm-eabi/arm-eabi/libc/usr/lib/libc.a(lib_a-fclose.o)
                                        0x7c0 (size before relaxing)
 .debug_str     0x0000000000018361       0xcc /home/vboxuser/topst/buildtools/gcc-linaro-7.2.1-2017.11-x86_64_arm-eabi/arm-eabi/libc/usr/lib/libc.a(lib_a-fflush.o)
                                        0x7d7 (size before relaxing)
 .debug_str     0x000000000001842d       0xaa /home/vboxuser/topst/buildtools/gcc-linaro-7.2.1-2017.11-x86_64_arm-eabi/arm-eabi/libc/usr/lib/libc.a(lib_a-lseekr.o)
                                        0x663 (size before relaxing)
 .debug_str     0x00000000000184d7       0xa9 /home/vboxuser/topst/buildtools/gcc-linaro-7.2.1-2017.11-x86_64_arm-eabi/arm-eabi/libc/usr/lib/libc.a(lib_a-readr.o)
                                        0x663 (size before relaxing)
 .debug_str     0x0000000000018580     0x13b8 /home/vboxuser/topst/buildtools/gcc-linaro-7.2.1-2017.11-x86_64_arm-eabi/arm-eabi/libc/usr/lib/libgcc.a(_udivmoddi4.o)
                                       0x18a8 (size before relaxing)

.comment        0x0000000000000000       0x2d
 .comment       0x0000000000000000       0x2d /home/vboxuser/topst/cr5-bsp/sources/build/tcc805x/gcc/tcc805x-freertos-debug/obj/main.o
                                         0x2e (size before relaxing)
 .comment       0x000000000000002d       0x2e /home/vboxuser/topst/cr5-bsp/sources/build/tcc805x/gcc/tcc805x-freertos-debug/obj/can_demo.o
 .comment       0x000000000000002d       0x2e /home/vboxuser/topst/cr5-bsp/sources/build/tcc805x/gcc/tcc805x-freertos-debug/obj/console.o
 .comment       0x000000000000002d       0x2e /home/vboxuser/topst/cr5-bsp/sources/build/tcc805x/gcc/tcc805x-freertos-debug/obj/fwug.o
 .comment       0x000000000000002d       0x2e /home/vboxuser/topst/cr5-bsp/sources/build/tcc805x/gcc/tcc805x-freertos-debug/obj/key_adc.o
 .comment       0x000000000000002d       0x2e /home/vboxuser/topst/cr5-bsp/sources/build/tcc805x/gcc/tcc805x-freertos-debug/obj/key_gpio.o
 .comment       0x000000000000002d       0x2e /home/vboxuser/topst/cr5-bsp/sources/build/tcc805x/gcc/tcc805x-freertos-debug/obj/key_i2c.o
 .comment       0x000000000000002d       0x2e /home/vboxuser/topst/cr5-bsp/sources/build/tcc805x/gcc/tcc805x-freertos-debug/obj/key.o
 .comment       0x000000000000002d       0x2e /home/vboxuser/topst/cr5-bsp/sources/build/tcc805x/gcc/tcc805x-freertos-debug/obj/system_monitoring.o
 .comment       0x000000000000002d       0x2e /home/vboxuser/topst/cr5-bsp/sources/build/tcc805x/gcc/tcc805x-freertos-debug/obj/bootctrl.o
 .comment       0x000000000000002d       0x2e /home/vboxuser/topst/cr5-bsp/sources/build/tcc805x/gcc/tcc805x-freertos-debug/obj/reset_demo.o
 .comment       0x000000000000002d       0x2e /home/vboxuser/topst/cr5-bsp/sources/build/tcc805x/gcc/tcc805x-freertos-debug/obj/adc_test.o
 .comment       0x000000000000002d       0x2e /home/vboxuser/topst/cr5-bsp/sources/build/tcc805x/gcc/tcc805x-freertos-debug/obj/dse_test.o
 .comment       0x000000000000002d       0x2e /home/vboxuser/topst/cr5-bsp/sources/build/tcc805x/gcc/tcc805x-freertos-debug/obj/fmu_test.o
 .comment       0x000000000000002d       0x2e /home/vboxuser/topst/cr5-bsp/sources/build/tcc805x/gcc/tcc805x-freertos-debug/obj/gdma_test.o
 .comment       0x000000000000002d       0x2e /home/vboxuser/topst/cr5-bsp/sources/build/tcc805x/gcc/tcc805x-freertos-debug/obj/gic_test.o
 .comment       0x000000000000002d       0x2e /home/vboxuser/topst/cr5-bsp/sources/build/tcc805x/gcc/tcc805x-freertos-debug/obj/gpio_test.o
 .comment       0x000000000000002d       0x2e /home/vboxuser/topst/cr5-bsp/sources/build/tcc805x/gcc/tcc805x-freertos-debug/obj/gpsb_test.o
 .comment       0x000000000000002d       0x2e /home/vboxuser/topst/cr5-bsp/sources/build/tcc805x/gcc/tcc805x-freertos-debug/obj/hsm_test.o
 .comment       0x000000000000002d       0x2e /home/vboxuser/topst/cr5-bsp/sources/build/tcc805x/gcc/tcc805x-freertos-debug/obj/i2c_test.o
 .comment       0x000000000000002d       0x2e /home/vboxuser/topst/cr5-bsp/sources/build/tcc805x/gcc/tcc805x-freertos-debug/obj/ictc_test.o
 .comment       0x000000000000002d       0x2e /home/vboxuser/topst/cr5-bsp/sources/build/tcc805x/gcc/tcc805x-freertos-debug/obj/lin_test.o
 .comment       0x000000000000002d       0x2e /home/vboxuser/topst/cr5-bsp/sources/build/tcc805x/gcc/tcc805x-freertos-debug/obj/pdm_test.o
 .comment       0x000000000000002d       0x2e /home/vboxuser/topst/cr5-bsp/sources/build/tcc805x/gcc/tcc805x-freertos-debug/obj/pmio_test.o
 .comment       0x000000000000002d       0x2e /home/vboxuser/topst/cr5-bsp/sources/build/tcc805x/gcc/tcc805x-freertos-debug/obj/timer_test.o
 .comment       0x000000000000002d       0x2e /home/vboxuser/topst/cr5-bsp/sources/build/tcc805x/gcc/tcc805x-freertos-debug/obj/wdt_test.o
 .comment       0x000000000000002d       0x2e /home/vboxuser/topst/cr5-bsp/sources/build/tcc805x/gcc/tcc805x-freertos-debug/obj/pwm_test.o
 .comment       0x000000000000002d       0x2e /home/vboxuser/topst/cr5-bsp/sources/build/tcc805x/gcc/tcc805x-freertos-debug/obj/hap.o
 .comment       0x000000000000002d       0x2e /home/vboxuser/topst/cr5-bsp/sources/build/tcc805x/gcc/tcc805x-freertos-debug/obj/mptool.o
 .comment       0x000000000000002d       0x2e /home/vboxuser/topst/cr5-bsp/sources/build/tcc805x/gcc/tcc805x-freertos-debug/obj/ipc_os.o
 .comment       0x000000000000002d       0x2e /home/vboxuser/topst/cr5-bsp/sources/build/tcc805x/gcc/tcc805x-freertos-debug/obj/ipc_buffer.o
 .comment       0x000000000000002d       0x2e /home/vboxuser/topst/cr5-bsp/sources/build/tcc805x/gcc/tcc805x-freertos-debug/obj/ipc_cmd.o
 .comment       0x000000000000002d       0x2e /home/vboxuser/topst/cr5-bsp/sources/build/tcc805x/gcc/tcc805x-freertos-debug/obj/ipc_ctl.o
 .comment       0x000000000000002d       0x2e /home/vboxuser/topst/cr5-bsp/sources/build/tcc805x/gcc/tcc805x-freertos-debug/obj/ipc_parser.o
 .comment       0x000000000000002d       0x2e /home/vboxuser/topst/cr5-bsp/sources/build/tcc805x/gcc/tcc805x-freertos-debug/obj/ipc_api.o
 .comment       0x000000000000002d       0x2e /home/vboxuser/topst/cr5-bsp/sources/build/tcc805x/gcc/tcc805x-freertos-debug/obj/ipc.o
 .comment       0x000000000000002d       0x2e /home/vboxuser/topst/cr5-bsp/sources/build/tcc805x/gcc/tcc805x-freertos-debug/obj/lin.o
 .comment       0x000000000000002d       0x2e /home/vboxuser/topst/cr5-bsp/sources/build/tcc805x/gcc/tcc805x-freertos-debug/obj/sdm.o
 .comment       0x000000000000002d       0x2e /home/vboxuser/topst/cr5-bsp/sources/build/tcc805x/gcc/tcc805x-freertos-debug/obj/hsm_manager.o
 .comment       0x000000000000002d       0x2e /home/vboxuser/topst/cr5-bsp/sources/build/tcc805x/gcc/tcc805x-freertos-debug/obj/adc.o
 .comment       0x000000000000002d       0x2e /home/vboxuser/topst/cr5-bsp/sources/build/tcc805x/gcc/tcc805x-freertos-debug/obj/can.o
 .comment       0x000000000000002d       0x2e /home/vboxuser/topst/cr5-bsp/sources/build/tcc805x/gcc/tcc805x-freertos-debug/obj/can_drv.o
 .comment       0x000000000000002d       0x2e /home/vboxuser/topst/cr5-bsp/sources/build/tcc805x/gcc/tcc805x-freertos-debug/obj/can_msg.o
 .comment       0x000000000000002d       0x2e /home/vboxuser/topst/cr5-bsp/sources/build/tcc805x/gcc/tcc805x-freertos-debug/obj/can_par.o
 .comment       0x000000000000002d       0x2e /home/vboxuser/topst/cr5-bsp/sources/build/tcc805x/gcc/tcc805x-freertos-debug/obj/can_porting.o
 .comment       0x000000000000002d       0x2e /home/vboxuser/topst/cr5-bsp/sources/build/tcc805x/gcc/tcc805x-freertos-debug/obj/clock_dev.o
 .comment       0x000000000000002d       0x2e /home/vboxuser/topst/cr5-bsp/sources/build/tcc805x/gcc/tcc805x-freertos-debug/obj/debug.o
 .comment       0x000000000000002d       0x2e /home/vboxuser/topst/cr5-bsp/sources/build/tcc805x/gcc/tcc805x-freertos-debug/obj/bsp.o
 .comment       0x000000000000002d       0x2e /home/vboxuser/topst/cr5-bsp/sources/build/tcc805x/gcc/tcc805x-freertos-debug/obj/fmu.o
 .comment       0x000000000000002d       0x2e /home/vboxuser/topst/cr5-bsp/sources/build/tcc805x/gcc/tcc805x-freertos-debug/obj/gdma.o
 .comment       0x000000000000002d       0x2e /home/vboxuser/topst/cr5-bsp/sources/build/tcc805x/gcc/tcc805x-freertos-debug/obj/gic.o
 .comment       0x000000000000002d       0x2e /home/vboxuser/topst/cr5-bsp/sources/build/tcc805x/gcc/tcc805x-freertos-debug/obj/gpio.o
 .comment       0x000000000000002d       0x2e /home/vboxuser/topst/cr5-bsp/sources/build/tcc805x/gcc/tcc805x-freertos-debug/obj/i2c.o
 .comment       0x000000000000002d       0x2e /home/vboxuser/topst/cr5-bsp/sources/build/tcc805x/gcc/tcc805x-freertos-debug/obj/i2c_reg.o
 .comment       0x000000000000002d       0x2e /home/vboxuser/topst/cr5-bsp/sources/build/tcc805x/gcc/tcc805x-freertos-debug/obj/ictc.o
 .comment       0x000000000000002d       0x2e /home/vboxuser/topst/cr5-bsp/sources/build/tcc805x/gcc/tcc805x-freertos-debug/obj/mbox_phy.o
 .comment       0x000000000000002d       0x2e /home/vboxuser/topst/cr5-bsp/sources/build/tcc805x/gcc/tcc805x-freertos-debug/obj/mbox_dev.o
 .comment       0x000000000000002d       0x2e /home/vboxuser/topst/cr5-bsp/sources/build/tcc805x/gcc/tcc805x-freertos-debug/obj/mbox.o
 .comment       0x000000000000002d       0x2e /home/vboxuser/topst/cr5-bsp/sources/build/tcc805x/gcc/tcc805x-freertos-debug/obj/mpu.o
 .comment       0x000000000000002d       0x2e /home/vboxuser/topst/cr5-bsp/sources/build/tcc805x/gcc/tcc805x-freertos-debug/obj/pdm.o
 .comment       0x000000000000002d       0x2e /home/vboxuser/topst/cr5-bsp/sources/build/tcc805x/gcc/tcc805x-freertos-debug/obj/pmio_dev.o
 .comment       0x000000000000002d       0x2e /home/vboxuser/topst/cr5-bsp/sources/build/tcc805x/gcc/tcc805x-freertos-debug/obj/gpsb.o
 .comment       0x000000000000002d       0x2e /home/vboxuser/topst/cr5-bsp/sources/build/tcc805x/gcc/tcc805x-freertos-debug/obj/gpsb_reg.o
 .comment       0x000000000000002d       0x2e /home/vboxuser/topst/cr5-bsp/sources/build/tcc805x/gcc/tcc805x-freertos-debug/obj/timer.o
 .comment       0x000000000000002d       0x2e /home/vboxuser/topst/cr5-bsp/sources/build/tcc805x/gcc/tcc805x-freertos-debug/obj/uart.o
 .comment       0x000000000000002d       0x2e /home/vboxuser/topst/cr5-bsp/sources/build/tcc805x/gcc/tcc805x-freertos-debug/obj/udma.o
 .comment       0x000000000000002d       0x2e /home/vboxuser/topst/cr5-bsp/sources/build/tcc805x/gcc/tcc805x-freertos-debug/obj/wdt.o
 .comment       0x000000000000002d       0x2e /home/vboxuser/topst/cr5-bsp/sources/build/tcc805x/gcc/tcc805x-freertos-debug/obj/dse.o
 .comment       0x000000000000002d       0x2e /home/vboxuser/topst/cr5-bsp/sources/build/tcc805x/gcc/tcc805x-freertos-debug/obj/midf.o
 .comment       0x000000000000002d       0x2e /home/vboxuser/topst/cr5-bsp/sources/build/tcc805x/gcc/tcc805x-freertos-debug/obj/pmu_reset.o
 .comment       0x000000000000002d       0x2e /home/vboxuser/topst/cr5-bsp/sources/build/tcc805x/gcc/tcc805x-freertos-debug/obj/tasks.o
 .comment       0x000000000000002d       0x2e /home/vboxuser/topst/cr5-bsp/sources/build/tcc805x/gcc/tcc805x-freertos-debug/obj/list.o
 .comment       0x000000000000002d       0x2e /home/vboxuser/topst/cr5-bsp/sources/build/tcc805x/gcc/tcc805x-freertos-debug/obj/queue.o
 .comment       0x000000000000002d       0x2e /home/vboxuser/topst/cr5-bsp/sources/build/tcc805x/gcc/tcc805x-freertos-debug/obj/event_groups.o
 .comment       0x000000000000002d       0x2e /home/vboxuser/topst/cr5-bsp/sources/build/tcc805x/gcc/tcc805x-freertos-debug/obj/timers.o
 .comment       0x000000000000002d       0x2e /home/vboxuser/topst/cr5-bsp/sources/build/tcc805x/gcc/tcc805x-freertos-debug/obj/stream_buffer.o
 .comment       0x000000000000002d       0x2e /home/vboxuser/topst/cr5-bsp/sources/build/tcc805x/gcc/tcc805x-freertos-debug/obj/port.o
 .comment       0x000000000000002d       0x2e /home/vboxuser/topst/cr5-bsp/sources/build/tcc805x/gcc/tcc805x-freertos-debug/obj/heap_5.o
 .comment       0x000000000000002d       0x2e /home/vboxuser/topst/cr5-bsp/sources/build/tcc805x/gcc/tcc805x-freertos-debug/obj/sal_api.o
 .comment       0x000000000000002d       0x2e /home/vboxuser/topst/cr5-bsp/sources/build/tcc805x/gcc/tcc805x-freertos-debug/obj/sal_freertos_impl.o
 .comment       0x000000000000002d       0x2e /home/vboxuser/topst/buildtools/gcc-linaro-7.2.1-2017.11-x86_64_arm-eabi/arm-eabi/libc/usr/lib/libc.a(lib_a-atoi.o)
 .comment       0x000000000000002d       0x2e /home/vboxuser/topst/buildtools/gcc-linaro-7.2.1-2017.11-x86_64_arm-eabi/arm-eabi/libc/usr/lib/libc.a(lib_a-atol.o)
 .comment       0x000000000000002d       0x2e /home/vboxuser/topst/buildtools/gcc-linaro-7.2.1-2017.11-x86_64_arm-eabi/arm-eabi/libc/usr/lib/libc.a(lib_a-memcmp.o)
 .comment       0x000000000000002d       0x2e /home/vboxuser/topst/buildtools/gcc-linaro-7.2.1-2017.11-x86_64_arm-eabi/arm-eabi/libc/usr/lib/libc.a(lib_a-memcpy-stub.o)
 .comment       0x000000000000002d       0x2e /home/vboxuser/topst/buildtools/gcc-linaro-7.2.1-2017.11-x86_64_arm-eabi/arm-eabi/libc/usr/lib/libc.a(lib_a-memset.o)
 .comment       0x000000000000002d       0x2e /home/vboxuser/topst/buildtools/gcc-linaro-7.2.1-2017.11-x86_64_arm-eabi/arm-eabi/libc/usr/lib/libc.a(lib_a-snprintf.o)
 .comment       0x000000000000002d       0x2e /home/vboxuser/topst/buildtools/gcc-linaro-7.2.1-2017.11-x86_64_arm-eabi/arm-eabi/libc/usr/lib/libc.a(lib_a-strlen-stub.o)
 .comment       0x000000000000002d       0x2e /home/vboxuser/topst/buildtools/gcc-linaro-7.2.1-2017.11-x86_64_arm-eabi/arm-eabi/libc/usr/lib/libc.a(lib_a-strncmp.o)
 .comment       0x000000000000002d       0x2e /home/vboxuser/topst/buildtools/gcc-linaro-7.2.1-2017.11-x86_64_arm-eabi/arm-eabi/libc/usr/lib/libc.a(lib_a-strncpy.o)
 .comment       0x000000000000002d       0x2e /home/vboxuser/topst/buildtools/gcc-linaro-7.2.1-2017.11-x86_64_arm-eabi/arm-eabi/libc/usr/lib/libc.a(lib_a-strnlen.o)
 .comment       0x000000000000002d       0x2e /home/vboxuser/topst/buildtools/gcc-linaro-7.2.1-2017.11-x86_64_arm-eabi/arm-eabi/libc/usr/lib/libc.a(lib_a-strtol.o)
 .comment       0x000000000000002d       0x2e /home/vboxuser/topst/buildtools/gcc-linaro-7.2.1-2017.11-x86_64_arm-eabi/arm-eabi/libc/usr/lib/libc.a(lib_a-strtoul.o)
 .comment       0x000000000000002d       0x2e /home/vboxuser/topst/buildtools/gcc-linaro-7.2.1-2017.11-x86_64_arm-eabi/arm-eabi/libc/usr/lib/libc.a(lib_a-svfprintf.o)
 .comment       0x000000000000002d       0x2e /home/vboxuser/topst/buildtools/gcc-linaro-7.2.1-2017.11-x86_64_arm-eabi/arm-eabi/libc/usr/lib/libc.a(lib_a-wcrtomb.o)
 .comment       0x000000000000002d       0x2e /home/vboxuser/topst/buildtools/gcc-linaro-7.2.1-2017.11-x86_64_arm-eabi/arm-eabi/libc/usr/lib/libc.a(lib_a-wcsrtombs.o)
 .comment       0x000000000000002d       0x2e /home/vboxuser/topst/buildtools/gcc-linaro-7.2.1-2017.11-x86_64_arm-eabi/arm-eabi/libc/usr/lib/libc.a(lib_a-dtoa.o)
 .comment       0x000000000000002d       0x2e /home/vboxuser/topst/buildtools/gcc-linaro-7.2.1-2017.11-x86_64_arm-eabi/arm-eabi/libc/usr/lib/libc.a(lib_a-freer.o)
 .comment       0x000000000000002d       0x2e /home/vboxuser/topst/buildtools/gcc-linaro-7.2.1-2017.11-x86_64_arm-eabi/arm-eabi/libc/usr/lib/libc.a(lib_a-impure.o)
 .comment       0x000000000000002d       0x2e /home/vboxuser/topst/buildtools/gcc-linaro-7.2.1-2017.11-x86_64_arm-eabi/arm-eabi/libc/usr/lib/libc.a(lib_a-locale.o)
 .comment       0x000000000000002d       0x2e /home/vboxuser/topst/buildtools/gcc-linaro-7.2.1-2017.11-x86_64_arm-eabi/arm-eabi/libc/usr/lib/libc.a(lib_a-localeconv.o)
 .comment       0x000000000000002d       0x2e /home/vboxuser/topst/buildtools/gcc-linaro-7.2.1-2017.11-x86_64_arm-eabi/arm-eabi/libc/usr/lib/libc.a(lib_a-mallocr.o)
 .comment       0x000000000000002d       0x2e /home/vboxuser/topst/buildtools/gcc-linaro-7.2.1-2017.11-x86_64_arm-eabi/arm-eabi/libc/usr/lib/libc.a(lib_a-mbtowc_r.o)
 .comment       0x000000000000002d       0x2e /home/vboxuser/topst/buildtools/gcc-linaro-7.2.1-2017.11-x86_64_arm-eabi/arm-eabi/libc/usr/lib/libc.a(lib_a-memchr-stub.o)
 .comment       0x000000000000002d       0x2e /home/vboxuser/topst/buildtools/gcc-linaro-7.2.1-2017.11-x86_64_arm-eabi/arm-eabi/libc/usr/lib/libc.a(lib_a-mlock.o)
 .comment       0x000000000000002d       0x2e /home/vboxuser/topst/buildtools/gcc-linaro-7.2.1-2017.11-x86_64_arm-eabi/arm-eabi/libc/usr/lib/libc.a(lib_a-mprec.o)
 .comment       0x000000000000002d       0x2e /home/vboxuser/topst/buildtools/gcc-linaro-7.2.1-2017.11-x86_64_arm-eabi/arm-eabi/libc/usr/lib/libc.a(lib_a-s_frexp.o)
 .comment       0x000000000000002d       0x2e /home/vboxuser/topst/buildtools/gcc-linaro-7.2.1-2017.11-x86_64_arm-eabi/arm-eabi/libc/usr/lib/libc.a(lib_a-sbrkr.o)
 .comment       0x000000000000002d       0x2e /home/vboxuser/topst/buildtools/gcc-linaro-7.2.1-2017.11-x86_64_arm-eabi/arm-eabi/libc/usr/lib/libc.a(lib_a-strcasecmp.o)
 .comment       0x000000000000002d       0x2e /home/vboxuser/topst/buildtools/gcc-linaro-7.2.1-2017.11-x86_64_arm-eabi/arm-eabi/libc/usr/lib/libc.a(lib_a-strcat.o)
 .comment       0x000000000000002d       0x2e /home/vboxuser/topst/buildtools/gcc-linaro-7.2.1-2017.11-x86_64_arm-eabi/arm-eabi/libc/usr/lib/libc.a(lib_a-strchr.o)
 .comment       0x000000000000002d       0x2e /home/vboxuser/topst/buildtools/gcc-linaro-7.2.1-2017.11-x86_64_arm-eabi/arm-eabi/libc/usr/lib/libc.a(lib_a-strcpy.o)
 .comment       0x000000000000002d       0x2e /home/vboxuser/topst/buildtools/gcc-linaro-7.2.1-2017.11-x86_64_arm-eabi/arm-eabi/libc/usr/lib/libc.a(lib_a-strlcpy.o)
 .comment       0x000000000000002d       0x2e /home/vboxuser/topst/buildtools/gcc-linaro-7.2.1-2017.11-x86_64_arm-eabi/arm-eabi/libc/usr/lib/libc.a(lib_a-strncasecmp.o)
 .comment       0x000000000000002d       0x2e /home/vboxuser/topst/buildtools/gcc-linaro-7.2.1-2017.11-x86_64_arm-eabi/arm-eabi/libc/usr/lib/libc.a(lib_a-svfiprintf.o)
 .comment       0x000000000000002d       0x2e /home/vboxuser/topst/buildtools/gcc-linaro-7.2.1-2017.11-x86_64_arm-eabi/arm-eabi/libc/usr/lib/libc.a(lib_a-syscalls.o)
 .comment       0x000000000000002d       0x2e /home/vboxuser/topst/buildtools/gcc-linaro-7.2.1-2017.11-x86_64_arm-eabi/arm-eabi/libc/usr/lib/libc.a(lib_a-wcsnrtombs.o)
 .comment       0x000000000000002d       0x2e /home/vboxuser/topst/buildtools/gcc-linaro-7.2.1-2017.11-x86_64_arm-eabi/arm-eabi/libc/usr/lib/libc.a(lib_a-wctomb_r.o)
 .comment       0x000000000000002d       0x2e /home/vboxuser/topst/buildtools/gcc-linaro-7.2.1-2017.11-x86_64_arm-eabi/arm-eabi/libc/usr/lib/libc.a(lib_a-callocr.o)
 .comment       0x000000000000002d       0x2e /home/vboxuser/topst/buildtools/gcc-linaro-7.2.1-2017.11-x86_64_arm-eabi/arm-eabi/libc/usr/lib/libc.a(lib_a-ctype_.o)
 .comment       0x000000000000002d       0x2e /home/vboxuser/topst/buildtools/gcc-linaro-7.2.1-2017.11-x86_64_arm-eabi/arm-eabi/libc/usr/lib/libc.a(lib_a-errno.o)
 .comment       0x000000000000002d       0x2e /home/vboxuser/topst/buildtools/gcc-linaro-7.2.1-2017.11-x86_64_arm-eabi/arm-eabi/libc/usr/lib/libc.a(lib_a-findfp.o)
 .comment       0x000000000000002d       0x2e /home/vboxuser/topst/buildtools/gcc-linaro-7.2.1-2017.11-x86_64_arm-eabi/arm-eabi/libc/usr/lib/libc.a(lib_a-fwalk.o)
 .comment       0x000000000000002d       0x2e /home/vboxuser/topst/buildtools/gcc-linaro-7.2.1-2017.11-x86_64_arm-eabi/arm-eabi/libc/usr/lib/libc.a(lib_a-getenv_r.o)
 .comment       0x000000000000002d       0x2e /home/vboxuser/topst/buildtools/gcc-linaro-7.2.1-2017.11-x86_64_arm-eabi/arm-eabi/libc/usr/lib/libc.a(lib_a-memmove.o)
 .comment       0x000000000000002d       0x2e /home/vboxuser/topst/buildtools/gcc-linaro-7.2.1-2017.11-x86_64_arm-eabi/arm-eabi/libc/usr/lib/libc.a(lib_a-reallocr.o)
 .comment       0x000000000000002d       0x2e /home/vboxuser/topst/buildtools/gcc-linaro-7.2.1-2017.11-x86_64_arm-eabi/arm-eabi/libc/usr/lib/libc.a(lib_a-reent.o)
 .comment       0x000000000000002d       0x2e /home/vboxuser/topst/buildtools/gcc-linaro-7.2.1-2017.11-x86_64_arm-eabi/arm-eabi/libc/usr/lib/libc.a(lib_a-stdio.o)
 .comment       0x000000000000002d       0x2e /home/vboxuser/topst/buildtools/gcc-linaro-7.2.1-2017.11-x86_64_arm-eabi/arm-eabi/libc/usr/lib/libc.a(lib_a-writer.o)
 .comment       0x000000000000002d       0x2e /home/vboxuser/topst/buildtools/gcc-linaro-7.2.1-2017.11-x86_64_arm-eabi/arm-eabi/libc/usr/lib/libc.a(lib_a-closer.o)
 .comment       0x000000000000002d       0x2e /home/vboxuser/topst/buildtools/gcc-linaro-7.2.1-2017.11-x86_64_arm-eabi/arm-eabi/libc/usr/lib/libc.a(lib_a-environ.o)
 .comment       0x000000000000002d       0x2e /home/vboxuser/topst/buildtools/gcc-linaro-7.2.1-2017.11-x86_64_arm-eabi/arm-eabi/libc/usr/lib/libc.a(lib_a-envlock.o)
 .comment       0x000000000000002d       0x2e /home/vboxuser/topst/buildtools/gcc-linaro-7.2.1-2017.11-x86_64_arm-eabi/arm-eabi/libc/usr/lib/libc.a(lib_a-fclose.o)
 .comment       0x000000000000002d       0x2e /home/vboxuser/topst/buildtools/gcc-linaro-7.2.1-2017.11-x86_64_arm-eabi/arm-eabi/libc/usr/lib/libc.a(lib_a-fflush.o)
 .comment       0x000000000000002d       0x2e /home/vboxuser/topst/buildtools/gcc-linaro-7.2.1-2017.11-x86_64_arm-eabi/arm-eabi/libc/usr/lib/libc.a(lib_a-lseekr.o)
 .comment       0x000000000000002d       0x2e /home/vboxuser/topst/buildtools/gcc-linaro-7.2.1-2017.11-x86_64_arm-eabi/arm-eabi/libc/usr/lib/libc.a(lib_a-readr.o)
 .comment       0x000000000000002d       0x2e /home/vboxuser/topst/buildtools/gcc-linaro-7.2.1-2017.11-x86_64_arm-eabi/arm-eabi/libc/usr/lib/libgcc.a(_udivmoddi4.o)

.ARM.attributes
                0x0000000000000000       0x35
 .ARM.attributes
                0x0000000000000000       0x37 /home/vboxuser/topst/cr5-bsp/sources/build/tcc805x/gcc/tcc805x-freertos-debug/obj/main.o
 .ARM.attributes
                0x0000000000000037       0x37 /home/vboxuser/topst/cr5-bsp/sources/build/tcc805x/gcc/tcc805x-freertos-debug/obj/can_demo.o
 .ARM.attributes
                0x000000000000006e       0x37 /home/vboxuser/topst/cr5-bsp/sources/build/tcc805x/gcc/tcc805x-freertos-debug/obj/console.o
 .ARM.attributes
                0x00000000000000a5       0x37 /home/vboxuser/topst/cr5-bsp/sources/build/tcc805x/gcc/tcc805x-freertos-debug/obj/fwug.o
 .ARM.attributes
                0x00000000000000dc       0x37 /home/vboxuser/topst/cr5-bsp/sources/build/tcc805x/gcc/tcc805x-freertos-debug/obj/key_adc.o
 .ARM.attributes
                0x0000000000000113       0x37 /home/vboxuser/topst/cr5-bsp/sources/build/tcc805x/gcc/tcc805x-freertos-debug/obj/key_gpio.o
 .ARM.attributes
                0x000000000000014a       0x37 /home/vboxuser/topst/cr5-bsp/sources/build/tcc805x/gcc/tcc805x-freertos-debug/obj/key_i2c.o
 .ARM.attributes
                0x0000000000000181       0x37 /home/vboxuser/topst/cr5-bsp/sources/build/tcc805x/gcc/tcc805x-freertos-debug/obj/key.o
 .ARM.attributes
                0x00000000000001b8       0x37 /home/vboxuser/topst/cr5-bsp/sources/build/tcc805x/gcc/tcc805x-freertos-debug/obj/system_monitoring.o
 .ARM.attributes
                0x00000000000001ef       0x37 /home/vboxuser/topst/cr5-bsp/sources/build/tcc805x/gcc/tcc805x-freertos-debug/obj/bootctrl.o
 .ARM.attributes
                0x0000000000000226       0x37 /home/vboxuser/topst/cr5-bsp/sources/build/tcc805x/gcc/tcc805x-freertos-debug/obj/reset_demo.o
 .ARM.attributes
                0x000000000000025d       0x37 /home/vboxuser/topst/cr5-bsp/sources/build/tcc805x/gcc/tcc805x-freertos-debug/obj/adc_test.o
 .ARM.attributes
                0x0000000000000294       0x37 /home/vboxuser/topst/cr5-bsp/sources/build/tcc805x/gcc/tcc805x-freertos-debug/obj/dse_test.o
 .ARM.attributes
                0x00000000000002cb       0x37 /home/vboxuser/topst/cr5-bsp/sources/build/tcc805x/gcc/tcc805x-freertos-debug/obj/fmu_test.o
 .ARM.attributes
                0x0000000000000302       0x37 /home/vboxuser/topst/cr5-bsp/sources/build/tcc805x/gcc/tcc805x-freertos-debug/obj/gdma_test.o
 .ARM.attributes
                0x0000000000000339       0x37 /home/vboxuser/topst/cr5-bsp/sources/build/tcc805x/gcc/tcc805x-freertos-debug/obj/gic_test.o
 .ARM.attributes
                0x0000000000000370       0x37 /home/vboxuser/topst/cr5-bsp/sources/build/tcc805x/gcc/tcc805x-freertos-debug/obj/gpio_test.o
 .ARM.attributes
                0x00000000000003a7       0x37 /home/vboxuser/topst/cr5-bsp/sources/build/tcc805x/gcc/tcc805x-freertos-debug/obj/gpsb_test.o
 .ARM.attributes
                0x00000000000003de       0x37 /home/vboxuser/topst/cr5-bsp/sources/build/tcc805x/gcc/tcc805x-freertos-debug/obj/hsm_test.o
 .ARM.attributes
                0x0000000000000415       0x37 /home/vboxuser/topst/cr5-bsp/sources/build/tcc805x/gcc/tcc805x-freertos-debug/obj/i2c_test.o
 .ARM.attributes
                0x000000000000044c       0x37 /home/vboxuser/topst/cr5-bsp/sources/build/tcc805x/gcc/tcc805x-freertos-debug/obj/ictc_test.o
 .ARM.attributes
                0x0000000000000483       0x37 /home/vboxuser/topst/cr5-bsp/sources/build/tcc805x/gcc/tcc805x-freertos-debug/obj/lin_test.o
 .ARM.attributes
                0x00000000000004ba       0x37 /home/vboxuser/topst/cr5-bsp/sources/build/tcc805x/gcc/tcc805x-freertos-debug/obj/pdm_test.o
 .ARM.attributes
                0x00000000000004f1       0x37 /home/vboxuser/topst/cr5-bsp/sources/build/tcc805x/gcc/tcc805x-freertos-debug/obj/pmio_test.o
 .ARM.attributes
                0x0000000000000528       0x37 /home/vboxuser/topst/cr5-bsp/sources/build/tcc805x/gcc/tcc805x-freertos-debug/obj/timer_test.o
 .ARM.attributes
                0x000000000000055f       0x37 /home/vboxuser/topst/cr5-bsp/sources/build/tcc805x/gcc/tcc805x-freertos-debug/obj/wdt_test.o
 .ARM.attributes
                0x0000000000000596       0x37 /home/vboxuser/topst/cr5-bsp/sources/build/tcc805x/gcc/tcc805x-freertos-debug/obj/pwm_test.o
 .ARM.attributes
                0x00000000000005cd       0x37 /home/vboxuser/topst/cr5-bsp/sources/build/tcc805x/gcc/tcc805x-freertos-debug/obj/hap.o
 .ARM.attributes
                0x0000000000000604       0x37 /home/vboxuser/topst/cr5-bsp/sources/build/tcc805x/gcc/tcc805x-freertos-debug/obj/mptool.o
 .ARM.attributes
                0x000000000000063b       0x37 /home/vboxuser/topst/cr5-bsp/sources/build/tcc805x/gcc/tcc805x-freertos-debug/obj/ipc_os.o
 .ARM.attributes
                0x0000000000000672       0x37 /home/vboxuser/topst/cr5-bsp/sources/build/tcc805x/gcc/tcc805x-freertos-debug/obj/ipc_buffer.o
 .ARM.attributes
                0x00000000000006a9       0x37 /home/vboxuser/topst/cr5-bsp/sources/build/tcc805x/gcc/tcc805x-freertos-debug/obj/ipc_cmd.o
 .ARM.attributes
                0x00000000000006e0       0x37 /home/vboxuser/topst/cr5-bsp/sources/build/tcc805x/gcc/tcc805x-freertos-debug/obj/ipc_ctl.o
 .ARM.attributes
                0x0000000000000717       0x37 /home/vboxuser/topst/cr5-bsp/sources/build/tcc805x/gcc/tcc805x-freertos-debug/obj/ipc_parser.o
 .ARM.attributes
                0x000000000000074e       0x37 /home/vboxuser/topst/cr5-bsp/sources/build/tcc805x/gcc/tcc805x-freertos-debug/obj/ipc_api.o
 .ARM.attributes
                0x0000000000000785       0x37 /home/vboxuser/topst/cr5-bsp/sources/build/tcc805x/gcc/tcc805x-freertos-debug/obj/ipc.o
 .ARM.attributes
                0x00000000000007bc       0x37 /home/vboxuser/topst/cr5-bsp/sources/build/tcc805x/gcc/tcc805x-freertos-debug/obj/lin.o
 .ARM.attributes
                0x00000000000007f3       0x37 /home/vboxuser/topst/cr5-bsp/sources/build/tcc805x/gcc/tcc805x-freertos-debug/obj/sdm.o
 .ARM.attributes
                0x000000000000082a       0x37 /home/vboxuser/topst/cr5-bsp/sources/build/tcc805x/gcc/tcc805x-freertos-debug/obj/hsm_manager.o
 .ARM.attributes
                0x0000000000000861       0x37 /home/vboxuser/topst/cr5-bsp/sources/build/tcc805x/gcc/tcc805x-freertos-debug/obj/adc.o
 .ARM.attributes
                0x0000000000000898       0x37 /home/vboxuser/topst/cr5-bsp/sources/build/tcc805x/gcc/tcc805x-freertos-debug/obj/can.o
 .ARM.attributes
                0x00000000000008cf       0x37 /home/vboxuser/topst/cr5-bsp/sources/build/tcc805x/gcc/tcc805x-freertos-debug/obj/can_drv.o
 .ARM.attributes
                0x0000000000000906       0x37 /home/vboxuser/topst/cr5-bsp/sources/build/tcc805x/gcc/tcc805x-freertos-debug/obj/can_msg.o
 .ARM.attributes
                0x000000000000093d       0x37 /home/vboxuser/topst/cr5-bsp/sources/build/tcc805x/gcc/tcc805x-freertos-debug/obj/can_par.o
 .ARM.attributes
                0x0000000000000974       0x37 /home/vboxuser/topst/cr5-bsp/sources/build/tcc805x/gcc/tcc805x-freertos-debug/obj/can_porting.o
 .ARM.attributes
                0x00000000000009ab       0x37 /home/vboxuser/topst/cr5-bsp/sources/build/tcc805x/gcc/tcc805x-freertos-debug/obj/clock_dev.o
 .ARM.attributes
                0x00000000000009e2       0x37 /home/vboxuser/topst/cr5-bsp/sources/build/tcc805x/gcc/tcc805x-freertos-debug/obj/debug.o
 .ARM.attributes
                0x0000000000000a19       0x37 /home/vboxuser/topst/cr5-bsp/sources/build/tcc805x/gcc/tcc805x-freertos-debug/obj/bsp.o
 .ARM.attributes
                0x0000000000000a50       0x37 /home/vboxuser/topst/cr5-bsp/sources/build/tcc805x/gcc/tcc805x-freertos-debug/obj/fmu.o
 .ARM.attributes
                0x0000000000000a87       0x37 /home/vboxuser/topst/cr5-bsp/sources/build/tcc805x/gcc/tcc805x-freertos-debug/obj/gdma.o
 .ARM.attributes
                0x0000000000000abe       0x37 /home/vboxuser/topst/cr5-bsp/sources/build/tcc805x/gcc/tcc805x-freertos-debug/obj/gic.o
 .ARM.attributes
                0x0000000000000af5       0x37 /home/vboxuser/topst/cr5-bsp/sources/build/tcc805x/gcc/tcc805x-freertos-debug/obj/gpio.o
 .ARM.attributes
                0x0000000000000b2c       0x37 /home/vboxuser/topst/cr5-bsp/sources/build/tcc805x/gcc/tcc805x-freertos-debug/obj/i2c.o
 .ARM.attributes
                0x0000000000000b63       0x37 /home/vboxuser/topst/cr5-bsp/sources/build/tcc805x/gcc/tcc805x-freertos-debug/obj/i2c_reg.o
 .ARM.attributes
                0x0000000000000b9a       0x37 /home/vboxuser/topst/cr5-bsp/sources/build/tcc805x/gcc/tcc805x-freertos-debug/obj/ictc.o
 .ARM.attributes
                0x0000000000000bd1       0x37 /home/vboxuser/topst/cr5-bsp/sources/build/tcc805x/gcc/tcc805x-freertos-debug/obj/mbox_phy.o
 .ARM.attributes
                0x0000000000000c08       0x37 /home/vboxuser/topst/cr5-bsp/sources/build/tcc805x/gcc/tcc805x-freertos-debug/obj/mbox_dev.o
 .ARM.attributes
                0x0000000000000c3f       0x37 /home/vboxuser/topst/cr5-bsp/sources/build/tcc805x/gcc/tcc805x-freertos-debug/obj/mbox.o
 .ARM.attributes
                0x0000000000000c76       0x37 /home/vboxuser/topst/cr5-bsp/sources/build/tcc805x/gcc/tcc805x-freertos-debug/obj/mpu.o
 .ARM.attributes
                0x0000000000000cad       0x37 /home/vboxuser/topst/cr5-bsp/sources/build/tcc805x/gcc/tcc805x-freertos-debug/obj/pdm.o
 .ARM.attributes
                0x0000000000000ce4       0x37 /home/vboxuser/topst/cr5-bsp/sources/build/tcc805x/gcc/tcc805x-freertos-debug/obj/pmio_dev.o
 .ARM.attributes
                0x0000000000000d1b       0x37 /home/vboxuser/topst/cr5-bsp/sources/build/tcc805x/gcc/tcc805x-freertos-debug/obj/gpsb.o
 .ARM.attributes
                0x0000000000000d52       0x37 /home/vboxuser/topst/cr5-bsp/sources/build/tcc805x/gcc/tcc805x-freertos-debug/obj/gpsb_reg.o
 .ARM.attributes
                0x0000000000000d89       0x37 /home/vboxuser/topst/cr5-bsp/sources/build/tcc805x/gcc/tcc805x-freertos-debug/obj/timer.o
 .ARM.attributes
                0x0000000000000dc0       0x37 /home/vboxuser/topst/cr5-bsp/sources/build/tcc805x/gcc/tcc805x-freertos-debug/obj/uart.o
 .ARM.attributes
                0x0000000000000df7       0x37 /home/vboxuser/topst/cr5-bsp/sources/build/tcc805x/gcc/tcc805x-freertos-debug/obj/udma.o
 .ARM.attributes
                0x0000000000000e2e       0x37 /home/vboxuser/topst/cr5-bsp/sources/build/tcc805x/gcc/tcc805x-freertos-debug/obj/wdt.o
 .ARM.attributes
                0x0000000000000e65       0x37 /home/vboxuser/topst/cr5-bsp/sources/build/tcc805x/gcc/tcc805x-freertos-debug/obj/dse.o
 .ARM.attributes
                0x0000000000000e9c       0x37 /home/vboxuser/topst/cr5-bsp/sources/build/tcc805x/gcc/tcc805x-freertos-debug/obj/midf.o
 .ARM.attributes
                0x0000000000000ed3       0x37 /home/vboxuser/topst/cr5-bsp/sources/build/tcc805x/gcc/tcc805x-freertos-debug/obj/pmu_reset.o
 .ARM.attributes
                0x0000000000000f0a       0x37 /home/vboxuser/topst/cr5-bsp/sources/build/tcc805x/gcc/tcc805x-freertos-debug/obj/tasks.o
 .ARM.attributes
                0x0000000000000f41       0x37 /home/vboxuser/topst/cr5-bsp/sources/build/tcc805x/gcc/tcc805x-freertos-debug/obj/list.o
 .ARM.attributes
                0x0000000000000f78       0x37 /home/vboxuser/topst/cr5-bsp/sources/build/tcc805x/gcc/tcc805x-freertos-debug/obj/queue.o
 .ARM.attributes
                0x0000000000000faf       0x37 /home/vboxuser/topst/cr5-bsp/sources/build/tcc805x/gcc/tcc805x-freertos-debug/obj/event_groups.o
 .ARM.attributes
                0x0000000000000fe6       0x37 /home/vboxuser/topst/cr5-bsp/sources/build/tcc805x/gcc/tcc805x-freertos-debug/obj/timers.o
 .ARM.attributes
                0x000000000000101d       0x37 /home/vboxuser/topst/cr5-bsp/sources/build/tcc805x/gcc/tcc805x-freertos-debug/obj/stream_buffer.o
 .ARM.attributes
                0x0000000000001054       0x37 /home/vboxuser/topst/cr5-bsp/sources/build/tcc805x/gcc/tcc805x-freertos-debug/obj/port.o
 .ARM.attributes
                0x000000000000108b       0x37 /home/vboxuser/topst/cr5-bsp/sources/build/tcc805x/gcc/tcc805x-freertos-debug/obj/heap_5.o
 .ARM.attributes
                0x00000000000010c2       0x37 /home/vboxuser/topst/cr5-bsp/sources/build/tcc805x/gcc/tcc805x-freertos-debug/obj/sal_api.o
 .ARM.attributes
                0x00000000000010f9       0x37 /home/vboxuser/topst/cr5-bsp/sources/build/tcc805x/gcc/tcc805x-freertos-debug/obj/sal_freertos_impl.o
 .ARM.attributes
                0x0000000000001130       0x25 /home/vboxuser/topst/cr5-bsp/sources/build/tcc805x/gcc/tcc805x-freertos-debug/obj/startup.o
 .ARM.attributes
                0x0000000000001155       0x25 /home/vboxuser/topst/cr5-bsp/sources/build/tcc805x/gcc/tcc805x-freertos-debug/obj/vector.o
 .ARM.attributes
                0x000000000000117a       0x25 /home/vboxuser/topst/cr5-bsp/sources/build/tcc805x/gcc/tcc805x-freertos-debug/obj/vfp_init.o
 .ARM.attributes
                0x000000000000119f       0x25 /home/vboxuser/topst/cr5-bsp/sources/build/tcc805x/gcc/tcc805x-freertos-debug/obj/arm_a.o
 .ARM.attributes
                0x00000000000011c4       0x25 /home/vboxuser/topst/cr5-bsp/sources/build/tcc805x/gcc/tcc805x-freertos-debug/obj/portASM.o
 .ARM.attributes
                0x00000000000011e9       0x25 /home/vboxuser/topst/cr5-bsp/sources/build/tcc805x/gcc/tcc805x-freertos-debug/obj/freertos.o
 .ARM.attributes
                0x000000000000120e       0x25 /home/vboxuser/topst/cr5-bsp/sources/build/tcc805x/gcc/tcc805x-freertos-debug/obj/sal.o
 .ARM.attributes
                0x0000000000001233       0x30 /home/vboxuser/topst/buildtools/gcc-linaro-7.2.1-2017.11-x86_64_arm-eabi/arm-eabi/libc/usr/lib/libc.a(lib_a-atoi.o)
 .ARM.attributes
                0x0000000000001263       0x30 /home/vboxuser/topst/buildtools/gcc-linaro-7.2.1-2017.11-x86_64_arm-eabi/arm-eabi/libc/usr/lib/libc.a(lib_a-atol.o)
 .ARM.attributes
                0x0000000000001293       0x30 /home/vboxuser/topst/buildtools/gcc-linaro-7.2.1-2017.11-x86_64_arm-eabi/arm-eabi/libc/usr/lib/libc.a(lib_a-memcmp.o)
 .ARM.attributes
                0x00000000000012c3       0x30 /home/vboxuser/topst/buildtools/gcc-linaro-7.2.1-2017.11-x86_64_arm-eabi/arm-eabi/libc/usr/lib/libc.a(lib_a-memcpy-stub.o)
 .ARM.attributes
                0x00000000000012f3       0x30 /home/vboxuser/topst/buildtools/gcc-linaro-7.2.1-2017.11-x86_64_arm-eabi/arm-eabi/libc/usr/lib/libc.a(lib_a-memset.o)
 .ARM.attributes
                0x0000000000001323       0x30 /home/vboxuser/topst/buildtools/gcc-linaro-7.2.1-2017.11-x86_64_arm-eabi/arm-eabi/libc/usr/lib/libc.a(lib_a-snprintf.o)
 .ARM.attributes
                0x0000000000001353       0x30 /home/vboxuser/topst/buildtools/gcc-linaro-7.2.1-2017.11-x86_64_arm-eabi/arm-eabi/libc/usr/lib/libc.a(lib_a-strlen-stub.o)
 .ARM.attributes
                0x0000000000001383       0x30 /home/vboxuser/topst/buildtools/gcc-linaro-7.2.1-2017.11-x86_64_arm-eabi/arm-eabi/libc/usr/lib/libc.a(lib_a-strncmp.o)
 .ARM.attributes
                0x00000000000013b3       0x30 /home/vboxuser/topst/buildtools/gcc-linaro-7.2.1-2017.11-x86_64_arm-eabi/arm-eabi/libc/usr/lib/libc.a(lib_a-strncpy.o)
 .ARM.attributes
                0x00000000000013e3       0x30 /home/vboxuser/topst/buildtools/gcc-linaro-7.2.1-2017.11-x86_64_arm-eabi/arm-eabi/libc/usr/lib/libc.a(lib_a-strnlen.o)
 .ARM.attributes
                0x0000000000001413       0x30 /home/vboxuser/topst/buildtools/gcc-linaro-7.2.1-2017.11-x86_64_arm-eabi/arm-eabi/libc/usr/lib/libc.a(lib_a-strtol.o)
 .ARM.attributes
                0x0000000000001443       0x30 /home/vboxuser/topst/buildtools/gcc-linaro-7.2.1-2017.11-x86_64_arm-eabi/arm-eabi/libc/usr/lib/libc.a(lib_a-strtoul.o)
 .ARM.attributes
                0x0000000000001473       0x30 /home/vboxuser/topst/buildtools/gcc-linaro-7.2.1-2017.11-x86_64_arm-eabi/arm-eabi/libc/usr/lib/libc.a(lib_a-svfprintf.o)
 .ARM.attributes
                0x00000000000014a3       0x30 /home/vboxuser/topst/buildtools/gcc-linaro-7.2.1-2017.11-x86_64_arm-eabi/arm-eabi/libc/usr/lib/libc.a(lib_a-wcrtomb.o)
 .ARM.attributes
                0x00000000000014d3       0x30 /home/vboxuser/topst/buildtools/gcc-linaro-7.2.1-2017.11-x86_64_arm-eabi/arm-eabi/libc/usr/lib/libc.a(lib_a-wcsrtombs.o)
 .ARM.attributes
                0x0000000000001503       0x30 /home/vboxuser/topst/buildtools/gcc-linaro-7.2.1-2017.11-x86_64_arm-eabi/arm-eabi/libc/usr/lib/libc.a(lib_a-dtoa.o)
 .ARM.attributes
                0x0000000000001533       0x30 /home/vboxuser/topst/buildtools/gcc-linaro-7.2.1-2017.11-x86_64_arm-eabi/arm-eabi/libc/usr/lib/libc.a(lib_a-freer.o)
 .ARM.attributes
                0x0000000000001563       0x30 /home/vboxuser/topst/buildtools/gcc-linaro-7.2.1-2017.11-x86_64_arm-eabi/arm-eabi/libc/usr/lib/libc.a(lib_a-impure.o)
 .ARM.attributes
                0x0000000000001593       0x30 /home/vboxuser/topst/buildtools/gcc-linaro-7.2.1-2017.11-x86_64_arm-eabi/arm-eabi/libc/usr/lib/libc.a(lib_a-locale.o)
 .ARM.attributes
                0x00000000000015c3       0x30 /home/vboxuser/topst/buildtools/gcc-linaro-7.2.1-2017.11-x86_64_arm-eabi/arm-eabi/libc/usr/lib/libc.a(lib_a-localeconv.o)
 .ARM.attributes
                0x00000000000015f3       0x30 /home/vboxuser/topst/buildtools/gcc-linaro-7.2.1-2017.11-x86_64_arm-eabi/arm-eabi/libc/usr/lib/libc.a(lib_a-mallocr.o)
 .ARM.attributes
                0x0000000000001623       0x30 /home/vboxuser/topst/buildtools/gcc-linaro-7.2.1-2017.11-x86_64_arm-eabi/arm-eabi/libc/usr/lib/libc.a(lib_a-mbtowc_r.o)
 .ARM.attributes
                0x0000000000001653       0x30 /home/vboxuser/topst/buildtools/gcc-linaro-7.2.1-2017.11-x86_64_arm-eabi/arm-eabi/libc/usr/lib/libc.a(lib_a-memchr-stub.o)
 .ARM.attributes
                0x0000000000001683       0x30 /home/vboxuser/topst/buildtools/gcc-linaro-7.2.1-2017.11-x86_64_arm-eabi/arm-eabi/libc/usr/lib/libc.a(lib_a-mlock.o)
 .ARM.attributes
                0x00000000000016b3       0x30 /home/vboxuser/topst/buildtools/gcc-linaro-7.2.1-2017.11-x86_64_arm-eabi/arm-eabi/libc/usr/lib/libc.a(lib_a-mprec.o)
 .ARM.attributes
                0x00000000000016e3       0x30 /home/vboxuser/topst/buildtools/gcc-linaro-7.2.1-2017.11-x86_64_arm-eabi/arm-eabi/libc/usr/lib/libc.a(lib_a-s_frexp.o)
 .ARM.attributes
                0x0000000000001713       0x30 /home/vboxuser/topst/buildtools/gcc-linaro-7.2.1-2017.11-x86_64_arm-eabi/arm-eabi/libc/usr/lib/libc.a(lib_a-sbrkr.o)
 .ARM.attributes
                0x0000000000001743       0x30 /home/vboxuser/topst/buildtools/gcc-linaro-7.2.1-2017.11-x86_64_arm-eabi/arm-eabi/libc/usr/lib/libc.a(lib_a-strcasecmp.o)
 .ARM.attributes
                0x0000000000001773       0x30 /home/vboxuser/topst/buildtools/gcc-linaro-7.2.1-2017.11-x86_64_arm-eabi/arm-eabi/libc/usr/lib/libc.a(lib_a-strcat.o)
 .ARM.attributes
                0x00000000000017a3       0x30 /home/vboxuser/topst/buildtools/gcc-linaro-7.2.1-2017.11-x86_64_arm-eabi/arm-eabi/libc/usr/lib/libc.a(lib_a-strchr.o)
 .ARM.attributes
                0x00000000000017d3       0x16 /home/vboxuser/topst/buildtools/gcc-linaro-7.2.1-2017.11-x86_64_arm-eabi/arm-eabi/libc/usr/lib/libc.a(lib_a-strcmp.o)
 .ARM.attributes
                0x00000000000017e9       0x30 /home/vboxuser/topst/buildtools/gcc-linaro-7.2.1-2017.11-x86_64_arm-eabi/arm-eabi/libc/usr/lib/libc.a(lib_a-strcpy.o)
 .ARM.attributes
                0x0000000000001819       0x30 /home/vboxuser/topst/buildtools/gcc-linaro-7.2.1-2017.11-x86_64_arm-eabi/arm-eabi/libc/usr/lib/libc.a(lib_a-strlcpy.o)
 .ARM.attributes
                0x0000000000001849       0x30 /home/vboxuser/topst/buildtools/gcc-linaro-7.2.1-2017.11-x86_64_arm-eabi/arm-eabi/libc/usr/lib/libc.a(lib_a-strncasecmp.o)
 .ARM.attributes
                0x0000000000001879       0x30 /home/vboxuser/topst/buildtools/gcc-linaro-7.2.1-2017.11-x86_64_arm-eabi/arm-eabi/libc/usr/lib/libc.a(lib_a-svfiprintf.o)
 .ARM.attributes
                0x00000000000018a9       0x30 /home/vboxuser/topst/buildtools/gcc-linaro-7.2.1-2017.11-x86_64_arm-eabi/arm-eabi/libc/usr/lib/libc.a(lib_a-syscalls.o)
 .ARM.attributes
                0x00000000000018d9       0x30 /home/vboxuser/topst/buildtools/gcc-linaro-7.2.1-2017.11-x86_64_arm-eabi/arm-eabi/libc/usr/lib/libc.a(lib_a-wcsnrtombs.o)
 .ARM.attributes
                0x0000000000001909       0x30 /home/vboxuser/topst/buildtools/gcc-linaro-7.2.1-2017.11-x86_64_arm-eabi/arm-eabi/libc/usr/lib/libc.a(lib_a-wctomb_r.o)
 .ARM.attributes
                0x0000000000001939       0x30 /home/vboxuser/topst/buildtools/gcc-linaro-7.2.1-2017.11-x86_64_arm-eabi/arm-eabi/libc/usr/lib/libc.a(lib_a-callocr.o)
 .ARM.attributes
                0x0000000000001969       0x30 /home/vboxuser/topst/buildtools/gcc-linaro-7.2.1-2017.11-x86_64_arm-eabi/arm-eabi/libc/usr/lib/libc.a(lib_a-ctype_.o)
 .ARM.attributes
                0x0000000000001999       0x30 /home/vboxuser/topst/buildtools/gcc-linaro-7.2.1-2017.11-x86_64_arm-eabi/arm-eabi/libc/usr/lib/libc.a(lib_a-errno.o)
 .ARM.attributes
                0x00000000000019c9       0x30 /home/vboxuser/topst/buildtools/gcc-linaro-7.2.1-2017.11-x86_64_arm-eabi/arm-eabi/libc/usr/lib/libc.a(lib_a-findfp.o)
 .ARM.attributes
                0x00000000000019f9       0x30 /home/vboxuser/topst/buildtools/gcc-linaro-7.2.1-2017.11-x86_64_arm-eabi/arm-eabi/libc/usr/lib/libc.a(lib_a-fwalk.o)
 .ARM.attributes
                0x0000000000001a29       0x30 /home/vboxuser/topst/buildtools/gcc-linaro-7.2.1-2017.11-x86_64_arm-eabi/arm-eabi/libc/usr/lib/libc.a(lib_a-getenv_r.o)
 .ARM.attributes
                0x0000000000001a59       0x30 /home/vboxuser/topst/buildtools/gcc-linaro-7.2.1-2017.11-x86_64_arm-eabi/arm-eabi/libc/usr/lib/libc.a(lib_a-memmove.o)
 .ARM.attributes
                0x0000000000001a89       0x30 /home/vboxuser/topst/buildtools/gcc-linaro-7.2.1-2017.11-x86_64_arm-eabi/arm-eabi/libc/usr/lib/libc.a(lib_a-reallocr.o)
 .ARM.attributes
                0x0000000000001ab9       0x30 /home/vboxuser/topst/buildtools/gcc-linaro-7.2.1-2017.11-x86_64_arm-eabi/arm-eabi/libc/usr/lib/libc.a(lib_a-reent.o)
 .ARM.attributes
                0x0000000000001ae9       0x30 /home/vboxuser/topst/buildtools/gcc-linaro-7.2.1-2017.11-x86_64_arm-eabi/arm-eabi/libc/usr/lib/libc.a(lib_a-stdio.o)
 .ARM.attributes
                0x0000000000001b19       0x30 /home/vboxuser/topst/buildtools/gcc-linaro-7.2.1-2017.11-x86_64_arm-eabi/arm-eabi/libc/usr/lib/libc.a(lib_a-writer.o)
 .ARM.attributes
                0x0000000000001b49       0x30 /home/vboxuser/topst/buildtools/gcc-linaro-7.2.1-2017.11-x86_64_arm-eabi/arm-eabi/libc/usr/lib/libc.a(lib_a-closer.o)
 .ARM.attributes
                0x0000000000001b79       0x30 /home/vboxuser/topst/buildtools/gcc-linaro-7.2.1-2017.11-x86_64_arm-eabi/arm-eabi/libc/usr/lib/libc.a(lib_a-environ.o)
 .ARM.attributes
                0x0000000000001ba9       0x30 /home/vboxuser/topst/buildtools/gcc-linaro-7.2.1-2017.11-x86_64_arm-eabi/arm-eabi/libc/usr/lib/libc.a(lib_a-envlock.o)
 .ARM.attributes
                0x0000000000001bd9       0x30 /home/vboxuser/topst/buildtools/gcc-linaro-7.2.1-2017.11-x86_64_arm-eabi/arm-eabi/libc/usr/lib/libc.a(lib_a-fclose.o)
 .ARM.attributes
                0x0000000000001c09       0x30 /home/vboxuser/topst/buildtools/gcc-linaro-7.2.1-2017.11-x86_64_arm-eabi/arm-eabi/libc/usr/lib/libc.a(lib_a-fflush.o)
 .ARM.attributes
                0x0000000000001c39       0x30 /home/vboxuser/topst/buildtools/gcc-linaro-7.2.1-2017.11-x86_64_arm-eabi/arm-eabi/libc/usr/lib/libc.a(lib_a-lseekr.o)
 .ARM.attributes
                0x0000000000001c69       0x30 /home/vboxuser/topst/buildtools/gcc-linaro-7.2.1-2017.11-x86_64_arm-eabi/arm-eabi/libc/usr/lib/libc.a(lib_a-readr.o)
 .ARM.attributes
                0x0000000000001c99       0x18 /home/vboxuser/topst/buildtools/gcc-linaro-7.2.1-2017.11-x86_64_arm-eabi/arm-eabi/libc/usr/lib/libgcc.a(_udivsi3.o)
 .ARM.attributes
                0x0000000000001cb1       0x18 /home/vboxuser/topst/buildtools/gcc-linaro-7.2.1-2017.11-x86_64_arm-eabi/arm-eabi/libc/usr/lib/libgcc.a(_dvmd_tls.o)
 .ARM.attributes
                0x0000000000001cc9       0x18 /home/vboxuser/topst/buildtools/gcc-linaro-7.2.1-2017.11-x86_64_arm-eabi/arm-eabi/libc/usr/lib/libgcc.a(_arm_addsubdf3.o)
 .ARM.attributes
                0x0000000000001ce1       0x18 /home/vboxuser/topst/buildtools/gcc-linaro-7.2.1-2017.11-x86_64_arm-eabi/arm-eabi/libc/usr/lib/libgcc.a(_arm_muldivdf3.o)
 .ARM.attributes
                0x0000000000001cf9       0x18 /home/vboxuser/topst/buildtools/gcc-linaro-7.2.1-2017.11-x86_64_arm-eabi/arm-eabi/libc/usr/lib/libgcc.a(_arm_cmpdf2.o)
 .ARM.attributes
                0x0000000000001d11       0x18 /home/vboxuser/topst/buildtools/gcc-linaro-7.2.1-2017.11-x86_64_arm-eabi/arm-eabi/libc/usr/lib/libgcc.a(_arm_unorddf2.o)
 .ARM.attributes
                0x0000000000001d29       0x18 /home/vboxuser/topst/buildtools/gcc-linaro-7.2.1-2017.11-x86_64_arm-eabi/arm-eabi/libc/usr/lib/libgcc.a(_arm_fixdfsi.o)
 .ARM.attributes
                0x0000000000001d41       0x18 /home/vboxuser/topst/buildtools/gcc-linaro-7.2.1-2017.11-x86_64_arm-eabi/arm-eabi/libc/usr/lib/libgcc.a(_arm_fixunsdfsi.o)
 .ARM.attributes
                0x0000000000001d59       0x18 /home/vboxuser/topst/buildtools/gcc-linaro-7.2.1-2017.11-x86_64_arm-eabi/arm-eabi/libc/usr/lib/libgcc.a(_arm_addsubsf3.o)
 .ARM.attributes
                0x0000000000001d71       0x18 /home/vboxuser/topst/buildtools/gcc-linaro-7.2.1-2017.11-x86_64_arm-eabi/arm-eabi/libc/usr/lib/libgcc.a(_arm_muldivsf3.o)
 .ARM.attributes
                0x0000000000001d89       0x18 /home/vboxuser/topst/buildtools/gcc-linaro-7.2.1-2017.11-x86_64_arm-eabi/arm-eabi/libc/usr/lib/libgcc.a(_arm_fixunssfsi.o)
 .ARM.attributes
                0x0000000000001da1       0x18 /home/vboxuser/topst/buildtools/gcc-linaro-7.2.1-2017.11-x86_64_arm-eabi/arm-eabi/libc/usr/lib/libgcc.a(_aeabi_uldivmod.o)
 .ARM.attributes
                0x0000000000001db9       0x30 /home/vboxuser/topst/buildtools/gcc-linaro-7.2.1-2017.11-x86_64_arm-eabi/arm-eabi/libc/usr/lib/libgcc.a(_udivmoddi4.o)
 .ARM.attributes
                0x0000000000001de9       0x18 /home/vboxuser/topst/buildtools/gcc-linaro-7.2.1-2017.11-x86_64_arm-eabi/arm-eabi/libc/usr/lib/libgcc.a(_clzdi2.o)
 .ARM.attributes
                0x0000000000001e01       0x18 /home/vboxuser/topst/buildtools/gcc-linaro-7.2.1-2017.11-x86_64_arm-eabi/arm-eabi/libc/usr/lib/libgcc.a(_clzsi2.o)

.debug_frame    0x0000000000000000     0xb54c
 .debug_frame   0x0000000000000000       0x88 /home/vboxuser/topst/cr5-bsp/sources/build/tcc805x/gcc/tcc805x-freertos-debug/obj/main.o
 .debug_frame   0x0000000000000088      0x17c /home/vboxuser/topst/cr5-bsp/sources/build/tcc805x/gcc/tcc805x-freertos-debug/obj/can_demo.o
 .debug_frame   0x0000000000000204      0x66c /home/vboxuser/topst/cr5-bsp/sources/build/tcc805x/gcc/tcc805x-freertos-debug/obj/console.o
 .debug_frame   0x0000000000000870       0x94 /home/vboxuser/topst/cr5-bsp/sources/build/tcc805x/gcc/tcc805x-freertos-debug/obj/fwug.o
 .debug_frame   0x0000000000000904       0x9c /home/vboxuser/topst/cr5-bsp/sources/build/tcc805x/gcc/tcc805x-freertos-debug/obj/key_adc.o
 .debug_frame   0x00000000000009a0       0xd0 /home/vboxuser/topst/cr5-bsp/sources/build/tcc805x/gcc/tcc805x-freertos-debug/obj/key_gpio.o
 .debug_frame   0x0000000000000a70       0xd4 /home/vboxuser/topst/cr5-bsp/sources/build/tcc805x/gcc/tcc805x-freertos-debug/obj/key_i2c.o
 .debug_frame   0x0000000000000b44       0xb0 /home/vboxuser/topst/cr5-bsp/sources/build/tcc805x/gcc/tcc805x-freertos-debug/obj/system_monitoring.o
 .debug_frame   0x0000000000000bf4       0xd8 /home/vboxuser/topst/cr5-bsp/sources/build/tcc805x/gcc/tcc805x-freertos-debug/obj/bootctrl.o
 .debug_frame   0x0000000000000ccc       0x34 /home/vboxuser/topst/cr5-bsp/sources/build/tcc805x/gcc/tcc805x-freertos-debug/obj/reset_demo.o
 .debug_frame   0x0000000000000d00      0x1a0 /home/vboxuser/topst/cr5-bsp/sources/build/tcc805x/gcc/tcc805x-freertos-debug/obj/adc_test.o
 .debug_frame   0x0000000000000ea0       0x78 /home/vboxuser/topst/cr5-bsp/sources/build/tcc805x/gcc/tcc805x-freertos-debug/obj/dse_test.o
 .debug_frame   0x0000000000000f18       0xf0 /home/vboxuser/topst/cr5-bsp/sources/build/tcc805x/gcc/tcc805x-freertos-debug/obj/fmu_test.o
 .debug_frame   0x0000000000001008       0x34 /home/vboxuser/topst/cr5-bsp/sources/build/tcc805x/gcc/tcc805x-freertos-debug/obj/gdma_test.o
 .debug_frame   0x000000000000103c       0x70 /home/vboxuser/topst/cr5-bsp/sources/build/tcc805x/gcc/tcc805x-freertos-debug/obj/gic_test.o
 .debug_frame   0x00000000000010ac       0x78 /home/vboxuser/topst/cr5-bsp/sources/build/tcc805x/gcc/tcc805x-freertos-debug/obj/gpio_test.o
 .debug_frame   0x0000000000001124      0x208 /home/vboxuser/topst/cr5-bsp/sources/build/tcc805x/gcc/tcc805x-freertos-debug/obj/gpsb_test.o
 .debug_frame   0x000000000000132c      0x258 /home/vboxuser/topst/cr5-bsp/sources/build/tcc805x/gcc/tcc805x-freertos-debug/obj/hsm_test.o
 .debug_frame   0x0000000000001584      0x154 /home/vboxuser/topst/cr5-bsp/sources/build/tcc805x/gcc/tcc805x-freertos-debug/obj/i2c_test.o
 .debug_frame   0x00000000000016d8       0xa8 /home/vboxuser/topst/cr5-bsp/sources/build/tcc805x/gcc/tcc805x-freertos-debug/obj/ictc_test.o
 .debug_frame   0x0000000000001780       0x50 /home/vboxuser/topst/cr5-bsp/sources/build/tcc805x/gcc/tcc805x-freertos-debug/obj/lin_test.o
 .debug_frame   0x00000000000017d0       0xcc /home/vboxuser/topst/cr5-bsp/sources/build/tcc805x/gcc/tcc805x-freertos-debug/obj/pdm_test.o
 .debug_frame   0x000000000000189c      0x130 /home/vboxuser/topst/cr5-bsp/sources/build/tcc805x/gcc/tcc805x-freertos-debug/obj/pmio_test.o
 .debug_frame   0x00000000000019cc      0x2ac /home/vboxuser/topst/cr5-bsp/sources/build/tcc805x/gcc/tcc805x-freertos-debug/obj/timer_test.o
 .debug_frame   0x0000000000001c78      0x210 /home/vboxuser/topst/cr5-bsp/sources/build/tcc805x/gcc/tcc805x-freertos-debug/obj/wdt_test.o
 .debug_frame   0x0000000000001e88       0xe0 /home/vboxuser/topst/cr5-bsp/sources/build/tcc805x/gcc/tcc805x-freertos-debug/obj/pwm_test.o
 .debug_frame   0x0000000000001f68       0xac /home/vboxuser/topst/cr5-bsp/sources/build/tcc805x/gcc/tcc805x-freertos-debug/obj/hap.o
 .debug_frame   0x0000000000002014       0x50 /home/vboxuser/topst/cr5-bsp/sources/build/tcc805x/gcc/tcc805x-freertos-debug/obj/mptool.o
 .debug_frame   0x0000000000002064      0x548 /home/vboxuser/topst/cr5-bsp/sources/build/tcc805x/gcc/tcc805x-freertos-debug/obj/ipc_os.o
 .debug_frame   0x00000000000025ac      0x1f8 /home/vboxuser/topst/cr5-bsp/sources/build/tcc805x/gcc/tcc805x-freertos-debug/obj/ipc_buffer.o
 .debug_frame   0x00000000000027a4       0xe0 /home/vboxuser/topst/cr5-bsp/sources/build/tcc805x/gcc/tcc805x-freertos-debug/obj/ipc_cmd.o
 .debug_frame   0x0000000000002884      0x2a4 /home/vboxuser/topst/cr5-bsp/sources/build/tcc805x/gcc/tcc805x-freertos-debug/obj/ipc_ctl.o
 .debug_frame   0x0000000000002b28       0xb0 /home/vboxuser/topst/cr5-bsp/sources/build/tcc805x/gcc/tcc805x-freertos-debug/obj/ipc_parser.o
 .debug_frame   0x0000000000002bd8       0xbc /home/vboxuser/topst/cr5-bsp/sources/build/tcc805x/gcc/tcc805x-freertos-debug/obj/ipc_api.o
 .debug_frame   0x0000000000002c94       0x8c /home/vboxuser/topst/cr5-bsp/sources/build/tcc805x/gcc/tcc805x-freertos-debug/obj/ipc.o
 .debug_frame   0x0000000000002d20      0x11c /home/vboxuser/topst/cr5-bsp/sources/build/tcc805x/gcc/tcc805x-freertos-debug/obj/lin.o
 .debug_frame   0x0000000000002e3c       0xf8 /home/vboxuser/topst/cr5-bsp/sources/build/tcc805x/gcc/tcc805x-freertos-debug/obj/sdm.o
 .debug_frame   0x0000000000002f34      0x1fc /home/vboxuser/topst/cr5-bsp/sources/build/tcc805x/gcc/tcc805x-freertos-debug/obj/hsm_manager.o
 .debug_frame   0x0000000000003130      0x128 /home/vboxuser/topst/cr5-bsp/sources/build/tcc805x/gcc/tcc805x-freertos-debug/obj/adc.o
 .debug_frame   0x0000000000003258      0x214 /home/vboxuser/topst/cr5-bsp/sources/build/tcc805x/gcc/tcc805x-freertos-debug/obj/can.o
 .debug_frame   0x000000000000346c      0x3c8 /home/vboxuser/topst/cr5-bsp/sources/build/tcc805x/gcc/tcc805x-freertos-debug/obj/can_drv.o
 .debug_frame   0x0000000000003834      0x1ec /home/vboxuser/topst/cr5-bsp/sources/build/tcc805x/gcc/tcc805x-freertos-debug/obj/can_msg.o
 .debug_frame   0x0000000000003a20      0x430 /home/vboxuser/topst/cr5-bsp/sources/build/tcc805x/gcc/tcc805x-freertos-debug/obj/can_porting.o
 .debug_frame   0x0000000000003e50      0x380 /home/vboxuser/topst/cr5-bsp/sources/build/tcc805x/gcc/tcc805x-freertos-debug/obj/clock_dev.o
 .debug_frame   0x00000000000041d0       0xe4 /home/vboxuser/topst/cr5-bsp/sources/build/tcc805x/gcc/tcc805x-freertos-debug/obj/debug.o
 .debug_frame   0x00000000000042b4       0x84 /home/vboxuser/topst/cr5-bsp/sources/build/tcc805x/gcc/tcc805x-freertos-debug/obj/bsp.o
 .debug_frame   0x0000000000004338      0x1e4 /home/vboxuser/topst/cr5-bsp/sources/build/tcc805x/gcc/tcc805x-freertos-debug/obj/fmu.o
 .debug_frame   0x000000000000451c      0x1bc /home/vboxuser/topst/cr5-bsp/sources/build/tcc805x/gcc/tcc805x-freertos-debug/obj/gdma.o
 .debug_frame   0x00000000000046d8      0x1f4 /home/vboxuser/topst/cr5-bsp/sources/build/tcc805x/gcc/tcc805x-freertos-debug/obj/gic.o
 .debug_frame   0x00000000000048cc       0xbc /home/vboxuser/topst/cr5-bsp/sources/build/tcc805x/gcc/tcc805x-freertos-debug/obj/gpio.o
 .debug_frame   0x0000000000004988      0x3c4 /home/vboxuser/topst/cr5-bsp/sources/build/tcc805x/gcc/tcc805x-freertos-debug/obj/i2c.o
 .debug_frame   0x0000000000004d4c      0x2b8 /home/vboxuser/topst/cr5-bsp/sources/build/tcc805x/gcc/tcc805x-freertos-debug/obj/ictc.o
 .debug_frame   0x0000000000005004      0x378 /home/vboxuser/topst/cr5-bsp/sources/build/tcc805x/gcc/tcc805x-freertos-debug/obj/mbox_phy.o
 .debug_frame   0x000000000000537c      0x4a4 /home/vboxuser/topst/cr5-bsp/sources/build/tcc805x/gcc/tcc805x-freertos-debug/obj/mbox_dev.o
 .debug_frame   0x0000000000005820      0x178 /home/vboxuser/topst/cr5-bsp/sources/build/tcc805x/gcc/tcc805x-freertos-debug/obj/mbox.o
 .debug_frame   0x0000000000005998       0xd0 /home/vboxuser/topst/cr5-bsp/sources/build/tcc805x/gcc/tcc805x-freertos-debug/obj/mpu.o
 .debug_frame   0x0000000000005a68      0x3b0 /home/vboxuser/topst/cr5-bsp/sources/build/tcc805x/gcc/tcc805x-freertos-debug/obj/pdm.o
 .debug_frame   0x0000000000005e18      0x420 /home/vboxuser/topst/cr5-bsp/sources/build/tcc805x/gcc/tcc805x-freertos-debug/obj/pmio_dev.o
 .debug_frame   0x0000000000006238      0x8b4 /home/vboxuser/topst/cr5-bsp/sources/build/tcc805x/gcc/tcc805x-freertos-debug/obj/gpsb.o
 .debug_frame   0x0000000000006aec      0x1a0 /home/vboxuser/topst/cr5-bsp/sources/build/tcc805x/gcc/tcc805x-freertos-debug/obj/timer.o
 .debug_frame   0x0000000000006c8c      0x588 /home/vboxuser/topst/cr5-bsp/sources/build/tcc805x/gcc/tcc805x-freertos-debug/obj/uart.o
 .debug_frame   0x0000000000007214      0x2b0 /home/vboxuser/topst/cr5-bsp/sources/build/tcc805x/gcc/tcc805x-freertos-debug/obj/udma.o
 .debug_frame   0x00000000000074c4      0x184 /home/vboxuser/topst/cr5-bsp/sources/build/tcc805x/gcc/tcc805x-freertos-debug/obj/wdt.o
 .debug_frame   0x0000000000007648       0xb4 /home/vboxuser/topst/cr5-bsp/sources/build/tcc805x/gcc/tcc805x-freertos-debug/obj/dse.o
 .debug_frame   0x00000000000076fc      0x11c /home/vboxuser/topst/cr5-bsp/sources/build/tcc805x/gcc/tcc805x-freertos-debug/obj/midf.o
 .debug_frame   0x0000000000007818      0x11c /home/vboxuser/topst/cr5-bsp/sources/build/tcc805x/gcc/tcc805x-freertos-debug/obj/pmu_reset.o
 .debug_frame   0x0000000000007934      0x754 /home/vboxuser/topst/cr5-bsp/sources/build/tcc805x/gcc/tcc805x-freertos-debug/obj/tasks.o
 .debug_frame   0x0000000000008088       0xb0 /home/vboxuser/topst/cr5-bsp/sources/build/tcc805x/gcc/tcc805x-freertos-debug/obj/list.o
 .debug_frame   0x0000000000008138      0x588 /home/vboxuser/topst/cr5-bsp/sources/build/tcc805x/gcc/tcc805x-freertos-debug/obj/queue.o
 .debug_frame   0x00000000000086c0      0x174 /home/vboxuser/topst/cr5-bsp/sources/build/tcc805x/gcc/tcc805x-freertos-debug/obj/event_groups.o
 .debug_frame   0x0000000000008834      0x330 /home/vboxuser/topst/cr5-bsp/sources/build/tcc805x/gcc/tcc805x-freertos-debug/obj/timers.o
 .debug_frame   0x0000000000008b64      0x2d0 /home/vboxuser/topst/cr5-bsp/sources/build/tcc805x/gcc/tcc805x-freertos-debug/obj/stream_buffer.o
 .debug_frame   0x0000000000008e34      0x284 /home/vboxuser/topst/cr5-bsp/sources/build/tcc805x/gcc/tcc805x-freertos-debug/obj/port.o
 .debug_frame   0x00000000000090b8       0xf8 /home/vboxuser/topst/cr5-bsp/sources/build/tcc805x/gcc/tcc805x-freertos-debug/obj/heap_5.o
 .debug_frame   0x00000000000091b0       0x34 /home/vboxuser/topst/cr5-bsp/sources/build/tcc805x/gcc/tcc805x-freertos-debug/obj/sal_api.o
 .debug_frame   0x00000000000091e4      0x3ec /home/vboxuser/topst/cr5-bsp/sources/build/tcc805x/gcc/tcc805x-freertos-debug/obj/sal_freertos_impl.o
 .debug_frame   0x00000000000095d0       0x48 /home/vboxuser/topst/buildtools/gcc-linaro-7.2.1-2017.11-x86_64_arm-eabi/arm-eabi/libc/usr/lib/libc.a(lib_a-atoi.o)
 .debug_frame   0x0000000000009618       0x48 /home/vboxuser/topst/buildtools/gcc-linaro-7.2.1-2017.11-x86_64_arm-eabi/arm-eabi/libc/usr/lib/libc.a(lib_a-atol.o)
 .debug_frame   0x0000000000009660       0x40 /home/vboxuser/topst/buildtools/gcc-linaro-7.2.1-2017.11-x86_64_arm-eabi/arm-eabi/libc/usr/lib/libc.a(lib_a-memcmp.o)
 .debug_frame   0x00000000000096a0       0x34 /home/vboxuser/topst/buildtools/gcc-linaro-7.2.1-2017.11-x86_64_arm-eabi/arm-eabi/libc/usr/lib/libc.a(lib_a-memcpy-stub.o)
 .debug_frame   0x00000000000096d4       0x30 /home/vboxuser/topst/buildtools/gcc-linaro-7.2.1-2017.11-x86_64_arm-eabi/arm-eabi/libc/usr/lib/libc.a(lib_a-memset.o)
 .debug_frame   0x0000000000009704       0x74 /home/vboxuser/topst/buildtools/gcc-linaro-7.2.1-2017.11-x86_64_arm-eabi/arm-eabi/libc/usr/lib/libc.a(lib_a-snprintf.o)
 .debug_frame   0x0000000000009778       0x20 /home/vboxuser/topst/buildtools/gcc-linaro-7.2.1-2017.11-x86_64_arm-eabi/arm-eabi/libc/usr/lib/libc.a(lib_a-strlen-stub.o)
 .debug_frame   0x0000000000009798       0x4c /home/vboxuser/topst/buildtools/gcc-linaro-7.2.1-2017.11-x86_64_arm-eabi/arm-eabi/libc/usr/lib/libc.a(lib_a-strncmp.o)
 .debug_frame   0x00000000000097e4       0x40 /home/vboxuser/topst/buildtools/gcc-linaro-7.2.1-2017.11-x86_64_arm-eabi/arm-eabi/libc/usr/lib/libc.a(lib_a-strncpy.o)
 .debug_frame   0x0000000000009824       0x20 /home/vboxuser/topst/buildtools/gcc-linaro-7.2.1-2017.11-x86_64_arm-eabi/arm-eabi/libc/usr/lib/libc.a(lib_a-strnlen.o)
 .debug_frame   0x0000000000009844       0xac /home/vboxuser/topst/buildtools/gcc-linaro-7.2.1-2017.11-x86_64_arm-eabi/arm-eabi/libc/usr/lib/libc.a(lib_a-strtol.o)
 .debug_frame   0x00000000000098f0       0xa8 /home/vboxuser/topst/buildtools/gcc-linaro-7.2.1-2017.11-x86_64_arm-eabi/arm-eabi/libc/usr/lib/libc.a(lib_a-strtoul.o)
 .debug_frame   0x0000000000009998       0x8c /home/vboxuser/topst/buildtools/gcc-linaro-7.2.1-2017.11-x86_64_arm-eabi/arm-eabi/libc/usr/lib/libc.a(lib_a-svfprintf.o)
 .debug_frame   0x0000000000009a24       0x68 /home/vboxuser/topst/buildtools/gcc-linaro-7.2.1-2017.11-x86_64_arm-eabi/arm-eabi/libc/usr/lib/libc.a(lib_a-wcrtomb.o)
 .debug_frame   0x0000000000009a8c       0x50 /home/vboxuser/topst/buildtools/gcc-linaro-7.2.1-2017.11-x86_64_arm-eabi/arm-eabi/libc/usr/lib/libc.a(lib_a-wcsrtombs.o)
 .debug_frame   0x0000000000009adc       0xc0 /home/vboxuser/topst/buildtools/gcc-linaro-7.2.1-2017.11-x86_64_arm-eabi/arm-eabi/libc/usr/lib/libc.a(lib_a-dtoa.o)
 .debug_frame   0x0000000000009b9c       0x74 /home/vboxuser/topst/buildtools/gcc-linaro-7.2.1-2017.11-x86_64_arm-eabi/arm-eabi/libc/usr/lib/libc.a(lib_a-freer.o)
 .debug_frame   0x0000000000009c10      0x194 /home/vboxuser/topst/buildtools/gcc-linaro-7.2.1-2017.11-x86_64_arm-eabi/arm-eabi/libc/usr/lib/libc.a(lib_a-locale.o)
 .debug_frame   0x0000000000009da4       0x40 /home/vboxuser/topst/buildtools/gcc-linaro-7.2.1-2017.11-x86_64_arm-eabi/arm-eabi/libc/usr/lib/libc.a(lib_a-localeconv.o)
 .debug_frame   0x0000000000009de4       0x8c /home/vboxuser/topst/buildtools/gcc-linaro-7.2.1-2017.11-x86_64_arm-eabi/arm-eabi/libc/usr/lib/libc.a(lib_a-mallocr.o)
 .debug_frame   0x0000000000009e70      0x170 /home/vboxuser/topst/buildtools/gcc-linaro-7.2.1-2017.11-x86_64_arm-eabi/arm-eabi/libc/usr/lib/libc.a(lib_a-mbtowc_r.o)
 .debug_frame   0x0000000000009fe0       0x38 /home/vboxuser/topst/buildtools/gcc-linaro-7.2.1-2017.11-x86_64_arm-eabi/arm-eabi/libc/usr/lib/libc.a(lib_a-memchr-stub.o)
 .debug_frame   0x000000000000a018       0x30 /home/vboxuser/topst/buildtools/gcc-linaro-7.2.1-2017.11-x86_64_arm-eabi/arm-eabi/libc/usr/lib/libc.a(lib_a-mlock.o)
 .debug_frame   0x000000000000a048      0x2f0 /home/vboxuser/topst/buildtools/gcc-linaro-7.2.1-2017.11-x86_64_arm-eabi/arm-eabi/libc/usr/lib/libc.a(lib_a-mprec.o)
 .debug_frame   0x000000000000a338       0x34 /home/vboxuser/topst/buildtools/gcc-linaro-7.2.1-2017.11-x86_64_arm-eabi/arm-eabi/libc/usr/lib/libc.a(lib_a-s_frexp.o)
 .debug_frame   0x000000000000a36c       0x34 /home/vboxuser/topst/buildtools/gcc-linaro-7.2.1-2017.11-x86_64_arm-eabi/arm-eabi/libc/usr/lib/libc.a(lib_a-sbrkr.o)
 .debug_frame   0x000000000000a3a0       0x44 /home/vboxuser/topst/buildtools/gcc-linaro-7.2.1-2017.11-x86_64_arm-eabi/arm-eabi/libc/usr/lib/libc.a(lib_a-strcasecmp.o)
 .debug_frame   0x000000000000a3e4       0x2c /home/vboxuser/topst/buildtools/gcc-linaro-7.2.1-2017.11-x86_64_arm-eabi/arm-eabi/libc/usr/lib/libc.a(lib_a-strcat.o)
 .debug_frame   0x000000000000a410       0x34 /home/vboxuser/topst/buildtools/gcc-linaro-7.2.1-2017.11-x86_64_arm-eabi/arm-eabi/libc/usr/lib/libc.a(lib_a-strchr.o)
 .debug_frame   0x000000000000a444       0x40 /home/vboxuser/topst/buildtools/gcc-linaro-7.2.1-2017.11-x86_64_arm-eabi/arm-eabi/libc/usr/lib/libc.a(lib_a-strcmp.o)
 .debug_frame   0x000000000000a484       0x20 /home/vboxuser/topst/buildtools/gcc-linaro-7.2.1-2017.11-x86_64_arm-eabi/arm-eabi/libc/usr/lib/libc.a(lib_a-strcpy.o)
 .debug_frame   0x000000000000a4a4       0x20 /home/vboxuser/topst/buildtools/gcc-linaro-7.2.1-2017.11-x86_64_arm-eabi/arm-eabi/libc/usr/lib/libc.a(lib_a-strlcpy.o)
 .debug_frame   0x000000000000a4c4       0x44 /home/vboxuser/topst/buildtools/gcc-linaro-7.2.1-2017.11-x86_64_arm-eabi/arm-eabi/libc/usr/lib/libc.a(lib_a-strncasecmp.o)
 .debug_frame   0x000000000000a508       0xd8 /home/vboxuser/topst/buildtools/gcc-linaro-7.2.1-2017.11-x86_64_arm-eabi/arm-eabi/libc/usr/lib/libc.a(lib_a-svfiprintf.o)
 .debug_frame   0x000000000000a5e0      0x440 /home/vboxuser/topst/buildtools/gcc-linaro-7.2.1-2017.11-x86_64_arm-eabi/arm-eabi/libc/usr/lib/libc.a(lib_a-syscalls.o)
 .debug_frame   0x000000000000aa20       0xa8 /home/vboxuser/topst/buildtools/gcc-linaro-7.2.1-2017.11-x86_64_arm-eabi/arm-eabi/libc/usr/lib/libc.a(lib_a-wcsnrtombs.o)
 .debug_frame   0x000000000000aac8       0xd0 /home/vboxuser/topst/buildtools/gcc-linaro-7.2.1-2017.11-x86_64_arm-eabi/arm-eabi/libc/usr/lib/libc.a(lib_a-wctomb_r.o)
 .debug_frame   0x000000000000ab98       0x34 /home/vboxuser/topst/buildtools/gcc-linaro-7.2.1-2017.11-x86_64_arm-eabi/arm-eabi/libc/usr/lib/libc.a(lib_a-callocr.o)
 .debug_frame   0x000000000000abcc       0x20 /home/vboxuser/topst/buildtools/gcc-linaro-7.2.1-2017.11-x86_64_arm-eabi/arm-eabi/libc/usr/lib/libc.a(lib_a-ctype_.o)
 .debug_frame   0x000000000000abec       0x20 /home/vboxuser/topst/buildtools/gcc-linaro-7.2.1-2017.11-x86_64_arm-eabi/arm-eabi/libc/usr/lib/libc.a(lib_a-errno.o)
 .debug_frame   0x000000000000ac0c      0x174 /home/vboxuser/topst/buildtools/gcc-linaro-7.2.1-2017.11-x86_64_arm-eabi/arm-eabi/libc/usr/lib/libc.a(lib_a-findfp.o)
 .debug_frame   0x000000000000ad80       0x68 /home/vboxuser/topst/buildtools/gcc-linaro-7.2.1-2017.11-x86_64_arm-eabi/arm-eabi/libc/usr/lib/libc.a(lib_a-fwalk.o)
 .debug_frame   0x000000000000ade8       0x70 /home/vboxuser/topst/buildtools/gcc-linaro-7.2.1-2017.11-x86_64_arm-eabi/arm-eabi/libc/usr/lib/libc.a(lib_a-getenv_r.o)
 .debug_frame   0x000000000000ae58       0x34 /home/vboxuser/topst/buildtools/gcc-linaro-7.2.1-2017.11-x86_64_arm-eabi/arm-eabi/libc/usr/lib/libc.a(lib_a-memmove.o)
 .debug_frame   0x000000000000ae8c       0x68 /home/vboxuser/topst/buildtools/gcc-linaro-7.2.1-2017.11-x86_64_arm-eabi/arm-eabi/libc/usr/lib/libc.a(lib_a-reallocr.o)
 .debug_frame   0x000000000000aef4       0x68 /home/vboxuser/topst/buildtools/gcc-linaro-7.2.1-2017.11-x86_64_arm-eabi/arm-eabi/libc/usr/lib/libc.a(lib_a-reent.o)
 .debug_frame   0x000000000000af5c       0x9c /home/vboxuser/topst/buildtools/gcc-linaro-7.2.1-2017.11-x86_64_arm-eabi/arm-eabi/libc/usr/lib/libc.a(lib_a-stdio.o)
 .debug_frame   0x000000000000aff8       0x34 /home/vboxuser/topst/buildtools/gcc-linaro-7.2.1-2017.11-x86_64_arm-eabi/arm-eabi/libc/usr/lib/libc.a(lib_a-writer.o)
 .debug_frame   0x000000000000b02c       0x34 /home/vboxuser/topst/buildtools/gcc-linaro-7.2.1-2017.11-x86_64_arm-eabi/arm-eabi/libc/usr/lib/libc.a(lib_a-closer.o)
 .debug_frame   0x000000000000b060       0x30 /home/vboxuser/topst/buildtools/gcc-linaro-7.2.1-2017.11-x86_64_arm-eabi/arm-eabi/libc/usr/lib/libc.a(lib_a-envlock.o)
 .debug_frame   0x000000000000b090       0x50 /home/vboxuser/topst/buildtools/gcc-linaro-7.2.1-2017.11-x86_64_arm-eabi/arm-eabi/libc/usr/lib/libc.a(lib_a-fclose.o)
 .debug_frame   0x000000000000b0e0       0xa0 /home/vboxuser/topst/buildtools/gcc-linaro-7.2.1-2017.11-x86_64_arm-eabi/arm-eabi/libc/usr/lib/libc.a(lib_a-fflush.o)
 .debug_frame   0x000000000000b180       0x34 /home/vboxuser/topst/buildtools/gcc-linaro-7.2.1-2017.11-x86_64_arm-eabi/arm-eabi/libc/usr/lib/libc.a(lib_a-lseekr.o)
 .debug_frame   0x000000000000b1b4       0x34 /home/vboxuser/topst/buildtools/gcc-linaro-7.2.1-2017.11-x86_64_arm-eabi/arm-eabi/libc/usr/lib/libc.a(lib_a-readr.o)
 .debug_frame   0x000000000000b1e8       0x20 /home/vboxuser/topst/buildtools/gcc-linaro-7.2.1-2017.11-x86_64_arm-eabi/arm-eabi/libc/usr/lib/libgcc.a(_udivsi3.o)
 .debug_frame   0x000000000000b208       0xac /home/vboxuser/topst/buildtools/gcc-linaro-7.2.1-2017.11-x86_64_arm-eabi/arm-eabi/libc/usr/lib/libgcc.a(_arm_addsubdf3.o)
 .debug_frame   0x000000000000b2b4       0x50 /home/vboxuser/topst/buildtools/gcc-linaro-7.2.1-2017.11-x86_64_arm-eabi/arm-eabi/libc/usr/lib/libgcc.a(_arm_muldivdf3.o)
 .debug_frame   0x000000000000b304       0xc4 /home/vboxuser/topst/buildtools/gcc-linaro-7.2.1-2017.11-x86_64_arm-eabi/arm-eabi/libc/usr/lib/libgcc.a(_arm_cmpdf2.o)
 .debug_frame   0x000000000000b3c8       0x20 /home/vboxuser/topst/buildtools/gcc-linaro-7.2.1-2017.11-x86_64_arm-eabi/arm-eabi/libc/usr/lib/libgcc.a(_arm_unorddf2.o)
 .debug_frame   0x000000000000b3e8       0x24 /home/vboxuser/topst/buildtools/gcc-linaro-7.2.1-2017.11-x86_64_arm-eabi/arm-eabi/libc/usr/lib/libgcc.a(_arm_fixdfsi.o)
 .debug_frame   0x000000000000b40c       0x24 /home/vboxuser/topst/buildtools/gcc-linaro-7.2.1-2017.11-x86_64_arm-eabi/arm-eabi/libc/usr/lib/libgcc.a(_arm_fixunsdfsi.o)
 .debug_frame   0x000000000000b430       0x4c /home/vboxuser/topst/buildtools/gcc-linaro-7.2.1-2017.11-x86_64_arm-eabi/arm-eabi/libc/usr/lib/libgcc.a(_arm_addsubsf3.o)
 .debug_frame   0x000000000000b47c       0x38 /home/vboxuser/topst/buildtools/gcc-linaro-7.2.1-2017.11-x86_64_arm-eabi/arm-eabi/libc/usr/lib/libgcc.a(_arm_muldivsf3.o)
 .debug_frame   0x000000000000b4b4       0x24 /home/vboxuser/topst/buildtools/gcc-linaro-7.2.1-2017.11-x86_64_arm-eabi/arm-eabi/libc/usr/lib/libgcc.a(_arm_fixunssfsi.o)
 .debug_frame   0x000000000000b4d8       0x2c /home/vboxuser/topst/buildtools/gcc-linaro-7.2.1-2017.11-x86_64_arm-eabi/arm-eabi/libc/usr/lib/libgcc.a(_aeabi_uldivmod.o)
 .debug_frame   0x000000000000b504       0x48 /home/vboxuser/topst/buildtools/gcc-linaro-7.2.1-2017.11-x86_64_arm-eabi/arm-eabi/libc/usr/lib/libgcc.a(_udivmoddi4.o)

.debug_ranges   0x0000000000000000      0xb38
 .debug_ranges  0x0000000000000000       0x18 /home/vboxuser/topst/cr5-bsp/sources/build/tcc805x/gcc/tcc805x-freertos-debug/obj/console.o
 .debug_ranges  0x0000000000000018       0x18 /home/vboxuser/topst/cr5-bsp/sources/build/tcc805x/gcc/tcc805x-freertos-debug/obj/lin_test.o
 .debug_ranges  0x0000000000000030       0x18 /home/vboxuser/topst/cr5-bsp/sources/build/tcc805x/gcc/tcc805x-freertos-debug/obj/hap.o
 .debug_ranges  0x0000000000000048       0x18 /home/vboxuser/topst/cr5-bsp/sources/build/tcc805x/gcc/tcc805x-freertos-debug/obj/lin.o
 .debug_ranges  0x0000000000000060       0x28 /home/vboxuser/topst/cr5-bsp/sources/build/tcc805x/gcc/tcc805x-freertos-debug/obj/sal_freertos_impl.o
 .debug_ranges  0x0000000000000088       0x10 /home/vboxuser/topst/buildtools/gcc-linaro-7.2.1-2017.11-x86_64_arm-eabi/arm-eabi/libc/usr/lib/libc.a(lib_a-strlen-stub.o)
 .debug_ranges  0x0000000000000098       0x18 /home/vboxuser/topst/buildtools/gcc-linaro-7.2.1-2017.11-x86_64_arm-eabi/arm-eabi/libc/usr/lib/libc.a(lib_a-strtol.o)
 .debug_ranges  0x00000000000000b0       0x18 /home/vboxuser/topst/buildtools/gcc-linaro-7.2.1-2017.11-x86_64_arm-eabi/arm-eabi/libc/usr/lib/libc.a(lib_a-strtoul.o)
 .debug_ranges  0x00000000000000c8      0x288 /home/vboxuser/topst/buildtools/gcc-linaro-7.2.1-2017.11-x86_64_arm-eabi/arm-eabi/libc/usr/lib/libc.a(lib_a-svfprintf.o)
 .debug_ranges  0x0000000000000350       0x18 /home/vboxuser/topst/buildtools/gcc-linaro-7.2.1-2017.11-x86_64_arm-eabi/arm-eabi/libc/usr/lib/libc.a(lib_a-wcrtomb.o)
 .debug_ranges  0x0000000000000368       0x38 /home/vboxuser/topst/buildtools/gcc-linaro-7.2.1-2017.11-x86_64_arm-eabi/arm-eabi/libc/usr/lib/libc.a(lib_a-locale.o)
 .debug_ranges  0x00000000000003a0       0x30 /home/vboxuser/topst/buildtools/gcc-linaro-7.2.1-2017.11-x86_64_arm-eabi/arm-eabi/libc/usr/lib/libc.a(lib_a-mallocr.o)
 .debug_ranges  0x00000000000003d0       0x58 /home/vboxuser/topst/buildtools/gcc-linaro-7.2.1-2017.11-x86_64_arm-eabi/arm-eabi/libc/usr/lib/libc.a(lib_a-mbtowc_r.o)
 .debug_ranges  0x0000000000000428       0x60 /home/vboxuser/topst/buildtools/gcc-linaro-7.2.1-2017.11-x86_64_arm-eabi/arm-eabi/libc/usr/lib/libc.a(lib_a-mprec.o)
 .debug_ranges  0x0000000000000488       0x18 /home/vboxuser/topst/buildtools/gcc-linaro-7.2.1-2017.11-x86_64_arm-eabi/arm-eabi/libc/usr/lib/libc.a(lib_a-s_frexp.o)
 .debug_ranges  0x00000000000004a0       0x30 /home/vboxuser/topst/buildtools/gcc-linaro-7.2.1-2017.11-x86_64_arm-eabi/arm-eabi/libc/usr/lib/libc.a(lib_a-strcasecmp.o)
 .debug_ranges  0x00000000000004d0       0x10 /home/vboxuser/topst/buildtools/gcc-linaro-7.2.1-2017.11-x86_64_arm-eabi/arm-eabi/libc/usr/lib/libc.a(lib_a-strcpy.o)
 .debug_ranges  0x00000000000004e0       0x18 /home/vboxuser/topst/buildtools/gcc-linaro-7.2.1-2017.11-x86_64_arm-eabi/arm-eabi/libc/usr/lib/libc.a(lib_a-strncasecmp.o)
 .debug_ranges  0x00000000000004f8      0x120 /home/vboxuser/topst/buildtools/gcc-linaro-7.2.1-2017.11-x86_64_arm-eabi/arm-eabi/libc/usr/lib/libc.a(lib_a-svfiprintf.o)
 .debug_ranges  0x0000000000000618      0x2b8 /home/vboxuser/topst/buildtools/gcc-linaro-7.2.1-2017.11-x86_64_arm-eabi/arm-eabi/libc/usr/lib/libc.a(lib_a-syscalls.o)
 .debug_ranges  0x00000000000008d0       0x40 /home/vboxuser/topst/buildtools/gcc-linaro-7.2.1-2017.11-x86_64_arm-eabi/arm-eabi/libc/usr/lib/libc.a(lib_a-wcsnrtombs.o)
 .debug_ranges  0x0000000000000910       0x18 /home/vboxuser/topst/buildtools/gcc-linaro-7.2.1-2017.11-x86_64_arm-eabi/arm-eabi/libc/usr/lib/libc.a(lib_a-wctomb_r.o)
 .debug_ranges  0x0000000000000928       0x18 /home/vboxuser/topst/buildtools/gcc-linaro-7.2.1-2017.11-x86_64_arm-eabi/arm-eabi/libc/usr/lib/libc.a(lib_a-callocr.o)
 .debug_ranges  0x0000000000000940       0x68 /home/vboxuser/topst/buildtools/gcc-linaro-7.2.1-2017.11-x86_64_arm-eabi/arm-eabi/libc/usr/lib/libc.a(lib_a-findfp.o)
 .debug_ranges  0x00000000000009a8       0xb0 /home/vboxuser/topst/buildtools/gcc-linaro-7.2.1-2017.11-x86_64_arm-eabi/arm-eabi/libc/usr/lib/libc.a(lib_a-reallocr.o)
 .debug_ranges  0x0000000000000a58       0x20 /home/vboxuser/topst/buildtools/gcc-linaro-7.2.1-2017.11-x86_64_arm-eabi/arm-eabi/libc/usr/lib/libc.a(lib_a-writer.o)
 .debug_ranges  0x0000000000000a78       0x18 /home/vboxuser/topst/buildtools/gcc-linaro-7.2.1-2017.11-x86_64_arm-eabi/arm-eabi/libc/usr/lib/libc.a(lib_a-closer.o)
 .debug_ranges  0x0000000000000a90       0x30 /home/vboxuser/topst/buildtools/gcc-linaro-7.2.1-2017.11-x86_64_arm-eabi/arm-eabi/libc/usr/lib/libc.a(lib_a-fclose.o)
 .debug_ranges  0x0000000000000ac0       0x38 /home/vboxuser/topst/buildtools/gcc-linaro-7.2.1-2017.11-x86_64_arm-eabi/arm-eabi/libc/usr/lib/libc.a(lib_a-fflush.o)
 .debug_ranges  0x0000000000000af8       0x20 /home/vboxuser/topst/buildtools/gcc-linaro-7.2.1-2017.11-x86_64_arm-eabi/arm-eabi/libc/usr/lib/libc.a(lib_a-lseekr.o)
 .debug_ranges  0x0000000000000b18       0x20 /home/vboxuser/topst/buildtools/gcc-linaro-7.2.1-2017.11-x86_64_arm-eabi/arm-eabi/libc/usr/lib/libc.a(lib_a-readr.o)

Cross Reference Table

Symbol                                            File
ADC_AutoScan                                      /home/vboxuser/topst/cr5-bsp/sources/build/tcc805x/gcc/tcc805x-freertos-debug/obj/adc.o
                                                  /home/vboxuser/topst/cr5-bsp/sources/build/tcc805x/gcc/tcc805x-freertos-debug/obj/key_adc.o
ADC_DeInit                                        /home/vboxuser/topst/cr5-bsp/sources/build/tcc805x/gcc/tcc805x-freertos-debug/obj/adc.o
ADC_Init                                          /home/vboxuser/topst/cr5-bsp/sources/build/tcc805x/gcc/tcc805x-freertos-debug/obj/adc.o
                                                  /home/vboxuser/topst/cr5-bsp/sources/build/tcc805x/gcc/tcc805x-freertos-debug/obj/bsp.o
ADC_Read                                          /home/vboxuser/topst/cr5-bsp/sources/build/tcc805x/gcc/tcc805x-freertos-debug/obj/adc.o
ADC_StartAdcTest                                  /home/vboxuser/topst/cr5-bsp/sources/build/tcc805x/gcc/tcc805x-freertos-debug/obj/adc_test.o
                                                  /home/vboxuser/topst/cr5-bsp/sources/build/tcc805x/gcc/tcc805x-freertos-debug/obj/console.o
ARM_DSB                                           /home/vboxuser/topst/cr5-bsp/sources/build/tcc805x/gcc/tcc805x-freertos-debug/obj/arm_a.o
                                                  /home/vboxuser/topst/cr5-bsp/sources/build/tcc805x/gcc/tcc805x-freertos-debug/obj/mpu.o
ARM_ExceptDataAbortHndlr                          /home/vboxuser/topst/cr5-bsp/sources/build/tcc805x/gcc/tcc805x-freertos-debug/obj/sal.o
                                                  /home/vboxuser/topst/cr5-bsp/sources/build/tcc805x/gcc/tcc805x-freertos-debug/obj/vector.o
ARM_ExceptFiqHndlr                                /home/vboxuser/topst/cr5-bsp/sources/build/tcc805x/gcc/tcc805x-freertos-debug/obj/sal.o
                                                  /home/vboxuser/topst/cr5-bsp/sources/build/tcc805x/gcc/tcc805x-freertos-debug/obj/vector.o
ARM_ExceptIrqHndlr                                /home/vboxuser/topst/cr5-bsp/sources/build/tcc805x/gcc/tcc805x-freertos-debug/obj/sal.o
                                                  /home/vboxuser/topst/cr5-bsp/sources/build/tcc805x/gcc/tcc805x-freertos-debug/obj/vector.o
ARM_ExceptPrefetchAbortHndlr                      /home/vboxuser/topst/cr5-bsp/sources/build/tcc805x/gcc/tcc805x-freertos-debug/obj/sal.o
                                                  /home/vboxuser/topst/cr5-bsp/sources/build/tcc805x/gcc/tcc805x-freertos-debug/obj/vector.o
ARM_ExceptSwiHndlr                                /home/vboxuser/topst/cr5-bsp/sources/build/tcc805x/gcc/tcc805x-freertos-debug/obj/sal.o
                                                  /home/vboxuser/topst/cr5-bsp/sources/build/tcc805x/gcc/tcc805x-freertos-debug/obj/vector.o
ARM_ExceptUndefInstrHndlr                         /home/vboxuser/topst/cr5-bsp/sources/build/tcc805x/gcc/tcc805x-freertos-debug/obj/sal.o
                                                  /home/vboxuser/topst/cr5-bsp/sources/build/tcc805x/gcc/tcc805x-freertos-debug/obj/vector.o
ARM_Reserved                                      /home/vboxuser/topst/cr5-bsp/sources/build/tcc805x/gcc/tcc805x-freertos-debug/obj/vector.o
                                                  /home/vboxuser/topst/cr5-bsp/sources/build/tcc805x/gcc/tcc805x-freertos-debug/obj/bsp.o
ArbitrationPhaseTimingPar                         /home/vboxuser/topst/cr5-bsp/sources/build/tcc805x/gcc/tcc805x-freertos-debug/obj/can_par.o
                                                  /home/vboxuser/topst/cr5-bsp/sources/build/tcc805x/gcc/tcc805x-freertos-debug/obj/can_drv.o
BCTRL_Init                                        /home/vboxuser/topst/cr5-bsp/sources/build/tcc805x/gcc/tcc805x-freertos-debug/obj/bootctrl.o
                                                  /home/vboxuser/topst/cr5-bsp/sources/build/tcc805x/gcc/tcc805x-freertos-debug/obj/main.o
BSP_Init                                          /home/vboxuser/topst/cr5-bsp/sources/build/tcc805x/gcc/tcc805x-freertos-debug/obj/bsp.o
                                                  /home/vboxuser/topst/cr5-bsp/sources/build/tcc805x/gcc/tcc805x-freertos-debug/obj/main.o
BSP_PreInit                                       /home/vboxuser/topst/cr5-bsp/sources/build/tcc805x/gcc/tcc805x-freertos-debug/obj/bsp.o
                                                  /home/vboxuser/topst/cr5-bsp/sources/build/tcc805x/gcc/tcc805x-freertos-debug/obj/main.o
BSP_SystemHalt                                    /home/vboxuser/topst/cr5-bsp/sources/build/tcc805x/gcc/tcc805x-freertos-debug/obj/bsp.o
BSP_UndefAbortExceptionHook                       /home/vboxuser/topst/cr5-bsp/sources/build/tcc805x/gcc/tcc805x-freertos-debug/obj/bsp.o
                                                  /home/vboxuser/topst/cr5-bsp/sources/build/tcc805x/gcc/tcc805x-freertos-debug/obj/freertos.o
CANCallbackFunctions                              /home/vboxuser/topst/cr5-bsp/sources/build/tcc805x/gcc/tcc805x-freertos-debug/obj/can_par.o
                                                  /home/vboxuser/topst/cr5-bsp/sources/build/tcc805x/gcc/tcc805x-freertos-debug/obj/can_drv.o
                                                  /home/vboxuser/topst/cr5-bsp/sources/build/tcc805x/gcc/tcc805x-freertos-debug/obj/can.o
CAN_CheckNewRxMessage                             /home/vboxuser/topst/cr5-bsp/sources/build/tcc805x/gcc/tcc805x-freertos-debug/obj/can.o
                                                  /home/vboxuser/topst/cr5-bsp/sources/build/tcc805x/gcc/tcc805x-freertos-debug/obj/can_demo.o
CAN_CheckNewTxEvent                               /home/vboxuser/topst/cr5-bsp/sources/build/tcc805x/gcc/tcc805x-freertos-debug/obj/can.o
                                                  /home/vboxuser/topst/cr5-bsp/sources/build/tcc805x/gcc/tcc805x-freertos-debug/obj/can_demo.o
CAN_Deinit                                        /home/vboxuser/topst/cr5-bsp/sources/build/tcc805x/gcc/tcc805x-freertos-debug/obj/can.o
CAN_DemoCreateApp                                 /home/vboxuser/topst/cr5-bsp/sources/build/tcc805x/gcc/tcc805x-freertos-debug/obj/can_demo.o
CAN_DemoInitialize                                /home/vboxuser/topst/cr5-bsp/sources/build/tcc805x/gcc/tcc805x-freertos-debug/obj/can_demo.o
                                                  /home/vboxuser/topst/cr5-bsp/sources/build/tcc805x/gcc/tcc805x-freertos-debug/obj/main.o
CAN_DemoTest                                      /home/vboxuser/topst/cr5-bsp/sources/build/tcc805x/gcc/tcc805x-freertos-debug/obj/can_demo.o
                                                  /home/vboxuser/topst/cr5-bsp/sources/build/tcc805x/gcc/tcc805x-freertos-debug/obj/console.o
CAN_DrvCallbackNotifyRxEvent                      /home/vboxuser/topst/cr5-bsp/sources/build/tcc805x/gcc/tcc805x-freertos-debug/obj/can_drv.o
                                                  /home/vboxuser/topst/cr5-bsp/sources/build/tcc805x/gcc/tcc805x-freertos-debug/obj/can_msg.o
CAN_DrvDeinitChannel                              /home/vboxuser/topst/cr5-bsp/sources/build/tcc805x/gcc/tcc805x-freertos-debug/obj/can_drv.o
                                                  /home/vboxuser/topst/cr5-bsp/sources/build/tcc805x/gcc/tcc805x-freertos-debug/obj/can.o
CAN_DrvGetProtocolStatus                          /home/vboxuser/topst/cr5-bsp/sources/build/tcc805x/gcc/tcc805x-freertos-debug/obj/can_drv.o
                                                  /home/vboxuser/topst/cr5-bsp/sources/build/tcc805x/gcc/tcc805x-freertos-debug/obj/can.o
CAN_DrvInitChannel                                /home/vboxuser/topst/cr5-bsp/sources/build/tcc805x/gcc/tcc805x-freertos-debug/obj/can_drv.o
                                                  /home/vboxuser/topst/cr5-bsp/sources/build/tcc805x/gcc/tcc805x-freertos-debug/obj/can.o
CAN_DrvSetExternalTestMode                        /home/vboxuser/topst/cr5-bsp/sources/build/tcc805x/gcc/tcc805x-freertos-debug/obj/can_drv.o
                                                  /home/vboxuser/topst/cr5-bsp/sources/build/tcc805x/gcc/tcc805x-freertos-debug/obj/can.o
CAN_DrvSetInternalTestMode                        /home/vboxuser/topst/cr5-bsp/sources/build/tcc805x/gcc/tcc805x-freertos-debug/obj/can_drv.o
                                                  /home/vboxuser/topst/cr5-bsp/sources/build/tcc805x/gcc/tcc805x-freertos-debug/obj/can.o
CAN_DrvSetMonitoringMode                          /home/vboxuser/topst/cr5-bsp/sources/build/tcc805x/gcc/tcc805x-freertos-debug/obj/can_drv.o
                                                  /home/vboxuser/topst/cr5-bsp/sources/build/tcc805x/gcc/tcc805x-freertos-debug/obj/can.o
CAN_DrvSetNormalOperationMode                     /home/vboxuser/topst/cr5-bsp/sources/build/tcc805x/gcc/tcc805x-freertos-debug/obj/can_drv.o
                                                  /home/vboxuser/topst/cr5-bsp/sources/build/tcc805x/gcc/tcc805x-freertos-debug/obj/can.o
CAN_DrvSetSleepMode                               /home/vboxuser/topst/cr5-bsp/sources/build/tcc805x/gcc/tcc805x-freertos-debug/obj/can_drv.o
                                                  /home/vboxuser/topst/cr5-bsp/sources/build/tcc805x/gcc/tcc805x-freertos-debug/obj/can.o
CAN_DrvSetWakeUpMode                              /home/vboxuser/topst/cr5-bsp/sources/build/tcc805x/gcc/tcc805x-freertos-debug/obj/can_drv.o
                                                  /home/vboxuser/topst/cr5-bsp/sources/build/tcc805x/gcc/tcc805x-freertos-debug/obj/can.o
CAN_GetControllerInfo                             /home/vboxuser/topst/cr5-bsp/sources/build/tcc805x/gcc/tcc805x-freertos-debug/obj/can.o
                                                  /home/vboxuser/topst/cr5-bsp/sources/build/tcc805x/gcc/tcc805x-freertos-debug/obj/can_msg.o
                                                  /home/vboxuser/topst/cr5-bsp/sources/build/tcc805x/gcc/tcc805x-freertos-debug/obj/can_drv.o
CAN_GetControllerMode                             /home/vboxuser/topst/cr5-bsp/sources/build/tcc805x/gcc/tcc805x-freertos-debug/obj/can.o
CAN_GetNewRxMessage                               /home/vboxuser/topst/cr5-bsp/sources/build/tcc805x/gcc/tcc805x-freertos-debug/obj/can.o
                                                  /home/vboxuser/topst/cr5-bsp/sources/build/tcc805x/gcc/tcc805x-freertos-debug/obj/can_demo.o
CAN_GetNewTxEvent                                 /home/vboxuser/topst/cr5-bsp/sources/build/tcc805x/gcc/tcc805x-freertos-debug/obj/can.o
                                                  /home/vboxuser/topst/cr5-bsp/sources/build/tcc805x/gcc/tcc805x-freertos-debug/obj/can_demo.o
CAN_GetProtocolStatus                             /home/vboxuser/topst/cr5-bsp/sources/build/tcc805x/gcc/tcc805x-freertos-debug/obj/can.o
                                                  /home/vboxuser/topst/cr5-bsp/sources/build/tcc805x/gcc/tcc805x-freertos-debug/obj/can_demo.o
CAN_Init                                          /home/vboxuser/topst/cr5-bsp/sources/build/tcc805x/gcc/tcc805x-freertos-debug/obj/can.o
                                                  /home/vboxuser/topst/cr5-bsp/sources/build/tcc805x/gcc/tcc805x-freertos-debug/obj/can_drv.o
                                                  /home/vboxuser/topst/cr5-bsp/sources/build/tcc805x/gcc/tcc805x-freertos-debug/obj/can_demo.o
CAN_InitMessage                                   /home/vboxuser/topst/cr5-bsp/sources/build/tcc805x/gcc/tcc805x-freertos-debug/obj/can.o
                                                  /home/vboxuser/topst/cr5-bsp/sources/build/tcc805x/gcc/tcc805x-freertos-debug/obj/can_demo.o
CAN_MsgGetCountOfRxMessage                        /home/vboxuser/topst/cr5-bsp/sources/build/tcc805x/gcc/tcc805x-freertos-debug/obj/can_msg.o
                                                  /home/vboxuser/topst/cr5-bsp/sources/build/tcc805x/gcc/tcc805x-freertos-debug/obj/can.o
CAN_MsgGetCountOfTxEvent                          /home/vboxuser/topst/cr5-bsp/sources/build/tcc805x/gcc/tcc805x-freertos-debug/obj/can_msg.o
                                                  /home/vboxuser/topst/cr5-bsp/sources/build/tcc805x/gcc/tcc805x-freertos-debug/obj/can.o
CAN_MsgGetRxMessage                               /home/vboxuser/topst/cr5-bsp/sources/build/tcc805x/gcc/tcc805x-freertos-debug/obj/can_msg.o
                                                  /home/vboxuser/topst/cr5-bsp/sources/build/tcc805x/gcc/tcc805x-freertos-debug/obj/can.o
CAN_MsgGetTxEventMessage                          /home/vboxuser/topst/cr5-bsp/sources/build/tcc805x/gcc/tcc805x-freertos-debug/obj/can_msg.o
                                                  /home/vboxuser/topst/cr5-bsp/sources/build/tcc805x/gcc/tcc805x-freertos-debug/obj/can.o
CAN_MsgInit                                       /home/vboxuser/topst/cr5-bsp/sources/build/tcc805x/gcc/tcc805x-freertos-debug/obj/can_msg.o
                                                  /home/vboxuser/topst/cr5-bsp/sources/build/tcc805x/gcc/tcc805x-freertos-debug/obj/can_drv.o
                                                  /home/vboxuser/topst/cr5-bsp/sources/build/tcc805x/gcc/tcc805x-freertos-debug/obj/can.o
CAN_MsgPutRxMessage                               /home/vboxuser/topst/cr5-bsp/sources/build/tcc805x/gcc/tcc805x-freertos-debug/obj/can_msg.o
                                                  /home/vboxuser/topst/cr5-bsp/sources/build/tcc805x/gcc/tcc805x-freertos-debug/obj/can_drv.o
CAN_MsgRequestTxMessageCancellation               /home/vboxuser/topst/cr5-bsp/sources/build/tcc805x/gcc/tcc805x-freertos-debug/obj/can_msg.o
                                                  /home/vboxuser/topst/cr5-bsp/sources/build/tcc805x/gcc/tcc805x-freertos-debug/obj/can.o
CAN_MsgSetTxMessage                               /home/vboxuser/topst/cr5-bsp/sources/build/tcc805x/gcc/tcc805x-freertos-debug/obj/can_msg.o
                                                  /home/vboxuser/topst/cr5-bsp/sources/build/tcc805x/gcc/tcc805x-freertos-debug/obj/can.o
CAN_PortingAllocateNonCacheMemory                 /home/vboxuser/topst/cr5-bsp/sources/build/tcc805x/gcc/tcc805x-freertos-debug/obj/can_porting.o
                                                  /home/vboxuser/topst/cr5-bsp/sources/build/tcc805x/gcc/tcc805x-freertos-debug/obj/can_drv.o
CAN_PortingDeallocateNonCacheMemory               /home/vboxuser/topst/cr5-bsp/sources/build/tcc805x/gcc/tcc805x-freertos-debug/obj/can_porting.o
                                                  /home/vboxuser/topst/cr5-bsp/sources/build/tcc805x/gcc/tcc805x-freertos-debug/obj/can_drv.o
CAN_PortingDelay                                  /home/vboxuser/topst/cr5-bsp/sources/build/tcc805x/gcc/tcc805x-freertos-debug/obj/can_porting.o
                                                  /home/vboxuser/topst/cr5-bsp/sources/build/tcc805x/gcc/tcc805x-freertos-debug/obj/can_drv.o
                                                  /home/vboxuser/topst/cr5-bsp/sources/build/tcc805x/gcc/tcc805x-freertos-debug/obj/can_demo.o
CAN_PortingDisableControllerInterrupts            /home/vboxuser/topst/cr5-bsp/sources/build/tcc805x/gcc/tcc805x-freertos-debug/obj/can_porting.o
                                                  /home/vboxuser/topst/cr5-bsp/sources/build/tcc805x/gcc/tcc805x-freertos-debug/obj/can.o
CAN_PortingEnableControllerInterrupts             /home/vboxuser/topst/cr5-bsp/sources/build/tcc805x/gcc/tcc805x-freertos-debug/obj/can_porting.o
                                                  /home/vboxuser/topst/cr5-bsp/sources/build/tcc805x/gcc/tcc805x-freertos-debug/obj/can.o
CAN_PortingGetBitRateSwitchEnable                 /home/vboxuser/topst/cr5-bsp/sources/build/tcc805x/gcc/tcc805x-freertos-debug/obj/can_porting.o
                                                  /home/vboxuser/topst/cr5-bsp/sources/build/tcc805x/gcc/tcc805x-freertos-debug/obj/can_drv.o
CAN_PortingGetConfigBaseAddr                      /home/vboxuser/topst/cr5-bsp/sources/build/tcc805x/gcc/tcc805x-freertos-debug/obj/can_porting.o
CAN_PortingGetConfigEXTS0Addr                     /home/vboxuser/topst/cr5-bsp/sources/build/tcc805x/gcc/tcc805x-freertos-debug/obj/can_porting.o
                                                  /home/vboxuser/topst/cr5-bsp/sources/build/tcc805x/gcc/tcc805x-freertos-debug/obj/can_drv.o
CAN_PortingGetConfigEXTS1Addr                     /home/vboxuser/topst/cr5-bsp/sources/build/tcc805x/gcc/tcc805x-freertos-debug/obj/can_porting.o
                                                  /home/vboxuser/topst/cr5-bsp/sources/build/tcc805x/gcc/tcc805x-freertos-debug/obj/can_drv.o
CAN_PortingGetConfigWriteLockAddr                 /home/vboxuser/topst/cr5-bsp/sources/build/tcc805x/gcc/tcc805x-freertos-debug/obj/can_porting.o
CAN_PortingGetConfigWritePasswordAddr             /home/vboxuser/topst/cr5-bsp/sources/build/tcc805x/gcc/tcc805x-freertos-debug/obj/can_porting.o
CAN_PortingGetControllerRegister                  /home/vboxuser/topst/cr5-bsp/sources/build/tcc805x/gcc/tcc805x-freertos-debug/obj/can_porting.o
                                                  /home/vboxuser/topst/cr5-bsp/sources/build/tcc805x/gcc/tcc805x-freertos-debug/obj/can_drv.o
CAN_PortingGetExtendedIDFilterEnable              /home/vboxuser/topst/cr5-bsp/sources/build/tcc805x/gcc/tcc805x-freertos-debug/obj/can_porting.o
                                                  /home/vboxuser/topst/cr5-bsp/sources/build/tcc805x/gcc/tcc805x-freertos-debug/obj/can_drv.o
CAN_PortingGetExtendedIDRemoteRejectEnable        /home/vboxuser/topst/cr5-bsp/sources/build/tcc805x/gcc/tcc805x-freertos-debug/obj/can_porting.o
                                                  /home/vboxuser/topst/cr5-bsp/sources/build/tcc805x/gcc/tcc805x-freertos-debug/obj/can_drv.o
CAN_PortingGetFDEnable                            /home/vboxuser/topst/cr5-bsp/sources/build/tcc805x/gcc/tcc805x-freertos-debug/obj/can_porting.o
                                                  /home/vboxuser/topst/cr5-bsp/sources/build/tcc805x/gcc/tcc805x-freertos-debug/obj/can_drv.o
CAN_PortingGetMessageRamBaseAddr                  /home/vboxuser/topst/cr5-bsp/sources/build/tcc805x/gcc/tcc805x-freertos-debug/obj/can_porting.o
                                                  /home/vboxuser/topst/cr5-bsp/sources/build/tcc805x/gcc/tcc805x-freertos-debug/obj/can_drv.o
CAN_PortingGetSizeofExtendedIDFilterList          /home/vboxuser/topst/cr5-bsp/sources/build/tcc805x/gcc/tcc805x-freertos-debug/obj/can_porting.o
                                                  /home/vboxuser/topst/cr5-bsp/sources/build/tcc805x/gcc/tcc805x-freertos-debug/obj/can_drv.o
CAN_PortingGetSizeofRxBuffer                      /home/vboxuser/topst/cr5-bsp/sources/build/tcc805x/gcc/tcc805x-freertos-debug/obj/can_porting.o
                                                  /home/vboxuser/topst/cr5-bsp/sources/build/tcc805x/gcc/tcc805x-freertos-debug/obj/can_drv.o
CAN_PortingGetSizeofRxFIFO0                       /home/vboxuser/topst/cr5-bsp/sources/build/tcc805x/gcc/tcc805x-freertos-debug/obj/can_porting.o
                                                  /home/vboxuser/topst/cr5-bsp/sources/build/tcc805x/gcc/tcc805x-freertos-debug/obj/can_drv.o
CAN_PortingGetSizeofRxFIFO1                       /home/vboxuser/topst/cr5-bsp/sources/build/tcc805x/gcc/tcc805x-freertos-debug/obj/can_porting.o
                                                  /home/vboxuser/topst/cr5-bsp/sources/build/tcc805x/gcc/tcc805x-freertos-debug/obj/can_drv.o
CAN_PortingGetSizeofStandardIDFilterList          /home/vboxuser/topst/cr5-bsp/sources/build/tcc805x/gcc/tcc805x-freertos-debug/obj/can_porting.o
                                                  /home/vboxuser/topst/cr5-bsp/sources/build/tcc805x/gcc/tcc805x-freertos-debug/obj/can_drv.o
CAN_PortingGetSizeofTxBuffer                      /home/vboxuser/topst/cr5-bsp/sources/build/tcc805x/gcc/tcc805x-freertos-debug/obj/can_porting.o
                                                  /home/vboxuser/topst/cr5-bsp/sources/build/tcc805x/gcc/tcc805x-freertos-debug/obj/can_drv.o
CAN_PortingGetSizeofTxEventBuffer                 /home/vboxuser/topst/cr5-bsp/sources/build/tcc805x/gcc/tcc805x-freertos-debug/obj/can_porting.o
                                                  /home/vboxuser/topst/cr5-bsp/sources/build/tcc805x/gcc/tcc805x-freertos-debug/obj/can_drv.o
CAN_PortingGetStandardIDFilterEnable              /home/vboxuser/topst/cr5-bsp/sources/build/tcc805x/gcc/tcc805x-freertos-debug/obj/can_porting.o
                                                  /home/vboxuser/topst/cr5-bsp/sources/build/tcc805x/gcc/tcc805x-freertos-debug/obj/can_drv.o
CAN_PortingGetStandardIDRemoteRejectEnable        /home/vboxuser/topst/cr5-bsp/sources/build/tcc805x/gcc/tcc805x-freertos-debug/obj/can_porting.o
                                                  /home/vboxuser/topst/cr5-bsp/sources/build/tcc805x/gcc/tcc805x-freertos-debug/obj/can_drv.o
CAN_PortingGetTimeOutEnable                       /home/vboxuser/topst/cr5-bsp/sources/build/tcc805x/gcc/tcc805x-freertos-debug/obj/can_porting.o
                                                  /home/vboxuser/topst/cr5-bsp/sources/build/tcc805x/gcc/tcc805x-freertos-debug/obj/can_drv.o
CAN_PortingGetTimeStampEnable                     /home/vboxuser/topst/cr5-bsp/sources/build/tcc805x/gcc/tcc805x-freertos-debug/obj/can_porting.o
                                                  /home/vboxuser/topst/cr5-bsp/sources/build/tcc805x/gcc/tcc805x-freertos-debug/obj/can_drv.o
CAN_PortingGetTxEventFIFOEnable                   /home/vboxuser/topst/cr5-bsp/sources/build/tcc805x/gcc/tcc805x-freertos-debug/obj/can_porting.o
                                                  /home/vboxuser/topst/cr5-bsp/sources/build/tcc805x/gcc/tcc805x-freertos-debug/obj/can_drv.o
CAN_PortingGetWatchDogEnable                      /home/vboxuser/topst/cr5-bsp/sources/build/tcc805x/gcc/tcc805x-freertos-debug/obj/can_porting.o
                                                  /home/vboxuser/topst/cr5-bsp/sources/build/tcc805x/gcc/tcc805x-freertos-debug/obj/can_drv.o
CAN_PortingInitHW                                 /home/vboxuser/topst/cr5-bsp/sources/build/tcc805x/gcc/tcc805x-freertos-debug/obj/can_porting.o
                                                  /home/vboxuser/topst/cr5-bsp/sources/build/tcc805x/gcc/tcc805x-freertos-debug/obj/can_drv.o
CAN_PortingResetDriver                            /home/vboxuser/topst/cr5-bsp/sources/build/tcc805x/gcc/tcc805x-freertos-debug/obj/can_porting.o
                                                  /home/vboxuser/topst/cr5-bsp/sources/build/tcc805x/gcc/tcc805x-freertos-debug/obj/can_drv.o
                                                  /home/vboxuser/topst/cr5-bsp/sources/build/tcc805x/gcc/tcc805x-freertos-debug/obj/can.o
CAN_PortingSetControllerClock                     /home/vboxuser/topst/cr5-bsp/sources/build/tcc805x/gcc/tcc805x-freertos-debug/obj/can_porting.o
                                                  /home/vboxuser/topst/cr5-bsp/sources/build/tcc805x/gcc/tcc805x-freertos-debug/obj/can_drv.o
CAN_PortingSetInterruptHandler                    /home/vboxuser/topst/cr5-bsp/sources/build/tcc805x/gcc/tcc805x-freertos-debug/obj/can_porting.o
                                                  /home/vboxuser/topst/cr5-bsp/sources/build/tcc805x/gcc/tcc805x-freertos-debug/obj/can_drv.o
CAN_RegisterCallbackFunctionError                 /home/vboxuser/topst/cr5-bsp/sources/build/tcc805x/gcc/tcc805x-freertos-debug/obj/can.o
                                                  /home/vboxuser/topst/cr5-bsp/sources/build/tcc805x/gcc/tcc805x-freertos-debug/obj/can_demo.o
CAN_RegisterCallbackFunctionRx                    /home/vboxuser/topst/cr5-bsp/sources/build/tcc805x/gcc/tcc805x-freertos-debug/obj/can.o
                                                  /home/vboxuser/topst/cr5-bsp/sources/build/tcc805x/gcc/tcc805x-freertos-debug/obj/can_demo.o
CAN_RegisterCallbackFunctionTx                    /home/vboxuser/topst/cr5-bsp/sources/build/tcc805x/gcc/tcc805x-freertos-debug/obj/can.o
                                                  /home/vboxuser/topst/cr5-bsp/sources/build/tcc805x/gcc/tcc805x-freertos-debug/obj/can_demo.o
CAN_RequestTxMessageCancellation                  /home/vboxuser/topst/cr5-bsp/sources/build/tcc805x/gcc/tcc805x-freertos-debug/obj/can.o
CAN_SendMessage                                   /home/vboxuser/topst/cr5-bsp/sources/build/tcc805x/gcc/tcc805x-freertos-debug/obj/can.o
                                                  /home/vboxuser/topst/cr5-bsp/sources/build/tcc805x/gcc/tcc805x-freertos-debug/obj/can_demo.o
CAN_SetControllerMode                             /home/vboxuser/topst/cr5-bsp/sources/build/tcc805x/gcc/tcc805x-freertos-debug/obj/can.o
CLOCK_DisablePeri                                 /home/vboxuser/topst/cr5-bsp/sources/build/tcc805x/gcc/tcc805x-freertos-debug/obj/clock_dev.o
                                                  /home/vboxuser/topst/cr5-bsp/sources/build/tcc805x/gcc/tcc805x-freertos-debug/obj/pdm.o
                                                  /home/vboxuser/topst/cr5-bsp/sources/build/tcc805x/gcc/tcc805x-freertos-debug/obj/ictc.o
                                                  /home/vboxuser/topst/cr5-bsp/sources/build/tcc805x/gcc/tcc805x-freertos-debug/obj/i2c.o
                                                  /home/vboxuser/topst/cr5-bsp/sources/build/tcc805x/gcc/tcc805x-freertos-debug/obj/adc.o
CLOCK_EnableIobus                                 /home/vboxuser/topst/cr5-bsp/sources/build/tcc805x/gcc/tcc805x-freertos-debug/obj/clock_dev.o
                                                  /home/vboxuser/topst/cr5-bsp/sources/build/tcc805x/gcc/tcc805x-freertos-debug/obj/udma.o
                                                  /home/vboxuser/topst/cr5-bsp/sources/build/tcc805x/gcc/tcc805x-freertos-debug/obj/gdma.o
CLOCK_EnablePeri                                  /home/vboxuser/topst/cr5-bsp/sources/build/tcc805x/gcc/tcc805x-freertos-debug/obj/clock_dev.o
                                                  /home/vboxuser/topst/cr5-bsp/sources/build/tcc805x/gcc/tcc805x-freertos-debug/obj/uart.o
                                                  /home/vboxuser/topst/cr5-bsp/sources/build/tcc805x/gcc/tcc805x-freertos-debug/obj/timer.o
                                                  /home/vboxuser/topst/cr5-bsp/sources/build/tcc805x/gcc/tcc805x-freertos-debug/obj/gpsb.o
                                                  /home/vboxuser/topst/cr5-bsp/sources/build/tcc805x/gcc/tcc805x-freertos-debug/obj/pdm.o
                                                  /home/vboxuser/topst/cr5-bsp/sources/build/tcc805x/gcc/tcc805x-freertos-debug/obj/ictc.o
                                                  /home/vboxuser/topst/cr5-bsp/sources/build/tcc805x/gcc/tcc805x-freertos-debug/obj/i2c.o
                                                  /home/vboxuser/topst/cr5-bsp/sources/build/tcc805x/gcc/tcc805x-freertos-debug/obj/can_porting.o
                                                  /home/vboxuser/topst/cr5-bsp/sources/build/tcc805x/gcc/tcc805x-freertos-debug/obj/adc.o
CLOCK_GetClkCtrlRate                              /home/vboxuser/topst/cr5-bsp/sources/build/tcc805x/gcc/tcc805x-freertos-debug/obj/clock_dev.o
CLOCK_GetPeriRate                                 /home/vboxuser/topst/cr5-bsp/sources/build/tcc805x/gcc/tcc805x-freertos-debug/obj/clock_dev.o
                                                  /home/vboxuser/topst/cr5-bsp/sources/build/tcc805x/gcc/tcc805x-freertos-debug/obj/uart.o
                                                  /home/vboxuser/topst/cr5-bsp/sources/build/tcc805x/gcc/tcc805x-freertos-debug/obj/timer.o
                                                  /home/vboxuser/topst/cr5-bsp/sources/build/tcc805x/gcc/tcc805x-freertos-debug/obj/pdm.o
                                                  /home/vboxuser/topst/cr5-bsp/sources/build/tcc805x/gcc/tcc805x-freertos-debug/obj/ictc.o
                                                  /home/vboxuser/topst/cr5-bsp/sources/build/tcc805x/gcc/tcc805x-freertos-debug/obj/i2c.o
CLOCK_GetPllRate                                  /home/vboxuser/topst/cr5-bsp/sources/build/tcc805x/gcc/tcc805x-freertos-debug/obj/clock_dev.o
CLOCK_Init                                        /home/vboxuser/topst/cr5-bsp/sources/build/tcc805x/gcc/tcc805x-freertos-debug/obj/clock_dev.o
                                                  /home/vboxuser/topst/cr5-bsp/sources/build/tcc805x/gcc/tcc805x-freertos-debug/obj/bsp.o
CLOCK_IsIobusPwdn                                 /home/vboxuser/topst/cr5-bsp/sources/build/tcc805x/gcc/tcc805x-freertos-debug/obj/clock_dev.o
CLOCK_IsPeriEnabled                               /home/vboxuser/topst/cr5-bsp/sources/build/tcc805x/gcc/tcc805x-freertos-debug/obj/clock_dev.o
CLOCK_SetClkCtrlRate                              /home/vboxuser/topst/cr5-bsp/sources/build/tcc805x/gcc/tcc805x-freertos-debug/obj/clock_dev.o
CLOCK_SetIobusPwdn                                /home/vboxuser/topst/cr5-bsp/sources/build/tcc805x/gcc/tcc805x-freertos-debug/obj/clock_dev.o
                                                  /home/vboxuser/topst/cr5-bsp/sources/build/tcc805x/gcc/tcc805x-freertos-debug/obj/uart.o
                                                  /home/vboxuser/topst/cr5-bsp/sources/build/tcc805x/gcc/tcc805x-freertos-debug/obj/gpsb.o
                                                  /home/vboxuser/topst/cr5-bsp/sources/build/tcc805x/gcc/tcc805x-freertos-debug/obj/i2c.o
CLOCK_SetPeriRate                                 /home/vboxuser/topst/cr5-bsp/sources/build/tcc805x/gcc/tcc805x-freertos-debug/obj/clock_dev.o
                                                  /home/vboxuser/topst/cr5-bsp/sources/build/tcc805x/gcc/tcc805x-freertos-debug/obj/uart.o
                                                  /home/vboxuser/topst/cr5-bsp/sources/build/tcc805x/gcc/tcc805x-freertos-debug/obj/timer.o
                                                  /home/vboxuser/topst/cr5-bsp/sources/build/tcc805x/gcc/tcc805x-freertos-debug/obj/gpsb.o
                                                  /home/vboxuser/topst/cr5-bsp/sources/build/tcc805x/gcc/tcc805x-freertos-debug/obj/pdm.o
                                                  /home/vboxuser/topst/cr5-bsp/sources/build/tcc805x/gcc/tcc805x-freertos-debug/obj/ictc.o
                                                  /home/vboxuser/topst/cr5-bsp/sources/build/tcc805x/gcc/tcc805x-freertos-debug/obj/i2c.o
                                                  /home/vboxuser/topst/cr5-bsp/sources/build/tcc805x/gcc/tcc805x-freertos-debug/obj/can_porting.o
                                                  /home/vboxuser/topst/cr5-bsp/sources/build/tcc805x/gcc/tcc805x-freertos-debug/obj/adc.o
CLOCK_SetPllDiv                                   /home/vboxuser/topst/cr5-bsp/sources/build/tcc805x/gcc/tcc805x-freertos-debug/obj/clock_dev.o
CLOCK_SetPllRate                                  /home/vboxuser/topst/cr5-bsp/sources/build/tcc805x/gcc/tcc805x-freertos-debug/obj/clock_dev.o
CLOCK_SetSwReset                                  /home/vboxuser/topst/cr5-bsp/sources/build/tcc805x/gcc/tcc805x-freertos-debug/obj/clock_dev.o
                                                  /home/vboxuser/topst/cr5-bsp/sources/build/tcc805x/gcc/tcc805x-freertos-debug/obj/udma.o
                                                  /home/vboxuser/topst/cr5-bsp/sources/build/tcc805x/gcc/tcc805x-freertos-debug/obj/uart.o
                                                  /home/vboxuser/topst/cr5-bsp/sources/build/tcc805x/gcc/tcc805x-freertos-debug/obj/gpsb.o
                                                  /home/vboxuser/topst/cr5-bsp/sources/build/tcc805x/gcc/tcc805x-freertos-debug/obj/i2c.o
CPU_SR_Restore                                    /home/vboxuser/topst/cr5-bsp/sources/build/tcc805x/gcc/tcc805x-freertos-debug/obj/freertos.o
                                                  /home/vboxuser/topst/cr5-bsp/sources/build/tcc805x/gcc/tcc805x-freertos-debug/obj/sal_freertos_impl.o
CPU_SR_Save                                       /home/vboxuser/topst/cr5-bsp/sources/build/tcc805x/gcc/tcc805x-freertos-debug/obj/freertos.o
                                                  /home/vboxuser/topst/cr5-bsp/sources/build/tcc805x/gcc/tcc805x-freertos-debug/obj/sal_freertos_impl.o
CPU_WaitForEvent                                  /home/vboxuser/topst/cr5-bsp/sources/build/tcc805x/gcc/tcc805x-freertos-debug/obj/freertos.o
                                                  /home/vboxuser/topst/cr5-bsp/sources/build/tcc805x/gcc/tcc805x-freertos-debug/obj/sal_freertos_impl.o
CreateConsoleTask                                 /home/vboxuser/topst/cr5-bsp/sources/build/tcc805x/gcc/tcc805x-freertos-debug/obj/console.o
                                                  /home/vboxuser/topst/cr5-bsp/sources/build/tcc805x/gcc/tcc805x-freertos-debug/obj/main.o
Create_TEST_Task                                  /home/vboxuser/topst/cr5-bsp/sources/build/tcc805x/gcc/tcc805x-freertos-debug/obj/hap.o
                                                  /home/vboxuser/topst/cr5-bsp/sources/build/tcc805x/gcc/tcc805x-freertos-debug/obj/main.o
DBG_Printfi                                       /home/vboxuser/topst/cr5-bsp/sources/build/tcc805x/gcc/tcc805x-freertos-debug/obj/debug.o
DBG_Putc                                          /home/vboxuser/topst/cr5-bsp/sources/build/tcc805x/gcc/tcc805x-freertos-debug/obj/debug.o
DBG_SerialPrintf                                  /home/vboxuser/topst/cr5-bsp/sources/build/tcc805x/gcc/tcc805x-freertos-debug/obj/debug.o
                                                  /home/vboxuser/topst/cr5-bsp/sources/build/tcc805x/gcc/tcc805x-freertos-debug/obj/sal_freertos_impl.o
                                                  /home/vboxuser/topst/cr5-bsp/sources/build/tcc805x/gcc/tcc805x-freertos-debug/obj/pmu_reset.o
                                                  /home/vboxuser/topst/cr5-bsp/sources/build/tcc805x/gcc/tcc805x-freertos-debug/obj/dse.o
                                                  /home/vboxuser/topst/cr5-bsp/sources/build/tcc805x/gcc/tcc805x-freertos-debug/obj/wdt.o
                                                  /home/vboxuser/topst/cr5-bsp/sources/build/tcc805x/gcc/tcc805x-freertos-debug/obj/uart.o
                                                  /home/vboxuser/topst/cr5-bsp/sources/build/tcc805x/gcc/tcc805x-freertos-debug/obj/timer.o
                                                  /home/vboxuser/topst/cr5-bsp/sources/build/tcc805x/gcc/tcc805x-freertos-debug/obj/gpsb.o
                                                  /home/vboxuser/topst/cr5-bsp/sources/build/tcc805x/gcc/tcc805x-freertos-debug/obj/pmio_dev.o
                                                  /home/vboxuser/topst/cr5-bsp/sources/build/tcc805x/gcc/tcc805x-freertos-debug/obj/pdm.o
                                                  /home/vboxuser/topst/cr5-bsp/sources/build/tcc805x/gcc/tcc805x-freertos-debug/obj/mbox.o
                                                  /home/vboxuser/topst/cr5-bsp/sources/build/tcc805x/gcc/tcc805x-freertos-debug/obj/mbox_dev.o
                                                  /home/vboxuser/topst/cr5-bsp/sources/build/tcc805x/gcc/tcc805x-freertos-debug/obj/ictc.o
                                                  /home/vboxuser/topst/cr5-bsp/sources/build/tcc805x/gcc/tcc805x-freertos-debug/obj/i2c.o
                                                  /home/vboxuser/topst/cr5-bsp/sources/build/tcc805x/gcc/tcc805x-freertos-debug/obj/gpio.o
                                                  /home/vboxuser/topst/cr5-bsp/sources/build/tcc805x/gcc/tcc805x-freertos-debug/obj/gdma.o
                                                  /home/vboxuser/topst/cr5-bsp/sources/build/tcc805x/gcc/tcc805x-freertos-debug/obj/fmu.o
                                                  /home/vboxuser/topst/cr5-bsp/sources/build/tcc805x/gcc/tcc805x-freertos-debug/obj/bsp.o
                                                  /home/vboxuser/topst/cr5-bsp/sources/build/tcc805x/gcc/tcc805x-freertos-debug/obj/can_drv.o
                                                  /home/vboxuser/topst/cr5-bsp/sources/build/tcc805x/gcc/tcc805x-freertos-debug/obj/can.o
                                                  /home/vboxuser/topst/cr5-bsp/sources/build/tcc805x/gcc/tcc805x-freertos-debug/obj/adc.o
                                                  /home/vboxuser/topst/cr5-bsp/sources/build/tcc805x/gcc/tcc805x-freertos-debug/obj/hsm_manager.o
                                                  /home/vboxuser/topst/cr5-bsp/sources/build/tcc805x/gcc/tcc805x-freertos-debug/obj/sdm.o
                                                  /home/vboxuser/topst/cr5-bsp/sources/build/tcc805x/gcc/tcc805x-freertos-debug/obj/lin.o
                                                  /home/vboxuser/topst/cr5-bsp/sources/build/tcc805x/gcc/tcc805x-freertos-debug/obj/ipc_api.o
                                                  /home/vboxuser/topst/cr5-bsp/sources/build/tcc805x/gcc/tcc805x-freertos-debug/obj/ipc_ctl.o
                                                  /home/vboxuser/topst/cr5-bsp/sources/build/tcc805x/gcc/tcc805x-freertos-debug/obj/ipc_buffer.o
                                                  /home/vboxuser/topst/cr5-bsp/sources/build/tcc805x/gcc/tcc805x-freertos-debug/obj/mptool.o
                                                  /home/vboxuser/topst/cr5-bsp/sources/build/tcc805x/gcc/tcc805x-freertos-debug/obj/hap.o
                                                  /home/vboxuser/topst/cr5-bsp/sources/build/tcc805x/gcc/tcc805x-freertos-debug/obj/pwm_test.o
                                                  /home/vboxuser/topst/cr5-bsp/sources/build/tcc805x/gcc/tcc805x-freertos-debug/obj/wdt_test.o
                                                  /home/vboxuser/topst/cr5-bsp/sources/build/tcc805x/gcc/tcc805x-freertos-debug/obj/timer_test.o
                                                  /home/vboxuser/topst/cr5-bsp/sources/build/tcc805x/gcc/tcc805x-freertos-debug/obj/pmio_test.o
                                                  /home/vboxuser/topst/cr5-bsp/sources/build/tcc805x/gcc/tcc805x-freertos-debug/obj/pdm_test.o
                                                  /home/vboxuser/topst/cr5-bsp/sources/build/tcc805x/gcc/tcc805x-freertos-debug/obj/lin_test.o
                                                  /home/vboxuser/topst/cr5-bsp/sources/build/tcc805x/gcc/tcc805x-freertos-debug/obj/ictc_test.o
                                                  /home/vboxuser/topst/cr5-bsp/sources/build/tcc805x/gcc/tcc805x-freertos-debug/obj/i2c_test.o
                                                  /home/vboxuser/topst/cr5-bsp/sources/build/tcc805x/gcc/tcc805x-freertos-debug/obj/hsm_test.o
                                                  /home/vboxuser/topst/cr5-bsp/sources/build/tcc805x/gcc/tcc805x-freertos-debug/obj/gpsb_test.o
                                                  /home/vboxuser/topst/cr5-bsp/sources/build/tcc805x/gcc/tcc805x-freertos-debug/obj/gpio_test.o
                                                  /home/vboxuser/topst/cr5-bsp/sources/build/tcc805x/gcc/tcc805x-freertos-debug/obj/gic_test.o
                                                  /home/vboxuser/topst/cr5-bsp/sources/build/tcc805x/gcc/tcc805x-freertos-debug/obj/gdma_test.o
                                                  /home/vboxuser/topst/cr5-bsp/sources/build/tcc805x/gcc/tcc805x-freertos-debug/obj/fmu_test.o
                                                  /home/vboxuser/topst/cr5-bsp/sources/build/tcc805x/gcc/tcc805x-freertos-debug/obj/dse_test.o
                                                  /home/vboxuser/topst/cr5-bsp/sources/build/tcc805x/gcc/tcc805x-freertos-debug/obj/adc_test.o
                                                  /home/vboxuser/topst/cr5-bsp/sources/build/tcc805x/gcc/tcc805x-freertos-debug/obj/reset_demo.o
                                                  /home/vboxuser/topst/cr5-bsp/sources/build/tcc805x/gcc/tcc805x-freertos-debug/obj/bootctrl.o
                                                  /home/vboxuser/topst/cr5-bsp/sources/build/tcc805x/gcc/tcc805x-freertos-debug/obj/key_i2c.o
                                                  /home/vboxuser/topst/cr5-bsp/sources/build/tcc805x/gcc/tcc805x-freertos-debug/obj/fwug.o
                                                  /home/vboxuser/topst/cr5-bsp/sources/build/tcc805x/gcc/tcc805x-freertos-debug/obj/console.o
                                                  /home/vboxuser/topst/cr5-bsp/sources/build/tcc805x/gcc/tcc805x-freertos-debug/obj/can_demo.o
                                                  /home/vboxuser/topst/cr5-bsp/sources/build/tcc805x/gcc/tcc805x-freertos-debug/obj/main.o
DSE_Deinit                                        /home/vboxuser/topst/cr5-bsp/sources/build/tcc805x/gcc/tcc805x-freertos-debug/obj/dse.o
                                                  /home/vboxuser/topst/cr5-bsp/sources/build/tcc805x/gcc/tcc805x-freertos-debug/obj/dse_test.o
DSE_GetGrpSts                                     /home/vboxuser/topst/cr5-bsp/sources/build/tcc805x/gcc/tcc805x-freertos-debug/obj/dse.o
                                                  /home/vboxuser/topst/cr5-bsp/sources/build/tcc805x/gcc/tcc805x-freertos-debug/obj/dse_test.o
DSE_Init                                          /home/vboxuser/topst/cr5-bsp/sources/build/tcc805x/gcc/tcc805x-freertos-debug/obj/dse.o
                                                  /home/vboxuser/topst/cr5-bsp/sources/build/tcc805x/gcc/tcc805x-freertos-debug/obj/dse_test.o
DSE_Test_R5AccessFault                            /home/vboxuser/topst/cr5-bsp/sources/build/tcc805x/gcc/tcc805x-freertos-debug/obj/dse_test.o
                                                  /home/vboxuser/topst/cr5-bsp/sources/build/tcc805x/gcc/tcc805x-freertos-debug/obj/console.o
DSE_Test_SoftFaultCheck                           /home/vboxuser/topst/cr5-bsp/sources/build/tcc805x/gcc/tcc805x-freertos-debug/obj/dse_test.o
                                                  /home/vboxuser/topst/cr5-bsp/sources/build/tcc805x/gcc/tcc805x-freertos-debug/obj/console.o
DSE_WriteLock                                     /home/vboxuser/topst/cr5-bsp/sources/build/tcc805x/gcc/tcc805x-freertos-debug/obj/dse.o
                                                  /home/vboxuser/topst/cr5-bsp/sources/build/tcc805x/gcc/tcc805x-freertos-debug/obj/dse_test.o
DataPhaseTimingPar                                /home/vboxuser/topst/cr5-bsp/sources/build/tcc805x/gcc/tcc805x-freertos-debug/obj/can_par.o
                                                  /home/vboxuser/topst/cr5-bsp/sources/build/tcc805x/gcc/tcc805x-freertos-debug/obj/can_drv.o
ExtendedIDFilterPar                               /home/vboxuser/topst/cr5-bsp/sources/build/tcc805x/gcc/tcc805x-freertos-debug/obj/can_par.o
                                                  /home/vboxuser/topst/cr5-bsp/sources/build/tcc805x/gcc/tcc805x-freertos-debug/obj/can_drv.o
FMU_Deinit                                        /home/vboxuser/topst/cr5-bsp/sources/build/tcc805x/gcc/tcc805x-freertos-debug/obj/fmu.o
                                                  /home/vboxuser/topst/cr5-bsp/sources/build/tcc805x/gcc/tcc805x-freertos-debug/obj/gpsb_test.o
FMU_Init                                          /home/vboxuser/topst/cr5-bsp/sources/build/tcc805x/gcc/tcc805x-freertos-debug/obj/fmu.o
                                                  /home/vboxuser/topst/cr5-bsp/sources/build/tcc805x/gcc/tcc805x-freertos-debug/obj/bsp.o
FMU_IsrClr                                        /home/vboxuser/topst/cr5-bsp/sources/build/tcc805x/gcc/tcc805x-freertos-debug/obj/fmu.o
                                                  /home/vboxuser/topst/cr5-bsp/sources/build/tcc805x/gcc/tcc805x-freertos-debug/obj/midf.o
                                                  /home/vboxuser/topst/cr5-bsp/sources/build/tcc805x/gcc/tcc805x-freertos-debug/obj/wdt.o
                                                  /home/vboxuser/topst/cr5-bsp/sources/build/tcc805x/gcc/tcc805x-freertos-debug/obj/pdm.o
                                                  /home/vboxuser/topst/cr5-bsp/sources/build/tcc805x/gcc/tcc805x-freertos-debug/obj/gpsb_test.o
                                                  /home/vboxuser/topst/cr5-bsp/sources/build/tcc805x/gcc/tcc805x-freertos-debug/obj/fmu_test.o
                                                  /home/vboxuser/topst/cr5-bsp/sources/build/tcc805x/gcc/tcc805x-freertos-debug/obj/dse_test.o
                                                  /home/vboxuser/topst/cr5-bsp/sources/build/tcc805x/gcc/tcc805x-freertos-debug/obj/adc_test.o
FMU_IsrHandler                                    /home/vboxuser/topst/cr5-bsp/sources/build/tcc805x/gcc/tcc805x-freertos-debug/obj/fmu.o
                                                  /home/vboxuser/topst/cr5-bsp/sources/build/tcc805x/gcc/tcc805x-freertos-debug/obj/midf.o
                                                  /home/vboxuser/topst/cr5-bsp/sources/build/tcc805x/gcc/tcc805x-freertos-debug/obj/wdt.o
                                                  /home/vboxuser/topst/cr5-bsp/sources/build/tcc805x/gcc/tcc805x-freertos-debug/obj/pdm.o
                                                  /home/vboxuser/topst/cr5-bsp/sources/build/tcc805x/gcc/tcc805x-freertos-debug/obj/gpsb_test.o
                                                  /home/vboxuser/topst/cr5-bsp/sources/build/tcc805x/gcc/tcc805x-freertos-debug/obj/fmu_test.o
                                                  /home/vboxuser/topst/cr5-bsp/sources/build/tcc805x/gcc/tcc805x-freertos-debug/obj/dse_test.o
                                                  /home/vboxuser/topst/cr5-bsp/sources/build/tcc805x/gcc/tcc805x-freertos-debug/obj/adc_test.o
FMU_Set                                           /home/vboxuser/topst/cr5-bsp/sources/build/tcc805x/gcc/tcc805x-freertos-debug/obj/fmu.o
                                                  /home/vboxuser/topst/cr5-bsp/sources/build/tcc805x/gcc/tcc805x-freertos-debug/obj/midf.o
                                                  /home/vboxuser/topst/cr5-bsp/sources/build/tcc805x/gcc/tcc805x-freertos-debug/obj/wdt.o
                                                  /home/vboxuser/topst/cr5-bsp/sources/build/tcc805x/gcc/tcc805x-freertos-debug/obj/pdm.o
                                                  /home/vboxuser/topst/cr5-bsp/sources/build/tcc805x/gcc/tcc805x-freertos-debug/obj/gpsb_test.o
                                                  /home/vboxuser/topst/cr5-bsp/sources/build/tcc805x/gcc/tcc805x-freertos-debug/obj/fmu_test.o
                                                  /home/vboxuser/topst/cr5-bsp/sources/build/tcc805x/gcc/tcc805x-freertos-debug/obj/dse_test.o
                                                  /home/vboxuser/topst/cr5-bsp/sources/build/tcc805x/gcc/tcc805x-freertos-debug/obj/adc_test.o
FMU_StartFmuTest                                  /home/vboxuser/topst/cr5-bsp/sources/build/tcc805x/gcc/tcc805x-freertos-debug/obj/fmu_test.o
                                                  /home/vboxuser/topst/cr5-bsp/sources/build/tcc805x/gcc/tcc805x-freertos-debug/obj/console.o
FWUG_CreateApp                                    /home/vboxuser/topst/cr5-bsp/sources/build/tcc805x/gcc/tcc805x-freertos-debug/obj/fwug.o
FWUG_Start                                        /home/vboxuser/topst/cr5-bsp/sources/build/tcc805x/gcc/tcc805x-freertos-debug/obj/fwug.o
                                                  /home/vboxuser/topst/cr5-bsp/sources/build/tcc805x/gcc/tcc805x-freertos-debug/obj/console.o
FreeRTOS_ARM_DRegCntGet                           /home/vboxuser/topst/cr5-bsp/sources/build/tcc805x/gcc/tcc805x-freertos-debug/obj/freertos.o
FreeRTOS_ARM_ExceptDataAbortHndlr                 /home/vboxuser/topst/cr5-bsp/sources/build/tcc805x/gcc/tcc805x-freertos-debug/obj/freertos.o
                                                  /home/vboxuser/topst/cr5-bsp/sources/build/tcc805x/gcc/tcc805x-freertos-debug/obj/sal.o
FreeRTOS_ARM_ExceptFiqHndlr                       /home/vboxuser/topst/cr5-bsp/sources/build/tcc805x/gcc/tcc805x-freertos-debug/obj/freertos.o
                                                  /home/vboxuser/topst/cr5-bsp/sources/build/tcc805x/gcc/tcc805x-freertos-debug/obj/sal.o
FreeRTOS_ARM_ExceptIrqHndlr                       /home/vboxuser/topst/cr5-bsp/sources/build/tcc805x/gcc/tcc805x-freertos-debug/obj/freertos.o
                                                  /home/vboxuser/topst/cr5-bsp/sources/build/tcc805x/gcc/tcc805x-freertos-debug/obj/sal.o
FreeRTOS_ARM_ExceptPrefetchAbortHndlr             /home/vboxuser/topst/cr5-bsp/sources/build/tcc805x/gcc/tcc805x-freertos-debug/obj/freertos.o
                                                  /home/vboxuser/topst/cr5-bsp/sources/build/tcc805x/gcc/tcc805x-freertos-debug/obj/sal.o
FreeRTOS_ARM_ExceptSwiHndlr                       /home/vboxuser/topst/cr5-bsp/sources/build/tcc805x/gcc/tcc805x-freertos-debug/obj/freertos.o
                                                  /home/vboxuser/topst/cr5-bsp/sources/build/tcc805x/gcc/tcc805x-freertos-debug/obj/sal.o
FreeRTOS_ARM_ExceptUndefInstrHndlr                /home/vboxuser/topst/cr5-bsp/sources/build/tcc805x/gcc/tcc805x-freertos-debug/obj/freertos.o
                                                  /home/vboxuser/topst/cr5-bsp/sources/build/tcc805x/gcc/tcc805x-freertos-debug/obj/sal.o
FreeRTOS_IRQ_Handler                              /home/vboxuser/topst/cr5-bsp/sources/build/tcc805x/gcc/tcc805x-freertos-debug/obj/portASM.o
                                                  /home/vboxuser/topst/cr5-bsp/sources/build/tcc805x/gcc/tcc805x-freertos-debug/obj/freertos.o
FreeRTOS_SWI_Handler                              /home/vboxuser/topst/cr5-bsp/sources/build/tcc805x/gcc/tcc805x-freertos-debug/obj/portASM.o
                                                  /home/vboxuser/topst/cr5-bsp/sources/build/tcc805x/gcc/tcc805x-freertos-debug/obj/freertos.o
FreeRTOS_Tick_Handler                             /home/vboxuser/topst/cr5-bsp/sources/build/tcc805x/gcc/tcc805x-freertos-debug/obj/port.o
                                                  /home/vboxuser/topst/cr5-bsp/sources/build/tcc805x/gcc/tcc805x-freertos-debug/obj/sal_freertos_impl.o
GDMA_Initialize                                   /home/vboxuser/topst/cr5-bsp/sources/build/tcc805x/gcc/tcc805x-freertos-debug/obj/gdma.o
                                                  /home/vboxuser/topst/cr5-bsp/sources/build/tcc805x/gcc/tcc805x-freertos-debug/obj/gdma_test.o
GDMA_SampleForM2M                                 /home/vboxuser/topst/cr5-bsp/sources/build/tcc805x/gcc/tcc805x-freertos-debug/obj/gdma_test.o
                                                  /home/vboxuser/topst/cr5-bsp/sources/build/tcc805x/gcc/tcc805x-freertos-debug/obj/console.o
GDMA_TransferFunctionForM2M                       /home/vboxuser/topst/cr5-bsp/sources/build/tcc805x/gcc/tcc805x-freertos-debug/obj/gdma.o
                                                  /home/vboxuser/topst/cr5-bsp/sources/build/tcc805x/gcc/tcc805x-freertos-debug/obj/gdma_test.o
GIC_Init                                          /home/vboxuser/topst/cr5-bsp/sources/build/tcc805x/gcc/tcc805x-freertos-debug/obj/gic.o
                                                  /home/vboxuser/topst/cr5-bsp/sources/build/tcc805x/gcc/tcc805x-freertos-debug/obj/bsp.o
GIC_IntExtSet                                     /home/vboxuser/topst/cr5-bsp/sources/build/tcc805x/gcc/tcc805x-freertos-debug/obj/gic.o
GIC_IntHandler                                    /home/vboxuser/topst/cr5-bsp/sources/build/tcc805x/gcc/tcc805x-freertos-debug/obj/gic.o
GIC_IntHandlerWithParam                           /home/vboxuser/topst/cr5-bsp/sources/build/tcc805x/gcc/tcc805x-freertos-debug/obj/gic.o
                                                  /home/vboxuser/topst/cr5-bsp/sources/build/tcc805x/gcc/tcc805x-freertos-debug/obj/port.o
GIC_IntPrioSet                                    /home/vboxuser/topst/cr5-bsp/sources/build/tcc805x/gcc/tcc805x-freertos-debug/obj/gic.o
GIC_IntSGI                                        /home/vboxuser/topst/cr5-bsp/sources/build/tcc805x/gcc/tcc805x-freertos-debug/obj/gic.o
                                                  /home/vboxuser/topst/cr5-bsp/sources/build/tcc805x/gcc/tcc805x-freertos-debug/obj/gic_test.o
GIC_IntSrcDis                                     /home/vboxuser/topst/cr5-bsp/sources/build/tcc805x/gcc/tcc805x-freertos-debug/obj/gic.o
                                                  /home/vboxuser/topst/cr5-bsp/sources/build/tcc805x/gcc/tcc805x-freertos-debug/obj/dse.o
                                                  /home/vboxuser/topst/cr5-bsp/sources/build/tcc805x/gcc/tcc805x-freertos-debug/obj/wdt.o
                                                  /home/vboxuser/topst/cr5-bsp/sources/build/tcc805x/gcc/tcc805x-freertos-debug/obj/uart.o
                                                  /home/vboxuser/topst/cr5-bsp/sources/build/tcc805x/gcc/tcc805x-freertos-debug/obj/timer.o
                                                  /home/vboxuser/topst/cr5-bsp/sources/build/tcc805x/gcc/tcc805x-freertos-debug/obj/gpsb.o
                                                  /home/vboxuser/topst/cr5-bsp/sources/build/tcc805x/gcc/tcc805x-freertos-debug/obj/i2c.o
                                                  /home/vboxuser/topst/cr5-bsp/sources/build/tcc805x/gcc/tcc805x-freertos-debug/obj/fmu.o
                                                  /home/vboxuser/topst/cr5-bsp/sources/build/tcc805x/gcc/tcc805x-freertos-debug/obj/can_porting.o
                                                  /home/vboxuser/topst/cr5-bsp/sources/build/tcc805x/gcc/tcc805x-freertos-debug/obj/adc.o
                                                  /home/vboxuser/topst/cr5-bsp/sources/build/tcc805x/gcc/tcc805x-freertos-debug/obj/ipc_os.o
                                                  /home/vboxuser/topst/cr5-bsp/sources/build/tcc805x/gcc/tcc805x-freertos-debug/obj/timer_test.o
                                                  /home/vboxuser/topst/cr5-bsp/sources/build/tcc805x/gcc/tcc805x-freertos-debug/obj/gic_test.o
                                                  /home/vboxuser/topst/cr5-bsp/sources/build/tcc805x/gcc/tcc805x-freertos-debug/obj/fwug.o
GIC_IntSrcEn                                      /home/vboxuser/topst/cr5-bsp/sources/build/tcc805x/gcc/tcc805x-freertos-debug/obj/gic.o
                                                  /home/vboxuser/topst/cr5-bsp/sources/build/tcc805x/gcc/tcc805x-freertos-debug/obj/port.o
                                                  /home/vboxuser/topst/cr5-bsp/sources/build/tcc805x/gcc/tcc805x-freertos-debug/obj/pmu_reset.o
                                                  /home/vboxuser/topst/cr5-bsp/sources/build/tcc805x/gcc/tcc805x-freertos-debug/obj/dse.o
                                                  /home/vboxuser/topst/cr5-bsp/sources/build/tcc805x/gcc/tcc805x-freertos-debug/obj/wdt.o
                                                  /home/vboxuser/topst/cr5-bsp/sources/build/tcc805x/gcc/tcc805x-freertos-debug/obj/udma.o
                                                  /home/vboxuser/topst/cr5-bsp/sources/build/tcc805x/gcc/tcc805x-freertos-debug/obj/uart.o
                                                  /home/vboxuser/topst/cr5-bsp/sources/build/tcc805x/gcc/tcc805x-freertos-debug/obj/gpsb.o
                                                  /home/vboxuser/topst/cr5-bsp/sources/build/tcc805x/gcc/tcc805x-freertos-debug/obj/pmio_dev.o
                                                  /home/vboxuser/topst/cr5-bsp/sources/build/tcc805x/gcc/tcc805x-freertos-debug/obj/mbox_dev.o
                                                  /home/vboxuser/topst/cr5-bsp/sources/build/tcc805x/gcc/tcc805x-freertos-debug/obj/ictc.o
                                                  /home/vboxuser/topst/cr5-bsp/sources/build/tcc805x/gcc/tcc805x-freertos-debug/obj/i2c.o
                                                  /home/vboxuser/topst/cr5-bsp/sources/build/tcc805x/gcc/tcc805x-freertos-debug/obj/gdma.o
                                                  /home/vboxuser/topst/cr5-bsp/sources/build/tcc805x/gcc/tcc805x-freertos-debug/obj/fmu.o
                                                  /home/vboxuser/topst/cr5-bsp/sources/build/tcc805x/gcc/tcc805x-freertos-debug/obj/can_porting.o
                                                  /home/vboxuser/topst/cr5-bsp/sources/build/tcc805x/gcc/tcc805x-freertos-debug/obj/adc.o
                                                  /home/vboxuser/topst/cr5-bsp/sources/build/tcc805x/gcc/tcc805x-freertos-debug/obj/ipc_os.o
                                                  /home/vboxuser/topst/cr5-bsp/sources/build/tcc805x/gcc/tcc805x-freertos-debug/obj/wdt_test.o
                                                  /home/vboxuser/topst/cr5-bsp/sources/build/tcc805x/gcc/tcc805x-freertos-debug/obj/timer_test.o
                                                  /home/vboxuser/topst/cr5-bsp/sources/build/tcc805x/gcc/tcc805x-freertos-debug/obj/gic_test.o
                                                  /home/vboxuser/topst/cr5-bsp/sources/build/tcc805x/gcc/tcc805x-freertos-debug/obj/adc_test.o
GIC_IntVectSet                                    /home/vboxuser/topst/cr5-bsp/sources/build/tcc805x/gcc/tcc805x-freertos-debug/obj/gic.o
                                                  /home/vboxuser/topst/cr5-bsp/sources/build/tcc805x/gcc/tcc805x-freertos-debug/obj/port.o
                                                  /home/vboxuser/topst/cr5-bsp/sources/build/tcc805x/gcc/tcc805x-freertos-debug/obj/pmu_reset.o
                                                  /home/vboxuser/topst/cr5-bsp/sources/build/tcc805x/gcc/tcc805x-freertos-debug/obj/dse.o
                                                  /home/vboxuser/topst/cr5-bsp/sources/build/tcc805x/gcc/tcc805x-freertos-debug/obj/wdt.o
                                                  /home/vboxuser/topst/cr5-bsp/sources/build/tcc805x/gcc/tcc805x-freertos-debug/obj/udma.o
                                                  /home/vboxuser/topst/cr5-bsp/sources/build/tcc805x/gcc/tcc805x-freertos-debug/obj/uart.o
                                                  /home/vboxuser/topst/cr5-bsp/sources/build/tcc805x/gcc/tcc805x-freertos-debug/obj/timer.o
                                                  /home/vboxuser/topst/cr5-bsp/sources/build/tcc805x/gcc/tcc805x-freertos-debug/obj/gpsb.o
                                                  /home/vboxuser/topst/cr5-bsp/sources/build/tcc805x/gcc/tcc805x-freertos-debug/obj/pmio_dev.o
                                                  /home/vboxuser/topst/cr5-bsp/sources/build/tcc805x/gcc/tcc805x-freertos-debug/obj/mbox_dev.o
                                                  /home/vboxuser/topst/cr5-bsp/sources/build/tcc805x/gcc/tcc805x-freertos-debug/obj/ictc.o
                                                  /home/vboxuser/topst/cr5-bsp/sources/build/tcc805x/gcc/tcc805x-freertos-debug/obj/i2c.o
                                                  /home/vboxuser/topst/cr5-bsp/sources/build/tcc805x/gcc/tcc805x-freertos-debug/obj/gdma.o
                                                  /home/vboxuser/topst/cr5-bsp/sources/build/tcc805x/gcc/tcc805x-freertos-debug/obj/fmu.o
                                                  /home/vboxuser/topst/cr5-bsp/sources/build/tcc805x/gcc/tcc805x-freertos-debug/obj/can_porting.o
                                                  /home/vboxuser/topst/cr5-bsp/sources/build/tcc805x/gcc/tcc805x-freertos-debug/obj/adc.o
                                                  /home/vboxuser/topst/cr5-bsp/sources/build/tcc805x/gcc/tcc805x-freertos-debug/obj/ipc_os.o
                                                  /home/vboxuser/topst/cr5-bsp/sources/build/tcc805x/gcc/tcc805x-freertos-debug/obj/timer_test.o
                                                  /home/vboxuser/topst/cr5-bsp/sources/build/tcc805x/gcc/tcc805x-freertos-debug/obj/gic_test.o
                                                  /home/vboxuser/topst/cr5-bsp/sources/build/tcc805x/gcc/tcc805x-freertos-debug/obj/adc_test.o
GIC_SmIrqEn                                       /home/vboxuser/topst/cr5-bsp/sources/build/tcc805x/gcc/tcc805x-freertos-debug/obj/gic.o
                                                  /home/vboxuser/topst/cr5-bsp/sources/build/tcc805x/gcc/tcc805x-freertos-debug/obj/gic_test.o
GIC_SmIrqSetHigh                                  /home/vboxuser/topst/cr5-bsp/sources/build/tcc805x/gcc/tcc805x-freertos-debug/obj/gic.o
                                                  /home/vboxuser/topst/cr5-bsp/sources/build/tcc805x/gcc/tcc805x-freertos-debug/obj/gic_test.o
GIC_Test_Sgi                                      /home/vboxuser/topst/cr5-bsp/sources/build/tcc805x/gcc/tcc805x-freertos-debug/obj/gic_test.o
                                                  /home/vboxuser/topst/cr5-bsp/sources/build/tcc805x/gcc/tcc805x-freertos-debug/obj/console.o
GIC_Test_SmInt                                    /home/vboxuser/topst/cr5-bsp/sources/build/tcc805x/gcc/tcc805x-freertos-debug/obj/gic_test.o
                                                  /home/vboxuser/topst/cr5-bsp/sources/build/tcc805x/gcc/tcc805x-freertos-debug/obj/console.o
GPIO_Config                                       /home/vboxuser/topst/cr5-bsp/sources/build/tcc805x/gcc/tcc805x-freertos-debug/obj/gpio.o
                                                  /home/vboxuser/topst/cr5-bsp/sources/build/tcc805x/gcc/tcc805x-freertos-debug/obj/uart.o
                                                  /home/vboxuser/topst/cr5-bsp/sources/build/tcc805x/gcc/tcc805x-freertos-debug/obj/gpsb.o
                                                  /home/vboxuser/topst/cr5-bsp/sources/build/tcc805x/gcc/tcc805x-freertos-debug/obj/i2c.o
                                                  /home/vboxuser/topst/cr5-bsp/sources/build/tcc805x/gcc/tcc805x-freertos-debug/obj/can_porting.o
                                                  /home/vboxuser/topst/cr5-bsp/sources/build/tcc805x/gcc/tcc805x-freertos-debug/obj/lin.o
                                                  /home/vboxuser/topst/cr5-bsp/sources/build/tcc805x/gcc/tcc805x-freertos-debug/obj/mptool.o
                                                  /home/vboxuser/topst/cr5-bsp/sources/build/tcc805x/gcc/tcc805x-freertos-debug/obj/hap.o
                                                  /home/vboxuser/topst/cr5-bsp/sources/build/tcc805x/gcc/tcc805x-freertos-debug/obj/pwm_test.o
                                                  /home/vboxuser/topst/cr5-bsp/sources/build/tcc805x/gcc/tcc805x-freertos-debug/obj/pdm_test.o
                                                  /home/vboxuser/topst/cr5-bsp/sources/build/tcc805x/gcc/tcc805x-freertos-debug/obj/ictc_test.o
                                                  /home/vboxuser/topst/cr5-bsp/sources/build/tcc805x/gcc/tcc805x-freertos-debug/obj/gpio_test.o
                                                  /home/vboxuser/topst/cr5-bsp/sources/build/tcc805x/gcc/tcc805x-freertos-debug/obj/key_gpio.o
                                                  /home/vboxuser/topst/cr5-bsp/sources/build/tcc805x/gcc/tcc805x-freertos-debug/obj/key_adc.o
                                                  /home/vboxuser/topst/cr5-bsp/sources/build/tcc805x/gcc/tcc805x-freertos-debug/obj/console.o
GPIO_Get                                          /home/vboxuser/topst/cr5-bsp/sources/build/tcc805x/gcc/tcc805x-freertos-debug/obj/gpio.o
                                                  /home/vboxuser/topst/cr5-bsp/sources/build/tcc805x/gcc/tcc805x-freertos-debug/obj/mptool.o
                                                  /home/vboxuser/topst/cr5-bsp/sources/build/tcc805x/gcc/tcc805x-freertos-debug/obj/hap.o
                                                  /home/vboxuser/topst/cr5-bsp/sources/build/tcc805x/gcc/tcc805x-freertos-debug/obj/pwm_test.o
                                                  /home/vboxuser/topst/cr5-bsp/sources/build/tcc805x/gcc/tcc805x-freertos-debug/obj/key_gpio.o
                                                  /home/vboxuser/topst/cr5-bsp/sources/build/tcc805x/gcc/tcc805x-freertos-debug/obj/key_adc.o
GPIO_Set                                          /home/vboxuser/topst/cr5-bsp/sources/build/tcc805x/gcc/tcc805x-freertos-debug/obj/gpio.o
                                                  /home/vboxuser/topst/cr5-bsp/sources/build/tcc805x/gcc/tcc805x-freertos-debug/obj/gpsb.o
                                                  /home/vboxuser/topst/cr5-bsp/sources/build/tcc805x/gcc/tcc805x-freertos-debug/obj/can_porting.o
                                                  /home/vboxuser/topst/cr5-bsp/sources/build/tcc805x/gcc/tcc805x-freertos-debug/obj/lin.o
                                                  /home/vboxuser/topst/cr5-bsp/sources/build/tcc805x/gcc/tcc805x-freertos-debug/obj/mptool.o
                                                  /home/vboxuser/topst/cr5-bsp/sources/build/tcc805x/gcc/tcc805x-freertos-debug/obj/hap.o
                                                  /home/vboxuser/topst/cr5-bsp/sources/build/tcc805x/gcc/tcc805x-freertos-debug/obj/pwm_test.o
GPIO_StartGpioTest                                /home/vboxuser/topst/cr5-bsp/sources/build/tcc805x/gcc/tcc805x-freertos-debug/obj/gpio_test.o
                                                  /home/vboxuser/topst/cr5-bsp/sources/build/tcc805x/gcc/tcc805x-freertos-debug/obj/console.o
GPIO_ToNum                                        /home/vboxuser/topst/cr5-bsp/sources/build/tcc805x/gcc/tcc805x-freertos-debug/obj/gpio.o
                                                  /home/vboxuser/topst/cr5-bsp/sources/build/tcc805x/gcc/tcc805x-freertos-debug/obj/gpsb.o
GPSB_BitCSet                                      /home/vboxuser/topst/cr5-bsp/sources/build/tcc805x/gcc/tcc805x-freertos-debug/obj/gpsb.o
GPSB_BitClear                                     /home/vboxuser/topst/cr5-bsp/sources/build/tcc805x/gcc/tcc805x-freertos-debug/obj/gpsb.o
GPSB_BitSClear                                    /home/vboxuser/topst/cr5-bsp/sources/build/tcc805x/gcc/tcc805x-freertos-debug/obj/gpsb.o
GPSB_BitSet                                       /home/vboxuser/topst/cr5-bsp/sources/build/tcc805x/gcc/tcc805x-freertos-debug/obj/gpsb.o
GPSB_ClearLbCfg                                   /home/vboxuser/topst/cr5-bsp/sources/build/tcc805x/gcc/tcc805x-freertos-debug/obj/gpsb.o
GPSB_Close                                        /home/vboxuser/topst/cr5-bsp/sources/build/tcc805x/gcc/tcc805x-freertos-debug/obj/gpsb.o
                                                  /home/vboxuser/topst/cr5-bsp/sources/build/tcc805x/gcc/tcc805x-freertos-debug/obj/sdm.o
                                                  /home/vboxuser/topst/cr5-bsp/sources/build/tcc805x/gcc/tcc805x-freertos-debug/obj/gpsb_test.o
GPSB_CsActivate                                   /home/vboxuser/topst/cr5-bsp/sources/build/tcc805x/gcc/tcc805x-freertos-debug/obj/gpsb.o
                                                  /home/vboxuser/topst/cr5-bsp/sources/build/tcc805x/gcc/tcc805x-freertos-debug/obj/gpsb_test.o
GPSB_CsAlloc                                      /home/vboxuser/topst/cr5-bsp/sources/build/tcc805x/gcc/tcc805x-freertos-debug/obj/gpsb.o
                                                  /home/vboxuser/topst/cr5-bsp/sources/build/tcc805x/gcc/tcc805x-freertos-debug/obj/gpsb_test.o
GPSB_CsDeactivate                                 /home/vboxuser/topst/cr5-bsp/sources/build/tcc805x/gcc/tcc805x-freertos-debug/obj/gpsb.o
                                                  /home/vboxuser/topst/cr5-bsp/sources/build/tcc805x/gcc/tcc805x-freertos-debug/obj/gpsb_test.o
GPSB_CsInit                                       /home/vboxuser/topst/cr5-bsp/sources/build/tcc805x/gcc/tcc805x-freertos-debug/obj/gpsb.o
                                                  /home/vboxuser/topst/cr5-bsp/sources/build/tcc805x/gcc/tcc805x-freertos-debug/obj/gpsb_test.o
GPSB_Deinit                                       /home/vboxuser/topst/cr5-bsp/sources/build/tcc805x/gcc/tcc805x-freertos-debug/obj/gpsb.o
GPSB_Init                                         /home/vboxuser/topst/cr5-bsp/sources/build/tcc805x/gcc/tcc805x-freertos-debug/obj/gpsb.o
                                                  /home/vboxuser/topst/cr5-bsp/sources/build/tcc805x/gcc/tcc805x-freertos-debug/obj/bsp.o
GPSB_Open                                         /home/vboxuser/topst/cr5-bsp/sources/build/tcc805x/gcc/tcc805x-freertos-debug/obj/gpsb.o
                                                  /home/vboxuser/topst/cr5-bsp/sources/build/tcc805x/gcc/tcc805x-freertos-debug/obj/sdm.o
                                                  /home/vboxuser/topst/cr5-bsp/sources/build/tcc805x/gcc/tcc805x-freertos-debug/obj/gpsb_test.o
GPSB_Reset                                        /home/vboxuser/topst/cr5-bsp/sources/build/tcc805x/gcc/tcc805x-freertos-debug/obj/gpsb.o
GPSB_SafetyDisableLock                            /home/vboxuser/topst/cr5-bsp/sources/build/tcc805x/gcc/tcc805x-freertos-debug/obj/gpsb.o
                                                  /home/vboxuser/topst/cr5-bsp/sources/build/tcc805x/gcc/tcc805x-freertos-debug/obj/gpsb_test.o
GPSB_SafetyDisableLoopback                        /home/vboxuser/topst/cr5-bsp/sources/build/tcc805x/gcc/tcc805x-freertos-debug/obj/gpsb.o
                                                  /home/vboxuser/topst/cr5-bsp/sources/build/tcc805x/gcc/tcc805x-freertos-debug/obj/gpsb_test.o
GPSB_SafetyDisableMonitor                         /home/vboxuser/topst/cr5-bsp/sources/build/tcc805x/gcc/tcc805x-freertos-debug/obj/gpsb.o
                                                  /home/vboxuser/topst/cr5-bsp/sources/build/tcc805x/gcc/tcc805x-freertos-debug/obj/gpsb_test.o
GPSB_SafetyEnableLock                             /home/vboxuser/topst/cr5-bsp/sources/build/tcc805x/gcc/tcc805x-freertos-debug/obj/gpsb.o
                                                  /home/vboxuser/topst/cr5-bsp/sources/build/tcc805x/gcc/tcc805x-freertos-debug/obj/gpsb_test.o
GPSB_SafetyEnableLoopback                         /home/vboxuser/topst/cr5-bsp/sources/build/tcc805x/gcc/tcc805x-freertos-debug/obj/gpsb.o
                                                  /home/vboxuser/topst/cr5-bsp/sources/build/tcc805x/gcc/tcc805x-freertos-debug/obj/gpsb_test.o
GPSB_SafetyEnableMonitor                          /home/vboxuser/topst/cr5-bsp/sources/build/tcc805x/gcc/tcc805x-freertos-debug/obj/gpsb.o
                                                  /home/vboxuser/topst/cr5-bsp/sources/build/tcc805x/gcc/tcc805x-freertos-debug/obj/gpsb_test.o
GPSB_SafetyGetStatus                              /home/vboxuser/topst/cr5-bsp/sources/build/tcc805x/gcc/tcc805x-freertos-debug/obj/gpsb.o
                                                  /home/vboxuser/topst/cr5-bsp/sources/build/tcc805x/gcc/tcc805x-freertos-debug/obj/gpsb_test.o
GPSB_SetBpw                                       /home/vboxuser/topst/cr5-bsp/sources/build/tcc805x/gcc/tcc805x-freertos-debug/obj/gpsb.o
                                                  /home/vboxuser/topst/cr5-bsp/sources/build/tcc805x/gcc/tcc805x-freertos-debug/obj/sdm.o
                                                  /home/vboxuser/topst/cr5-bsp/sources/build/tcc805x/gcc/tcc805x-freertos-debug/obj/gpsb_test.o
GPSB_SetBpwNoSwap                                 /home/vboxuser/topst/cr5-bsp/sources/build/tcc805x/gcc/tcc805x-freertos-debug/obj/gpsb.o
GPSB_SetLbCfg                                     /home/vboxuser/topst/cr5-bsp/sources/build/tcc805x/gcc/tcc805x-freertos-debug/obj/gpsb.o
GPSB_SetMode                                      /home/vboxuser/topst/cr5-bsp/sources/build/tcc805x/gcc/tcc805x-freertos-debug/obj/gpsb.o
                                                  /home/vboxuser/topst/cr5-bsp/sources/build/tcc805x/gcc/tcc805x-freertos-debug/obj/sdm.o
                                                  /home/vboxuser/topst/cr5-bsp/sources/build/tcc805x/gcc/tcc805x-freertos-debug/obj/gpsb_test.o
GPSB_SetRvcChannel                                /home/vboxuser/topst/cr5-bsp/sources/build/tcc805x/gcc/tcc805x-freertos-debug/obj/gpsb.o
                                                  /home/vboxuser/topst/cr5-bsp/sources/build/tcc805x/gcc/tcc805x-freertos-debug/obj/gpsb_test.o
GPSB_SetRvcExtPort                                /home/vboxuser/topst/cr5-bsp/sources/build/tcc805x/gcc/tcc805x-freertos-debug/obj/gpsb.o
GPSB_SetSdmChannel                                /home/vboxuser/topst/cr5-bsp/sources/build/tcc805x/gcc/tcc805x-freertos-debug/obj/gpsb.o
                                                  /home/vboxuser/topst/cr5-bsp/sources/build/tcc805x/gcc/tcc805x-freertos-debug/obj/gpsb_test.o
GPSB_SetSdmExtPort                                /home/vboxuser/topst/cr5-bsp/sources/build/tcc805x/gcc/tcc805x-freertos-debug/obj/gpsb.o
GPSB_SetSpeed                                     /home/vboxuser/topst/cr5-bsp/sources/build/tcc805x/gcc/tcc805x-freertos-debug/obj/gpsb.o
                                                  /home/vboxuser/topst/cr5-bsp/sources/build/tcc805x/gcc/tcc805x-freertos-debug/obj/sdm.o
                                                  /home/vboxuser/topst/cr5-bsp/sources/build/tcc805x/gcc/tcc805x-freertos-debug/obj/gpsb_test.o
GPSB_Test                                         /home/vboxuser/topst/cr5-bsp/sources/build/tcc805x/gcc/tcc805x-freertos-debug/obj/gpsb_test.o
                                                  /home/vboxuser/topst/cr5-bsp/sources/build/tcc805x/gcc/tcc805x-freertos-debug/obj/console.o
GPSB_Xfer                                         /home/vboxuser/topst/cr5-bsp/sources/build/tcc805x/gcc/tcc805x-freertos-debug/obj/gpsb.o
                                                  /home/vboxuser/topst/cr5-bsp/sources/build/tcc805x/gcc/tcc805x-freertos-debug/obj/sdm.o
                                                  /home/vboxuser/topst/cr5-bsp/sources/build/tcc805x/gcc/tcc805x-freertos-debug/obj/gpsb_test.o
GPSB_XferAbort                                    /home/vboxuser/topst/cr5-bsp/sources/build/tcc805x/gcc/tcc805x-freertos-debug/obj/gpsb.o
HSM_BlockApSystem                                 /home/vboxuser/topst/cr5-bsp/sources/build/tcc805x/gcc/tcc805x-freertos-debug/obj/hsm_manager.o
                                                  /home/vboxuser/topst/cr5-bsp/sources/build/tcc805x/gcc/tcc805x-freertos-debug/obj/hsm_test.o
HSM_GenHash                                       /home/vboxuser/topst/cr5-bsp/sources/build/tcc805x/gcc/tcc805x-freertos-debug/obj/hsm_manager.o
                                                  /home/vboxuser/topst/cr5-bsp/sources/build/tcc805x/gcc/tcc805x-freertos-debug/obj/hsm_test.o
HSM_GenMac                                        /home/vboxuser/topst/cr5-bsp/sources/build/tcc805x/gcc/tcc805x-freertos-debug/obj/hsm_manager.o
                                                  /home/vboxuser/topst/cr5-bsp/sources/build/tcc805x/gcc/tcc805x-freertos-debug/obj/hsm_test.o
HSM_GenMacByKt                                    /home/vboxuser/topst/cr5-bsp/sources/build/tcc805x/gcc/tcc805x-freertos-debug/obj/hsm_manager.o
                                                  /home/vboxuser/topst/cr5-bsp/sources/build/tcc805x/gcc/tcc805x-freertos-debug/obj/hsm_test.o
HSM_GetRand                                       /home/vboxuser/topst/cr5-bsp/sources/build/tcc805x/gcc/tcc805x-freertos-debug/obj/hsm_manager.o
                                                  /home/vboxuser/topst/cr5-bsp/sources/build/tcc805x/gcc/tcc805x-freertos-debug/obj/hsm_test.o
HSM_GetVersion                                    /home/vboxuser/topst/cr5-bsp/sources/build/tcc805x/gcc/tcc805x-freertos-debug/obj/hsm_manager.o
                                                  /home/vboxuser/topst/cr5-bsp/sources/build/tcc805x/gcc/tcc805x-freertos-debug/obj/hsm_test.o
HSM_Init                                          /home/vboxuser/topst/cr5-bsp/sources/build/tcc805x/gcc/tcc805x-freertos-debug/obj/hsm_manager.o
                                                  /home/vboxuser/topst/cr5-bsp/sources/build/tcc805x/gcc/tcc805x-freertos-debug/obj/hsm_test.o
                                                  /home/vboxuser/topst/cr5-bsp/sources/build/tcc805x/gcc/tcc805x-freertos-debug/obj/fwug.o
HSM_RunAes                                        /home/vboxuser/topst/cr5-bsp/sources/build/tcc805x/gcc/tcc805x-freertos-debug/obj/hsm_manager.o
                                                  /home/vboxuser/topst/cr5-bsp/sources/build/tcc805x/gcc/tcc805x-freertos-debug/obj/hsm_test.o
HSM_RunAesByKt                                    /home/vboxuser/topst/cr5-bsp/sources/build/tcc805x/gcc/tcc805x-freertos-debug/obj/hsm_manager.o
                                                  /home/vboxuser/topst/cr5-bsp/sources/build/tcc805x/gcc/tcc805x-freertos-debug/obj/hsm_test.o
HSM_RunEcdsa                                      /home/vboxuser/topst/cr5-bsp/sources/build/tcc805x/gcc/tcc805x-freertos-debug/obj/hsm_manager.o
                                                  /home/vboxuser/topst/cr5-bsp/sources/build/tcc805x/gcc/tcc805x-freertos-debug/obj/hsm_test.o
HSM_RunRsa                                        /home/vboxuser/topst/cr5-bsp/sources/build/tcc805x/gcc/tcc805x-freertos-debug/obj/hsm_manager.o
                                                  /home/vboxuser/topst/cr5-bsp/sources/build/tcc805x/gcc/tcc805x-freertos-debug/obj/hsm_test.o
HSM_SetKey                                        /home/vboxuser/topst/cr5-bsp/sources/build/tcc805x/gcc/tcc805x-freertos-debug/obj/hsm_manager.o
                                                  /home/vboxuser/topst/cr5-bsp/sources/build/tcc805x/gcc/tcc805x-freertos-debug/obj/hsm_test.o
HSM_Test                                          /home/vboxuser/topst/cr5-bsp/sources/build/tcc805x/gcc/tcc805x-freertos-debug/obj/hsm_test.o
                                                  /home/vboxuser/topst/cr5-bsp/sources/build/tcc805x/gcc/tcc805x-freertos-debug/obj/console.o
HSM_VerifyFw                                      /home/vboxuser/topst/cr5-bsp/sources/build/tcc805x/gcc/tcc805x-freertos-debug/obj/hsm_manager.o
                                                  /home/vboxuser/topst/cr5-bsp/sources/build/tcc805x/gcc/tcc805x-freertos-debug/obj/fwug.o
HSM_Write                                         /home/vboxuser/topst/cr5-bsp/sources/build/tcc805x/gcc/tcc805x-freertos-debug/obj/hsm_manager.o
                                                  /home/vboxuser/topst/cr5-bsp/sources/build/tcc805x/gcc/tcc805x-freertos-debug/obj/hsm_test.o
I2C_Close                                         /home/vboxuser/topst/cr5-bsp/sources/build/tcc805x/gcc/tcc805x-freertos-debug/obj/i2c.o
                                                  /home/vboxuser/topst/cr5-bsp/sources/build/tcc805x/gcc/tcc805x-freertos-debug/obj/i2c_test.o
I2C_Deinit                                        /home/vboxuser/topst/cr5-bsp/sources/build/tcc805x/gcc/tcc805x-freertos-debug/obj/i2c.o
I2C_GetMachineState                               /home/vboxuser/topst/cr5-bsp/sources/build/tcc805x/gcc/tcc805x-freertos-debug/obj/i2c.o
I2C_Init                                          /home/vboxuser/topst/cr5-bsp/sources/build/tcc805x/gcc/tcc805x-freertos-debug/obj/i2c.o
                                                  /home/vboxuser/topst/cr5-bsp/sources/build/tcc805x/gcc/tcc805x-freertos-debug/obj/bsp.o
I2C_Open                                          /home/vboxuser/topst/cr5-bsp/sources/build/tcc805x/gcc/tcc805x-freertos-debug/obj/i2c.o
                                                  /home/vboxuser/topst/cr5-bsp/sources/build/tcc805x/gcc/tcc805x-freertos-debug/obj/i2c_test.o
                                                  /home/vboxuser/topst/cr5-bsp/sources/build/tcc805x/gcc/tcc805x-freertos-debug/obj/key_i2c.o
I2C_ScanSlave                                     /home/vboxuser/topst/cr5-bsp/sources/build/tcc805x/gcc/tcc805x-freertos-debug/obj/i2c.o
                                                  /home/vboxuser/topst/cr5-bsp/sources/build/tcc805x/gcc/tcc805x-freertos-debug/obj/i2c_test.o
I2C_TestMain                                      /home/vboxuser/topst/cr5-bsp/sources/build/tcc805x/gcc/tcc805x-freertos-debug/obj/i2c_test.o
                                                  /home/vboxuser/topst/cr5-bsp/sources/build/tcc805x/gcc/tcc805x-freertos-debug/obj/console.o
I2C_Xfer                                          /home/vboxuser/topst/cr5-bsp/sources/build/tcc805x/gcc/tcc805x-freertos-debug/obj/i2c.o
                                                  /home/vboxuser/topst/cr5-bsp/sources/build/tcc805x/gcc/tcc805x-freertos-debug/obj/key_i2c.o
I2C_XferCmd                                       /home/vboxuser/topst/cr5-bsp/sources/build/tcc805x/gcc/tcc805x-freertos-debug/obj/i2c.o
                                                  /home/vboxuser/topst/cr5-bsp/sources/build/tcc805x/gcc/tcc805x-freertos-debug/obj/i2c_test.o
                                                  /home/vboxuser/topst/cr5-bsp/sources/build/tcc805x/gcc/tcc805x-freertos-debug/obj/key_i2c.o
ICTC_Deinit                                       /home/vboxuser/topst/cr5-bsp/sources/build/tcc805x/gcc/tcc805x-freertos-debug/obj/ictc.o
ICTC_DisableCapture                               /home/vboxuser/topst/cr5-bsp/sources/build/tcc805x/gcc/tcc805x-freertos-debug/obj/ictc.o
                                                  /home/vboxuser/topst/cr5-bsp/sources/build/tcc805x/gcc/tcc805x-freertos-debug/obj/ictc_test.o
ICTC_EnableCapture                                /home/vboxuser/topst/cr5-bsp/sources/build/tcc805x/gcc/tcc805x-freertos-debug/obj/ictc.o
                                                  /home/vboxuser/topst/cr5-bsp/sources/build/tcc805x/gcc/tcc805x-freertos-debug/obj/ictc_test.o
ICTC_GetCurEdgeCnt                                /home/vboxuser/topst/cr5-bsp/sources/build/tcc805x/gcc/tcc805x-freertos-debug/obj/ictc.o
ICTC_GetFEdgeTstmpCnt                             /home/vboxuser/topst/cr5-bsp/sources/build/tcc805x/gcc/tcc805x-freertos-debug/obj/ictc.o
ICTC_GetPreDutyCnt                                /home/vboxuser/topst/cr5-bsp/sources/build/tcc805x/gcc/tcc805x-freertos-debug/obj/ictc.o
ICTC_GetPrevPeriodCnt                             /home/vboxuser/topst/cr5-bsp/sources/build/tcc805x/gcc/tcc805x-freertos-debug/obj/ictc.o
ICTC_GetPrvEdgeCnt                                /home/vboxuser/topst/cr5-bsp/sources/build/tcc805x/gcc/tcc805x-freertos-debug/obj/ictc.o
ICTC_GetREdgeTstmpCnt                             /home/vboxuser/topst/cr5-bsp/sources/build/tcc805x/gcc/tcc805x-freertos-debug/obj/ictc.o
ICTC_Init                                         /home/vboxuser/topst/cr5-bsp/sources/build/tcc805x/gcc/tcc805x-freertos-debug/obj/ictc.o
                                                  /home/vboxuser/topst/cr5-bsp/sources/build/tcc805x/gcc/tcc805x-freertos-debug/obj/ictc_test.o
ICTC_SelectTestCase                               /home/vboxuser/topst/cr5-bsp/sources/build/tcc805x/gcc/tcc805x-freertos-debug/obj/ictc_test.o
                                                  /home/vboxuser/topst/cr5-bsp/sources/build/tcc805x/gcc/tcc805x-freertos-debug/obj/console.o
ICTC_SetCallBackFunc                              /home/vboxuser/topst/cr5-bsp/sources/build/tcc805x/gcc/tcc805x-freertos-debug/obj/ictc.o
                                                  /home/vboxuser/topst/cr5-bsp/sources/build/tcc805x/gcc/tcc805x-freertos-debug/obj/ictc_test.o
ICTC_SetCompareRoundValue                         /home/vboxuser/topst/cr5-bsp/sources/build/tcc805x/gcc/tcc805x-freertos-debug/obj/ictc.o
                                                  /home/vboxuser/topst/cr5-bsp/sources/build/tcc805x/gcc/tcc805x-freertos-debug/obj/ictc_test.o
ICTC_SetEdgeMatchingValue                         /home/vboxuser/topst/cr5-bsp/sources/build/tcc805x/gcc/tcc805x-freertos-debug/obj/ictc.o
                                                  /home/vboxuser/topst/cr5-bsp/sources/build/tcc805x/gcc/tcc805x-freertos-debug/obj/ictc_test.o
ICTC_SetIRQCtrlReg                                /home/vboxuser/topst/cr5-bsp/sources/build/tcc805x/gcc/tcc805x-freertos-debug/obj/ictc.o
                                                  /home/vboxuser/topst/cr5-bsp/sources/build/tcc805x/gcc/tcc805x-freertos-debug/obj/ictc_test.o
ICTC_SetOpEnCtrlCounter                           /home/vboxuser/topst/cr5-bsp/sources/build/tcc805x/gcc/tcc805x-freertos-debug/obj/ictc.o
                                                  /home/vboxuser/topst/cr5-bsp/sources/build/tcc805x/gcc/tcc805x-freertos-debug/obj/ictc_test.o
ICTC_SetOpModeCtrlReg                             /home/vboxuser/topst/cr5-bsp/sources/build/tcc805x/gcc/tcc805x-freertos-debug/obj/ictc.o
                                                  /home/vboxuser/topst/cr5-bsp/sources/build/tcc805x/gcc/tcc805x-freertos-debug/obj/ictc_test.o
ICTC_SetTimeoutValue                              /home/vboxuser/topst/cr5-bsp/sources/build/tcc805x/gcc/tcc805x-freertos-debug/obj/ictc.o
                                                  /home/vboxuser/topst/cr5-bsp/sources/build/tcc805x/gcc/tcc805x-freertos-debug/obj/ictc_test.o
IPC_BufferDataAvailable                           /home/vboxuser/topst/cr5-bsp/sources/build/tcc805x/gcc/tcc805x-freertos-debug/obj/ipc_buffer.o
                                                  /home/vboxuser/topst/cr5-bsp/sources/build/tcc805x/gcc/tcc805x-freertos-debug/obj/ipc_ctl.o
IPC_BufferFlush                                   /home/vboxuser/topst/cr5-bsp/sources/build/tcc805x/gcc/tcc805x-freertos-debug/obj/ipc_buffer.o
                                                  /home/vboxuser/topst/cr5-bsp/sources/build/tcc805x/gcc/tcc805x-freertos-debug/obj/ipc_ctl.o
IPC_BufferFlushByte                               /home/vboxuser/topst/cr5-bsp/sources/build/tcc805x/gcc/tcc805x-freertos-debug/obj/ipc_buffer.o
IPC_BufferFreeSpace                               /home/vboxuser/topst/cr5-bsp/sources/build/tcc805x/gcc/tcc805x-freertos-debug/obj/ipc_buffer.o
                                                  /home/vboxuser/topst/cr5-bsp/sources/build/tcc805x/gcc/tcc805x-freertos-debug/obj/ipc_ctl.o
IPC_BufferGetHead                                 /home/vboxuser/topst/cr5-bsp/sources/build/tcc805x/gcc/tcc805x-freertos-debug/obj/ipc_buffer.o
IPC_BufferGetTail                                 /home/vboxuser/topst/cr5-bsp/sources/build/tcc805x/gcc/tcc805x-freertos-debug/obj/ipc_buffer.o
IPC_BufferInit                                    /home/vboxuser/topst/cr5-bsp/sources/build/tcc805x/gcc/tcc805x-freertos-debug/obj/ipc_buffer.o
                                                  /home/vboxuser/topst/cr5-bsp/sources/build/tcc805x/gcc/tcc805x-freertos-debug/obj/ipc_ctl.o
IPC_BufferOverFlowWaitEventTimeOut                /home/vboxuser/topst/cr5-bsp/sources/build/tcc805x/gcc/tcc805x-freertos-debug/obj/ipc_os.o
IPC_BufferOverFlowWakeUp                          /home/vboxuser/topst/cr5-bsp/sources/build/tcc805x/gcc/tcc805x-freertos-debug/obj/ipc_os.o
                                                  /home/vboxuser/topst/cr5-bsp/sources/build/tcc805x/gcc/tcc805x-freertos-debug/obj/ipc_ctl.o
IPC_BufferSetHead                                 /home/vboxuser/topst/cr5-bsp/sources/build/tcc805x/gcc/tcc805x-freertos-debug/obj/ipc_buffer.o
IPC_BufferSetTail                                 /home/vboxuser/topst/cr5-bsp/sources/build/tcc805x/gcc/tcc805x-freertos-debug/obj/ipc_buffer.o
IPC_CalcCrc16                                     /home/vboxuser/topst/cr5-bsp/sources/build/tcc805x/gcc/tcc805x-freertos-debug/obj/ipc_api.o
                                                  /home/vboxuser/topst/cr5-bsp/sources/build/tcc805x/gcc/tcc805x-freertos-debug/obj/ipc_parser.o
IPC_Close                                         /home/vboxuser/topst/cr5-bsp/sources/build/tcc805x/gcc/tcc805x-freertos-debug/obj/ipc_api.o
IPC_CmdWaitEventTimeOut                           /home/vboxuser/topst/cr5-bsp/sources/build/tcc805x/gcc/tcc805x-freertos-debug/obj/ipc_os.o
                                                  /home/vboxuser/topst/cr5-bsp/sources/build/tcc805x/gcc/tcc805x-freertos-debug/obj/ipc_cmd.o
IPC_CmdWakePreSet                                 /home/vboxuser/topst/cr5-bsp/sources/build/tcc805x/gcc/tcc805x-freertos-debug/obj/ipc_os.o
                                                  /home/vboxuser/topst/cr5-bsp/sources/build/tcc805x/gcc/tcc805x-freertos-debug/obj/ipc_cmd.o
IPC_CmdWakeUp                                     /home/vboxuser/topst/cr5-bsp/sources/build/tcc805x/gcc/tcc805x-freertos-debug/obj/ipc_os.o
                                                  /home/vboxuser/topst/cr5-bsp/sources/build/tcc805x/gcc/tcc805x-freertos-debug/obj/ipc_ctl.o
IPC_CommonLock                                    /home/vboxuser/topst/cr5-bsp/sources/build/tcc805x/gcc/tcc805x-freertos-debug/obj/ipc_os.o
                                                  /home/vboxuser/topst/cr5-bsp/sources/build/tcc805x/gcc/tcc805x-freertos-debug/obj/ipc_api.o
                                                  /home/vboxuser/topst/cr5-bsp/sources/build/tcc805x/gcc/tcc805x-freertos-debug/obj/ipc_ctl.o
                                                  /home/vboxuser/topst/cr5-bsp/sources/build/tcc805x/gcc/tcc805x-freertos-debug/obj/ipc_cmd.o
IPC_CommonUnlock                                  /home/vboxuser/topst/cr5-bsp/sources/build/tcc805x/gcc/tcc805x-freertos-debug/obj/ipc_os.o
                                                  /home/vboxuser/topst/cr5-bsp/sources/build/tcc805x/gcc/tcc805x-freertos-debug/obj/ipc_api.o
                                                  /home/vboxuser/topst/cr5-bsp/sources/build/tcc805x/gcc/tcc805x-freertos-debug/obj/ipc_ctl.o
                                                  /home/vboxuser/topst/cr5-bsp/sources/build/tcc805x/gcc/tcc805x-freertos-debug/obj/ipc_cmd.o
IPC_Create                                        /home/vboxuser/topst/cr5-bsp/sources/build/tcc805x/gcc/tcc805x-freertos-debug/obj/ipc.o
                                                  /home/vboxuser/topst/cr5-bsp/sources/build/tcc805x/gcc/tcc805x-freertos-debug/obj/main.o
IPC_CreateIPCParserTask                           /home/vboxuser/topst/cr5-bsp/sources/build/tcc805x/gcc/tcc805x-freertos-debug/obj/ipc_parser.o
                                                  /home/vboxuser/topst/cr5-bsp/sources/build/tcc805x/gcc/tcc805x-freertos-debug/obj/ipc.o
IPC_Flush                                         /home/vboxuser/topst/cr5-bsp/sources/build/tcc805x/gcc/tcc805x-freertos-debug/obj/ipc_ctl.o
IPC_FreeIrq                                       /home/vboxuser/topst/cr5-bsp/sources/build/tcc805x/gcc/tcc805x-freertos-debug/obj/ipc_os.o
IPC_GetMsec                                       /home/vboxuser/topst/cr5-bsp/sources/build/tcc805x/gcc/tcc805x-freertos-debug/obj/ipc_os.o
                                                  /home/vboxuser/topst/cr5-bsp/sources/build/tcc805x/gcc/tcc805x-freertos-debug/obj/ipc_ctl.o
IPC_GetStatus                                     /home/vboxuser/topst/cr5-bsp/sources/build/tcc805x/gcc/tcc805x-freertos-debug/obj/ipc_ctl.o
IPC_GetUsec                                       /home/vboxuser/topst/cr5-bsp/sources/build/tcc805x/gcc/tcc805x-freertos-debug/obj/ipc_os.o
IPC_Initialize                                    /home/vboxuser/topst/cr5-bsp/sources/build/tcc805x/gcc/tcc805x-freertos-debug/obj/ipc_ctl.o
                                                  /home/vboxuser/topst/cr5-bsp/sources/build/tcc805x/gcc/tcc805x-freertos-debug/obj/ipc_api.o
IPC_Ioctl                                         /home/vboxuser/topst/cr5-bsp/sources/build/tcc805x/gcc/tcc805x-freertos-debug/obj/ipc_api.o
                                                  /home/vboxuser/topst/cr5-bsp/sources/build/tcc805x/gcc/tcc805x-freertos-debug/obj/ipc.o
                                                  /home/vboxuser/topst/cr5-bsp/sources/build/tcc805x/gcc/tcc805x-freertos-debug/obj/ipc_parser.o
IPC_IsReady                                       /home/vboxuser/topst/cr5-bsp/sources/build/tcc805x/gcc/tcc805x-freertos-debug/obj/ipc.o
                                                  /home/vboxuser/topst/cr5-bsp/sources/build/tcc805x/gcc/tcc805x-freertos-debug/obj/system_monitoring.o
IPC_MboxLock                                      /home/vboxuser/topst/cr5-bsp/sources/build/tcc805x/gcc/tcc805x-freertos-debug/obj/ipc_os.o
IPC_MboxUnlock                                    /home/vboxuser/topst/cr5-bsp/sources/build/tcc805x/gcc/tcc805x-freertos-debug/obj/ipc_os.o
IPC_Mdelay                                        /home/vboxuser/topst/cr5-bsp/sources/build/tcc805x/gcc/tcc805x-freertos-debug/obj/ipc_os.o
IPC_Open                                          /home/vboxuser/topst/cr5-bsp/sources/build/tcc805x/gcc/tcc805x-freertos-debug/obj/ipc_api.o
                                                  /home/vboxuser/topst/cr5-bsp/sources/build/tcc805x/gcc/tcc805x-freertos-debug/obj/ipc_parser.o
IPC_OsResourceInit                                /home/vboxuser/topst/cr5-bsp/sources/build/tcc805x/gcc/tcc805x-freertos-debug/obj/ipc_os.o
                                                  /home/vboxuser/topst/cr5-bsp/sources/build/tcc805x/gcc/tcc805x-freertos-debug/obj/ipc_ctl.o
IPC_OsResourceRelease                             /home/vboxuser/topst/cr5-bsp/sources/build/tcc805x/gcc/tcc805x-freertos-debug/obj/ipc_os.o
                                                  /home/vboxuser/topst/cr5-bsp/sources/build/tcc805x/gcc/tcc805x-freertos-debug/obj/ipc_ctl.o
IPC_PingTest                                      /home/vboxuser/topst/cr5-bsp/sources/build/tcc805x/gcc/tcc805x-freertos-debug/obj/ipc_ctl.o
                                                  /home/vboxuser/topst/cr5-bsp/sources/build/tcc805x/gcc/tcc805x-freertos-debug/obj/ipc_api.o
IPC_PopBuffer                                     /home/vboxuser/topst/cr5-bsp/sources/build/tcc805x/gcc/tcc805x-freertos-debug/obj/ipc_buffer.o
                                                  /home/vboxuser/topst/cr5-bsp/sources/build/tcc805x/gcc/tcc805x-freertos-debug/obj/ipc_ctl.o
IPC_PopOneByte                                    /home/vboxuser/topst/cr5-bsp/sources/build/tcc805x/gcc/tcc805x-freertos-debug/obj/ipc_buffer.o
IPC_PushBuffer                                    /home/vboxuser/topst/cr5-bsp/sources/build/tcc805x/gcc/tcc805x-freertos-debug/obj/ipc_buffer.o
                                                  /home/vboxuser/topst/cr5-bsp/sources/build/tcc805x/gcc/tcc805x-freertos-debug/obj/ipc_ctl.o
IPC_PushBufferOverWrite                           /home/vboxuser/topst/cr5-bsp/sources/build/tcc805x/gcc/tcc805x-freertos-debug/obj/ipc_buffer.o
                                                  /home/vboxuser/topst/cr5-bsp/sources/build/tcc805x/gcc/tcc805x-freertos-debug/obj/ipc_ctl.o
IPC_PushOneByte                                   /home/vboxuser/topst/cr5-bsp/sources/build/tcc805x/gcc/tcc805x-freertos-debug/obj/ipc_buffer.o
IPC_PushOneByteOverWrite                          /home/vboxuser/topst/cr5-bsp/sources/build/tcc805x/gcc/tcc805x-freertos-debug/obj/ipc_buffer.o
IPC_RbufferLock                                   /home/vboxuser/topst/cr5-bsp/sources/build/tcc805x/gcc/tcc805x-freertos-debug/obj/ipc_os.o
                                                  /home/vboxuser/topst/cr5-bsp/sources/build/tcc805x/gcc/tcc805x-freertos-debug/obj/ipc_ctl.o
IPC_RbufferUnlock                                 /home/vboxuser/topst/cr5-bsp/sources/build/tcc805x/gcc/tcc805x-freertos-debug/obj/ipc_os.o
                                                  /home/vboxuser/topst/cr5-bsp/sources/build/tcc805x/gcc/tcc805x-freertos-debug/obj/ipc_ctl.o
IPC_Read                                          /home/vboxuser/topst/cr5-bsp/sources/build/tcc805x/gcc/tcc805x-freertos-debug/obj/ipc_ctl.o
                                                  /home/vboxuser/topst/cr5-bsp/sources/build/tcc805x/gcc/tcc805x-freertos-debug/obj/ipc_api.o
IPC_ReadClearEvent                                /home/vboxuser/topst/cr5-bsp/sources/build/tcc805x/gcc/tcc805x-freertos-debug/obj/ipc_os.o
                                                  /home/vboxuser/topst/cr5-bsp/sources/build/tcc805x/gcc/tcc805x-freertos-debug/obj/ipc_ctl.o
IPC_ReadLock                                      /home/vboxuser/topst/cr5-bsp/sources/build/tcc805x/gcc/tcc805x-freertos-debug/obj/ipc_os.o
                                                  /home/vboxuser/topst/cr5-bsp/sources/build/tcc805x/gcc/tcc805x-freertos-debug/obj/ipc_ctl.o
IPC_ReadUnlock                                    /home/vboxuser/topst/cr5-bsp/sources/build/tcc805x/gcc/tcc805x-freertos-debug/obj/ipc_os.o
                                                  /home/vboxuser/topst/cr5-bsp/sources/build/tcc805x/gcc/tcc805x-freertos-debug/obj/ipc_ctl.o
IPC_ReadWaitEventTimeOut                          /home/vboxuser/topst/cr5-bsp/sources/build/tcc805x/gcc/tcc805x-freertos-debug/obj/ipc_os.o
                                                  /home/vboxuser/topst/cr5-bsp/sources/build/tcc805x/gcc/tcc805x-freertos-debug/obj/ipc_ctl.o
IPC_ReadWakeUp                                    /home/vboxuser/topst/cr5-bsp/sources/build/tcc805x/gcc/tcc805x-freertos-debug/obj/ipc_os.o
                                                  /home/vboxuser/topst/cr5-bsp/sources/build/tcc805x/gcc/tcc805x-freertos-debug/obj/ipc_ctl.o
IPC_RegisterCbFunc                                /home/vboxuser/topst/cr5-bsp/sources/build/tcc805x/gcc/tcc805x-freertos-debug/obj/ipc.o
                                                  /home/vboxuser/topst/cr5-bsp/sources/build/tcc805x/gcc/tcc805x-freertos-debug/obj/system_monitoring.o
IPC_Release                                       /home/vboxuser/topst/cr5-bsp/sources/build/tcc805x/gcc/tcc805x-freertos-debug/obj/ipc_ctl.o
                                                  /home/vboxuser/topst/cr5-bsp/sources/build/tcc805x/gcc/tcc805x-freertos-debug/obj/ipc_api.o
IPC_RequestIrq                                    /home/vboxuser/topst/cr5-bsp/sources/build/tcc805x/gcc/tcc805x-freertos-debug/obj/ipc_os.o
IPC_SendAck                                       /home/vboxuser/topst/cr5-bsp/sources/build/tcc805x/gcc/tcc805x-freertos-debug/obj/ipc_cmd.o
                                                  /home/vboxuser/topst/cr5-bsp/sources/build/tcc805x/gcc/tcc805x-freertos-debug/obj/ipc_ctl.o
IPC_SendClose                                     /home/vboxuser/topst/cr5-bsp/sources/build/tcc805x/gcc/tcc805x-freertos-debug/obj/ipc_cmd.o
                                                  /home/vboxuser/topst/cr5-bsp/sources/build/tcc805x/gcc/tcc805x-freertos-debug/obj/ipc_ctl.o
IPC_SendOpen                                      /home/vboxuser/topst/cr5-bsp/sources/build/tcc805x/gcc/tcc805x-freertos-debug/obj/ipc_cmd.o
                                                  /home/vboxuser/topst/cr5-bsp/sources/build/tcc805x/gcc/tcc805x-freertos-debug/obj/ipc_ctl.o
IPC_SendPacket                                    /home/vboxuser/topst/cr5-bsp/sources/build/tcc805x/gcc/tcc805x-freertos-debug/obj/ipc.o
                                                  /home/vboxuser/topst/cr5-bsp/sources/build/tcc805x/gcc/tcc805x-freertos-debug/obj/system_monitoring.o
IPC_SendPacketWithIPCHeader                       /home/vboxuser/topst/cr5-bsp/sources/build/tcc805x/gcc/tcc805x-freertos-debug/obj/ipc_api.o
                                                  /home/vboxuser/topst/cr5-bsp/sources/build/tcc805x/gcc/tcc805x-freertos-debug/obj/ipc.o
IPC_SendPing                                      /home/vboxuser/topst/cr5-bsp/sources/build/tcc805x/gcc/tcc805x-freertos-debug/obj/ipc_cmd.o
                                                  /home/vboxuser/topst/cr5-bsp/sources/build/tcc805x/gcc/tcc805x-freertos-debug/obj/ipc_ctl.o
IPC_SendWrite                                     /home/vboxuser/topst/cr5-bsp/sources/build/tcc805x/gcc/tcc805x-freertos-debug/obj/ipc_cmd.o
                                                  /home/vboxuser/topst/cr5-bsp/sources/build/tcc805x/gcc/tcc805x-freertos-debug/obj/ipc_ctl.o
IPC_StructInit                                    /home/vboxuser/topst/cr5-bsp/sources/build/tcc805x/gcc/tcc805x-freertos-debug/obj/ipc_ctl.o
                                                  /home/vboxuser/topst/cr5-bsp/sources/build/tcc805x/gcc/tcc805x-freertos-debug/obj/ipc_api.o
IPC_Udelay                                        /home/vboxuser/topst/cr5-bsp/sources/build/tcc805x/gcc/tcc805x-freertos-debug/obj/ipc_os.o
IPC_WbufferLock                                   /home/vboxuser/topst/cr5-bsp/sources/build/tcc805x/gcc/tcc805x-freertos-debug/obj/ipc_os.o
                                                  /home/vboxuser/topst/cr5-bsp/sources/build/tcc805x/gcc/tcc805x-freertos-debug/obj/ipc_ctl.o
IPC_WbufferUnlock                                 /home/vboxuser/topst/cr5-bsp/sources/build/tcc805x/gcc/tcc805x-freertos-debug/obj/ipc_os.o
                                                  /home/vboxuser/topst/cr5-bsp/sources/build/tcc805x/gcc/tcc805x-freertos-debug/obj/ipc_ctl.o
IPC_Write                                         /home/vboxuser/topst/cr5-bsp/sources/build/tcc805x/gcc/tcc805x-freertos-debug/obj/ipc_ctl.o
                                                  /home/vboxuser/topst/cr5-bsp/sources/build/tcc805x/gcc/tcc805x-freertos-debug/obj/ipc_api.o
IPC_WriteLock                                     /home/vboxuser/topst/cr5-bsp/sources/build/tcc805x/gcc/tcc805x-freertos-debug/obj/ipc_os.o
                                                  /home/vboxuser/topst/cr5-bsp/sources/build/tcc805x/gcc/tcc805x-freertos-debug/obj/ipc_api.o
                                                  /home/vboxuser/topst/cr5-bsp/sources/build/tcc805x/gcc/tcc805x-freertos-debug/obj/ipc_ctl.o
IPC_WriteUnlock                                   /home/vboxuser/topst/cr5-bsp/sources/build/tcc805x/gcc/tcc805x-freertos-debug/obj/ipc_os.o
                                                  /home/vboxuser/topst/cr5-bsp/sources/build/tcc805x/gcc/tcc805x-freertos-debug/obj/ipc_api.o
                                                  /home/vboxuser/topst/cr5-bsp/sources/build/tcc805x/gcc/tcc805x-freertos-debug/obj/ipc_ctl.o
KEY_AdcOpen                                       /home/vboxuser/topst/cr5-bsp/sources/build/tcc805x/gcc/tcc805x-freertos-debug/obj/key_adc.o
KEY_AdcScan                                       /home/vboxuser/topst/cr5-bsp/sources/build/tcc805x/gcc/tcc805x-freertos-debug/obj/key_adc.o
KEY_GpioGetRotaryValue                            /home/vboxuser/topst/cr5-bsp/sources/build/tcc805x/gcc/tcc805x-freertos-debug/obj/key_gpio.o
KEY_GpioKeyOpen                                   /home/vboxuser/topst/cr5-bsp/sources/build/tcc805x/gcc/tcc805x-freertos-debug/obj/key_gpio.o
KEY_I2cOpen                                       /home/vboxuser/topst/cr5-bsp/sources/build/tcc805x/gcc/tcc805x-freertos-debug/obj/key_i2c.o
KEY_I2cRead                                       /home/vboxuser/topst/cr5-bsp/sources/build/tcc805x/gcc/tcc805x-freertos-debug/obj/key_i2c.o
KEY_I2cScan                                       /home/vboxuser/topst/cr5-bsp/sources/build/tcc805x/gcc/tcc805x-freertos-debug/obj/key_i2c.o
KEY_I2cWrite                                      /home/vboxuser/topst/cr5-bsp/sources/build/tcc805x/gcc/tcc805x-freertos-debug/obj/key_i2c.o
LIN_Init                                          /home/vboxuser/topst/cr5-bsp/sources/build/tcc805x/gcc/tcc805x-freertos-debug/obj/lin.o
                                                  /home/vboxuser/topst/cr5-bsp/sources/build/tcc805x/gcc/tcc805x-freertos-debug/obj/lin_test.o
LIN_ReadData                                      /home/vboxuser/topst/cr5-bsp/sources/build/tcc805x/gcc/tcc805x-freertos-debug/obj/lin.o
                                                  /home/vboxuser/topst/cr5-bsp/sources/build/tcc805x/gcc/tcc805x-freertos-debug/obj/lin_test.o
LIN_SampleTest                                    /home/vboxuser/topst/cr5-bsp/sources/build/tcc805x/gcc/tcc805x-freertos-debug/obj/lin_test.o
                                                  /home/vboxuser/topst/cr5-bsp/sources/build/tcc805x/gcc/tcc805x-freertos-debug/obj/console.o
LIN_SendData                                      /home/vboxuser/topst/cr5-bsp/sources/build/tcc805x/gcc/tcc805x-freertos-debug/obj/lin.o
                                                  /home/vboxuser/topst/cr5-bsp/sources/build/tcc805x/gcc/tcc805x-freertos-debug/obj/lin_test.o
LIN_TestUsage                                     /home/vboxuser/topst/cr5-bsp/sources/build/tcc805x/gcc/tcc805x-freertos-debug/obj/lin_test.o
LIN_TransceiverWakeup                             /home/vboxuser/topst/cr5-bsp/sources/build/tcc805x/gcc/tcc805x-freertos-debug/obj/lin.o
MBOX_DevInit                                      /home/vboxuser/topst/cr5-bsp/sources/build/tcc805x/gcc/tcc805x-freertos-debug/obj/mbox_dev.o
                                                  /home/vboxuser/topst/cr5-bsp/sources/build/tcc805x/gcc/tcc805x-freertos-debug/obj/mbox.o
MBOX_DevIoctl                                     /home/vboxuser/topst/cr5-bsp/sources/build/tcc805x/gcc/tcc805x-freertos-debug/obj/mbox_dev.o
                                                  /home/vboxuser/topst/cr5-bsp/sources/build/tcc805x/gcc/tcc805x-freertos-debug/obj/ipc_cmd.o
MBOX_DevOpen                                      /home/vboxuser/topst/cr5-bsp/sources/build/tcc805x/gcc/tcc805x-freertos-debug/obj/mbox_dev.o
                                                  /home/vboxuser/topst/cr5-bsp/sources/build/tcc805x/gcc/tcc805x-freertos-debug/obj/pmio_dev.o
                                                  /home/vboxuser/topst/cr5-bsp/sources/build/tcc805x/gcc/tcc805x-freertos-debug/obj/hsm_manager.o
                                                  /home/vboxuser/topst/cr5-bsp/sources/build/tcc805x/gcc/tcc805x-freertos-debug/obj/ipc_ctl.o
                                                  /home/vboxuser/topst/cr5-bsp/sources/build/tcc805x/gcc/tcc805x-freertos-debug/obj/fwug.o
MBOX_DevRecv                                      /home/vboxuser/topst/cr5-bsp/sources/build/tcc805x/gcc/tcc805x-freertos-debug/obj/mbox_dev.o
                                                  /home/vboxuser/topst/cr5-bsp/sources/build/tcc805x/gcc/tcc805x-freertos-debug/obj/ipc_ctl.o
                                                  /home/vboxuser/topst/cr5-bsp/sources/build/tcc805x/gcc/tcc805x-freertos-debug/obj/fwug.o
MBOX_DevRecvCmd                                   /home/vboxuser/topst/cr5-bsp/sources/build/tcc805x/gcc/tcc805x-freertos-debug/obj/mbox_dev.o
                                                  /home/vboxuser/topst/cr5-bsp/sources/build/tcc805x/gcc/tcc805x-freertos-debug/obj/pmio_dev.o
                                                  /home/vboxuser/topst/cr5-bsp/sources/build/tcc805x/gcc/tcc805x-freertos-debug/obj/bootctrl.o
MBOX_DevRecvData                                  /home/vboxuser/topst/cr5-bsp/sources/build/tcc805x/gcc/tcc805x-freertos-debug/obj/mbox_dev.o
MBOX_DevRecvSss                                   /home/vboxuser/topst/cr5-bsp/sources/build/tcc805x/gcc/tcc805x-freertos-debug/obj/mbox_dev.o
                                                  /home/vboxuser/topst/cr5-bsp/sources/build/tcc805x/gcc/tcc805x-freertos-debug/obj/hsm_manager.o
MBOX_DevSend                                      /home/vboxuser/topst/cr5-bsp/sources/build/tcc805x/gcc/tcc805x-freertos-debug/obj/mbox_dev.o
                                                  /home/vboxuser/topst/cr5-bsp/sources/build/tcc805x/gcc/tcc805x-freertos-debug/obj/ipc_cmd.o
MBOX_DevSendCmd                                   /home/vboxuser/topst/cr5-bsp/sources/build/tcc805x/gcc/tcc805x-freertos-debug/obj/mbox_dev.o
                                                  /home/vboxuser/topst/cr5-bsp/sources/build/tcc805x/gcc/tcc805x-freertos-debug/obj/pmio_dev.o
                                                  /home/vboxuser/topst/cr5-bsp/sources/build/tcc805x/gcc/tcc805x-freertos-debug/obj/ipc_cmd.o
                                                  /home/vboxuser/topst/cr5-bsp/sources/build/tcc805x/gcc/tcc805x-freertos-debug/obj/bootctrl.o
MBOX_DevSendData                                  /home/vboxuser/topst/cr5-bsp/sources/build/tcc805x/gcc/tcc805x-freertos-debug/obj/mbox_dev.o
MBOX_DevSendSss                                   /home/vboxuser/topst/cr5-bsp/sources/build/tcc805x/gcc/tcc805x-freertos-debug/obj/mbox_dev.o
                                                  /home/vboxuser/topst/cr5-bsp/sources/build/tcc805x/gcc/tcc805x-freertos-debug/obj/hsm_manager.o
MBOX_Init                                         /home/vboxuser/topst/cr5-bsp/sources/build/tcc805x/gcc/tcc805x-freertos-debug/obj/mbox.o
                                                  /home/vboxuser/topst/cr5-bsp/sources/build/tcc805x/gcc/tcc805x-freertos-debug/obj/bsp.o
MBOX_PhyBitClearCtrl                              /home/vboxuser/topst/cr5-bsp/sources/build/tcc805x/gcc/tcc805x-freertos-debug/obj/mbox_phy.o
                                                  /home/vboxuser/topst/cr5-bsp/sources/build/tcc805x/gcc/tcc805x-freertos-debug/obj/mbox_dev.o
MBOX_PhyBitSetCtrl                                /home/vboxuser/topst/cr5-bsp/sources/build/tcc805x/gcc/tcc805x-freertos-debug/obj/mbox_phy.o
                                                  /home/vboxuser/topst/cr5-bsp/sources/build/tcc805x/gcc/tcc805x-freertos-debug/obj/mbox_dev.o
MBOX_PhyCountMcmd                                 /home/vboxuser/topst/cr5-bsp/sources/build/tcc805x/gcc/tcc805x-freertos-debug/obj/mbox_phy.o
                                                  /home/vboxuser/topst/cr5-bsp/sources/build/tcc805x/gcc/tcc805x-freertos-debug/obj/mbox_dev.o
MBOX_PhyCountMdata                                /home/vboxuser/topst/cr5-bsp/sources/build/tcc805x/gcc/tcc805x-freertos-debug/obj/mbox_phy.o
                                                  /home/vboxuser/topst/cr5-bsp/sources/build/tcc805x/gcc/tcc805x-freertos-debug/obj/mbox_dev.o
MBOX_PhyCountScmd                                 /home/vboxuser/topst/cr5-bsp/sources/build/tcc805x/gcc/tcc805x-freertos-debug/obj/mbox_phy.o
                                                  /home/vboxuser/topst/cr5-bsp/sources/build/tcc805x/gcc/tcc805x-freertos-debug/obj/mbox_dev.o
MBOX_PhyCountSdata                                /home/vboxuser/topst/cr5-bsp/sources/build/tcc805x/gcc/tcc805x-freertos-debug/obj/mbox_phy.o
                                                  /home/vboxuser/topst/cr5-bsp/sources/build/tcc805x/gcc/tcc805x-freertos-debug/obj/mbox_dev.o
MBOX_PhyEmptyMcmd                                 /home/vboxuser/topst/cr5-bsp/sources/build/tcc805x/gcc/tcc805x-freertos-debug/obj/mbox_phy.o
                                                  /home/vboxuser/topst/cr5-bsp/sources/build/tcc805x/gcc/tcc805x-freertos-debug/obj/mbox_dev.o
MBOX_PhyEmptyMdata                                /home/vboxuser/topst/cr5-bsp/sources/build/tcc805x/gcc/tcc805x-freertos-debug/obj/mbox_phy.o
                                                  /home/vboxuser/topst/cr5-bsp/sources/build/tcc805x/gcc/tcc805x-freertos-debug/obj/mbox_dev.o
MBOX_PhyEmptyScmd                                 /home/vboxuser/topst/cr5-bsp/sources/build/tcc805x/gcc/tcc805x-freertos-debug/obj/mbox_phy.o
                                                  /home/vboxuser/topst/cr5-bsp/sources/build/tcc805x/gcc/tcc805x-freertos-debug/obj/mbox_dev.o
MBOX_PhyEmptySdata                                /home/vboxuser/topst/cr5-bsp/sources/build/tcc805x/gcc/tcc805x-freertos-debug/obj/mbox_phy.o
                                                  /home/vboxuser/topst/cr5-bsp/sources/build/tcc805x/gcc/tcc805x-freertos-debug/obj/mbox_dev.o
MBOX_PhyFullMcmd                                  /home/vboxuser/topst/cr5-bsp/sources/build/tcc805x/gcc/tcc805x-freertos-debug/obj/mbox_phy.o
                                                  /home/vboxuser/topst/cr5-bsp/sources/build/tcc805x/gcc/tcc805x-freertos-debug/obj/mbox_dev.o
MBOX_PhyFullMdata                                 /home/vboxuser/topst/cr5-bsp/sources/build/tcc805x/gcc/tcc805x-freertos-debug/obj/mbox_phy.o
                                                  /home/vboxuser/topst/cr5-bsp/sources/build/tcc805x/gcc/tcc805x-freertos-debug/obj/mbox_dev.o
MBOX_PhyFullScmd                                  /home/vboxuser/topst/cr5-bsp/sources/build/tcc805x/gcc/tcc805x-freertos-debug/obj/mbox_phy.o
                                                  /home/vboxuser/topst/cr5-bsp/sources/build/tcc805x/gcc/tcc805x-freertos-debug/obj/mbox_dev.o
MBOX_PhyFullSdata                                 /home/vboxuser/topst/cr5-bsp/sources/build/tcc805x/gcc/tcc805x-freertos-debug/obj/mbox_phy.o
                                                  /home/vboxuser/topst/cr5-bsp/sources/build/tcc805x/gcc/tcc805x-freertos-debug/obj/mbox_dev.o
MBOX_PhyGetOppTmnSts                              /home/vboxuser/topst/cr5-bsp/sources/build/tcc805x/gcc/tcc805x-freertos-debug/obj/mbox_phy.o
                                                  /home/vboxuser/topst/cr5-bsp/sources/build/tcc805x/gcc/tcc805x-freertos-debug/obj/mbox_dev.o
MBOX_PhyGetOwnTmnSts                              /home/vboxuser/topst/cr5-bsp/sources/build/tcc805x/gcc/tcc805x-freertos-debug/obj/mbox_phy.o
                                                  /home/vboxuser/topst/cr5-bsp/sources/build/tcc805x/gcc/tcc805x-freertos-debug/obj/mbox_dev.o
MBOX_PhyIsFlushedCmd                              /home/vboxuser/topst/cr5-bsp/sources/build/tcc805x/gcc/tcc805x-freertos-debug/obj/mbox_phy.o
                                                  /home/vboxuser/topst/cr5-bsp/sources/build/tcc805x/gcc/tcc805x-freertos-debug/obj/mbox_dev.o
MBOX_PhyIsFlushedData                             /home/vboxuser/topst/cr5-bsp/sources/build/tcc805x/gcc/tcc805x-freertos-debug/obj/mbox_phy.o
                                                  /home/vboxuser/topst/cr5-bsp/sources/build/tcc805x/gcc/tcc805x-freertos-debug/obj/mbox_dev.o
MBOX_PhyIsIenSet                                  /home/vboxuser/topst/cr5-bsp/sources/build/tcc805x/gcc/tcc805x-freertos-debug/obj/mbox_phy.o
                                                  /home/vboxuser/topst/cr5-bsp/sources/build/tcc805x/gcc/tcc805x-freertos-debug/obj/mbox_dev.o
MBOX_PhyIsIlevelSet                               /home/vboxuser/topst/cr5-bsp/sources/build/tcc805x/gcc/tcc805x-freertos-debug/obj/mbox_phy.o
                                                  /home/vboxuser/topst/cr5-bsp/sources/build/tcc805x/gcc/tcc805x-freertos-debug/obj/mbox_dev.o
MBOX_PhyIsOenSet                                  /home/vboxuser/topst/cr5-bsp/sources/build/tcc805x/gcc/tcc805x-freertos-debug/obj/mbox_phy.o
                                                  /home/vboxuser/topst/cr5-bsp/sources/build/tcc805x/gcc/tcc805x-freertos-debug/obj/mbox_dev.o
MBOX_PhyReadCmd                                   /home/vboxuser/topst/cr5-bsp/sources/build/tcc805x/gcc/tcc805x-freertos-debug/obj/mbox_phy.o
                                                  /home/vboxuser/topst/cr5-bsp/sources/build/tcc805x/gcc/tcc805x-freertos-debug/obj/mbox_dev.o
MBOX_PhyReadData                                  /home/vboxuser/topst/cr5-bsp/sources/build/tcc805x/gcc/tcc805x-freertos-debug/obj/mbox_phy.o
                                                  /home/vboxuser/topst/cr5-bsp/sources/build/tcc805x/gcc/tcc805x-freertos-debug/obj/mbox_dev.o
MBOX_PhyReady                                     /home/vboxuser/topst/cr5-bsp/sources/build/tcc805x/gcc/tcc805x-freertos-debug/obj/mbox_phy.o
                                                  /home/vboxuser/topst/cr5-bsp/sources/build/tcc805x/gcc/tcc805x-freertos-debug/obj/mbox_dev.o
MBOX_PhySetOwnTmnSts                              /home/vboxuser/topst/cr5-bsp/sources/build/tcc805x/gcc/tcc805x-freertos-debug/obj/mbox_phy.o
                                                  /home/vboxuser/topst/cr5-bsp/sources/build/tcc805x/gcc/tcc805x-freertos-debug/obj/mbox_dev.o
MBOX_PhyWriteCmd                                  /home/vboxuser/topst/cr5-bsp/sources/build/tcc805x/gcc/tcc805x-freertos-debug/obj/mbox_phy.o
                                                  /home/vboxuser/topst/cr5-bsp/sources/build/tcc805x/gcc/tcc805x-freertos-debug/obj/mbox_dev.o
MBOX_PhyWriteData                                 /home/vboxuser/topst/cr5-bsp/sources/build/tcc805x/gcc/tcc805x-freertos-debug/obj/mbox_phy.o
                                                  /home/vboxuser/topst/cr5-bsp/sources/build/tcc805x/gcc/tcc805x-freertos-debug/obj/mbox_dev.o
MIDF_ConfigSoftFaultCheckSafetyMechanism          /home/vboxuser/topst/cr5-bsp/sources/build/tcc805x/gcc/tcc805x-freertos-debug/obj/midf.o
MIDF_FilterInitialize                             /home/vboxuser/topst/cr5-bsp/sources/build/tcc805x/gcc/tcc805x-freertos-debug/obj/midf.o
                                                  /home/vboxuser/topst/cr5-bsp/sources/build/tcc805x/gcc/tcc805x-freertos-debug/obj/console.o
MIDF_RegisterFilterRegion                         /home/vboxuser/topst/cr5-bsp/sources/build/tcc805x/gcc/tcc805x-freertos-debug/obj/midf.o
                                                  /home/vboxuser/topst/cr5-bsp/sources/build/tcc805x/gcc/tcc805x-freertos-debug/obj/console.o
MIDF_RegisterWriteLockSafetyMechanism             /home/vboxuser/topst/cr5-bsp/sources/build/tcc805x/gcc/tcc805x-freertos-debug/obj/midf.o
MIDF_UnregisterFilterRegion                       /home/vboxuser/topst/cr5-bsp/sources/build/tcc805x/gcc/tcc805x-freertos-debug/obj/midf.o
                                                  /home/vboxuser/topst/cr5-bsp/sources/build/tcc805x/gcc/tcc805x-freertos-debug/obj/console.o
MPTool_CreateApp                                  /home/vboxuser/topst/cr5-bsp/sources/build/tcc805x/gcc/tcc805x-freertos-debug/obj/mptool.o
MPU_Disable                                       /home/vboxuser/topst/cr5-bsp/sources/build/tcc805x/gcc/tcc805x-freertos-debug/obj/mpu.o
                                                  /home/vboxuser/topst/cr5-bsp/sources/build/tcc805x/gcc/tcc805x-freertos-debug/obj/fwug.o
MPU_Enable                                        /home/vboxuser/topst/cr5-bsp/sources/build/tcc805x/gcc/tcc805x-freertos-debug/obj/mpu.o
                                                  /home/vboxuser/topst/cr5-bsp/sources/build/tcc805x/gcc/tcc805x-freertos-debug/obj/fwug.o
MPU_GetDMABaseAddress                             /home/vboxuser/topst/cr5-bsp/sources/build/tcc805x/gcc/tcc805x-freertos-debug/obj/mpu.o
                                                  /home/vboxuser/topst/cr5-bsp/sources/build/tcc805x/gcc/tcc805x-freertos-debug/obj/uart.o
                                                  /home/vboxuser/topst/cr5-bsp/sources/build/tcc805x/gcc/tcc805x-freertos-debug/obj/gpsb_test.o
MPU_Init                                          /home/vboxuser/topst/cr5-bsp/sources/build/tcc805x/gcc/tcc805x-freertos-debug/obj/mpu.o
                                                  /home/vboxuser/topst/cr5-bsp/sources/build/tcc805x/gcc/tcc805x-freertos-debug/obj/startup.o
MPU_SetRegion                                     /home/vboxuser/topst/cr5-bsp/sources/build/tcc805x/gcc/tcc805x-freertos-debug/obj/mpu.o
                                                  /home/vboxuser/topst/cr5-bsp/sources/build/tcc805x/gcc/tcc805x-freertos-debug/obj/fwug.o
PDM_Deinit                                        /home/vboxuser/topst/cr5-bsp/sources/build/tcc805x/gcc/tcc805x-freertos-debug/obj/pdm.o
PDM_Disable                                       /home/vboxuser/topst/cr5-bsp/sources/build/tcc805x/gcc/tcc805x-freertos-debug/obj/pdm.o
                                                  /home/vboxuser/topst/cr5-bsp/sources/build/tcc805x/gcc/tcc805x-freertos-debug/obj/hap.o
                                                  /home/vboxuser/topst/cr5-bsp/sources/build/tcc805x/gcc/tcc805x-freertos-debug/obj/pwm_test.o
                                                  /home/vboxuser/topst/cr5-bsp/sources/build/tcc805x/gcc/tcc805x-freertos-debug/obj/pdm_test.o
                                                  /home/vboxuser/topst/cr5-bsp/sources/build/tcc805x/gcc/tcc805x-freertos-debug/obj/console.o
PDM_DisableClock                                  /home/vboxuser/topst/cr5-bsp/sources/build/tcc805x/gcc/tcc805x-freertos-debug/obj/pdm.o
PDM_Enable                                        /home/vboxuser/topst/cr5-bsp/sources/build/tcc805x/gcc/tcc805x-freertos-debug/obj/pdm.o
                                                  /home/vboxuser/topst/cr5-bsp/sources/build/tcc805x/gcc/tcc805x-freertos-debug/obj/hap.o
                                                  /home/vboxuser/topst/cr5-bsp/sources/build/tcc805x/gcc/tcc805x-freertos-debug/obj/pwm_test.o
                                                  /home/vboxuser/topst/cr5-bsp/sources/build/tcc805x/gcc/tcc805x-freertos-debug/obj/pdm_test.o
                                                  /home/vboxuser/topst/cr5-bsp/sources/build/tcc805x/gcc/tcc805x-freertos-debug/obj/console.o
PDM_EnableClock                                   /home/vboxuser/topst/cr5-bsp/sources/build/tcc805x/gcc/tcc805x-freertos-debug/obj/pdm.o
PDM_GetChannelStatus                              /home/vboxuser/topst/cr5-bsp/sources/build/tcc805x/gcc/tcc805x-freertos-debug/obj/pdm.o
PDM_Init                                          /home/vboxuser/topst/cr5-bsp/sources/build/tcc805x/gcc/tcc805x-freertos-debug/obj/pdm.o
                                                  /home/vboxuser/topst/cr5-bsp/sources/build/tcc805x/gcc/tcc805x-freertos-debug/obj/pwm_test.o
                                                  /home/vboxuser/topst/cr5-bsp/sources/build/tcc805x/gcc/tcc805x-freertos-debug/obj/pdm_test.o
PDM_SelectTestCase                                /home/vboxuser/topst/cr5-bsp/sources/build/tcc805x/gcc/tcc805x-freertos-debug/obj/pdm_test.o
                                                  /home/vboxuser/topst/cr5-bsp/sources/build/tcc805x/gcc/tcc805x-freertos-debug/obj/console.o
PDM_SetConfig                                     /home/vboxuser/topst/cr5-bsp/sources/build/tcc805x/gcc/tcc805x-freertos-debug/obj/pdm.o
                                                  /home/vboxuser/topst/cr5-bsp/sources/build/tcc805x/gcc/tcc805x-freertos-debug/obj/hap.o
                                                  /home/vboxuser/topst/cr5-bsp/sources/build/tcc805x/gcc/tcc805x-freertos-debug/obj/pwm_test.o
                                                  /home/vboxuser/topst/cr5-bsp/sources/build/tcc805x/gcc/tcc805x-freertos-debug/obj/pdm_test.o
                                                  /home/vboxuser/topst/cr5-bsp/sources/build/tcc805x/gcc/tcc805x-freertos-debug/obj/console.o
PMIO_APBootOk                                     /home/vboxuser/topst/cr5-bsp/sources/build/tcc805x/gcc/tcc805x-freertos-debug/obj/pmio_dev.o
                                                  /home/vboxuser/topst/cr5-bsp/sources/build/tcc805x/gcc/tcc805x-freertos-debug/obj/bootctrl.o
PMIO_ClearBackupRAM                               /home/vboxuser/topst/cr5-bsp/sources/build/tcc805x/gcc/tcc805x-freertos-debug/obj/pmio_dev.o
PMIO_DebugPrintPowerStatus                        /home/vboxuser/topst/cr5-bsp/sources/build/tcc805x/gcc/tcc805x-freertos-debug/obj/pmio_dev.o
                                                  /home/vboxuser/topst/cr5-bsp/sources/build/tcc805x/gcc/tcc805x-freertos-debug/obj/pmio_test.o
PMIO_EarlyWakeUp                                  /home/vboxuser/topst/cr5-bsp/sources/build/tcc805x/gcc/tcc805x-freertos-debug/obj/pmio_dev.o
                                                  /home/vboxuser/topst/cr5-bsp/sources/build/tcc805x/gcc/tcc805x-freertos-debug/obj/startup.o
PMIO_ForceSTRModeTest                             /home/vboxuser/topst/cr5-bsp/sources/build/tcc805x/gcc/tcc805x-freertos-debug/obj/pmio_dev.o
                                                  /home/vboxuser/topst/cr5-bsp/sources/build/tcc805x/gcc/tcc805x-freertos-debug/obj/pmio_test.o
PMIO_GetBackupRam                                 /home/vboxuser/topst/cr5-bsp/sources/build/tcc805x/gcc/tcc805x-freertos-debug/obj/pmio_dev.o
PMIO_GetBootReason                                /home/vboxuser/topst/cr5-bsp/sources/build/tcc805x/gcc/tcc805x-freertos-debug/obj/pmio_dev.o
PMIO_GetWdtReset                                  /home/vboxuser/topst/cr5-bsp/sources/build/tcc805x/gcc/tcc805x-freertos-debug/obj/pmio_dev.o
PMIO_Init                                         /home/vboxuser/topst/cr5-bsp/sources/build/tcc805x/gcc/tcc805x-freertos-debug/obj/pmio_dev.o
                                                  /home/vboxuser/topst/cr5-bsp/sources/build/tcc805x/gcc/tcc805x-freertos-debug/obj/bsp.o
PMIO_PowerDown                                    /home/vboxuser/topst/cr5-bsp/sources/build/tcc805x/gcc/tcc805x-freertos-debug/obj/pmio_dev.o
PMIO_SetBackupRam                                 /home/vboxuser/topst/cr5-bsp/sources/build/tcc805x/gcc/tcc805x-freertos-debug/obj/pmio_dev.o
PMIO_SetGPK                                       /home/vboxuser/topst/cr5-bsp/sources/build/tcc805x/gcc/tcc805x-freertos-debug/obj/pmio_dev.o
                                                  /home/vboxuser/topst/cr5-bsp/sources/build/tcc805x/gcc/tcc805x-freertos-debug/obj/can_porting.o
                                                  /home/vboxuser/topst/cr5-bsp/sources/build/tcc805x/gcc/tcc805x-freertos-debug/obj/lin.o
                                                  /home/vboxuser/topst/cr5-bsp/sources/build/tcc805x/gcc/tcc805x-freertos-debug/obj/key_adc.o
PMIO_TEST_GetByAddress                            /home/vboxuser/topst/cr5-bsp/sources/build/tcc805x/gcc/tcc805x-freertos-debug/obj/pmio_test.o
PMIO_TEST_GetByName                               /home/vboxuser/topst/cr5-bsp/sources/build/tcc805x/gcc/tcc805x-freertos-debug/obj/pmio_test.o
                                                  /home/vboxuser/topst/cr5-bsp/sources/build/tcc805x/gcc/tcc805x-freertos-debug/obj/console.o
PMIO_TEST_PrintStatus                             /home/vboxuser/topst/cr5-bsp/sources/build/tcc805x/gcc/tcc805x-freertos-debug/obj/pmio_test.o
                                                  /home/vboxuser/topst/cr5-bsp/sources/build/tcc805x/gcc/tcc805x-freertos-debug/obj/console.o
PMIO_TEST_Run                                     /home/vboxuser/topst/cr5-bsp/sources/build/tcc805x/gcc/tcc805x-freertos-debug/obj/pmio_test.o
                                                  /home/vboxuser/topst/cr5-bsp/sources/build/tcc805x/gcc/tcc805x-freertos-debug/obj/console.o
PMIO_TEST_SetByAddress                            /home/vboxuser/topst/cr5-bsp/sources/build/tcc805x/gcc/tcc805x-freertos-debug/obj/pmio_test.o
PMIO_TEST_SetByName                               /home/vboxuser/topst/cr5-bsp/sources/build/tcc805x/gcc/tcc805x-freertos-debug/obj/pmio_test.o
                                                  /home/vboxuser/topst/cr5-bsp/sources/build/tcc805x/gcc/tcc805x-freertos-debug/obj/console.o
PMU_ResetAPSystemReboot                           /home/vboxuser/topst/cr5-bsp/sources/build/tcc805x/gcc/tcc805x-freertos-debug/obj/pmu_reset.o
                                                  /home/vboxuser/topst/cr5-bsp/sources/build/tcc805x/gcc/tcc805x-freertos-debug/obj/reset_demo.o
PMU_ResetColdReset                                /home/vboxuser/topst/cr5-bsp/sources/build/tcc805x/gcc/tcc805x-freertos-debug/obj/pmu_reset.o
                                                  /home/vboxuser/topst/cr5-bsp/sources/build/tcc805x/gcc/tcc805x-freertos-debug/obj/reset_demo.o
PMU_ResetPreCfg                                   /home/vboxuser/topst/cr5-bsp/sources/build/tcc805x/gcc/tcc805x-freertos-debug/obj/pmu_reset.o
                                                  /home/vboxuser/topst/cr5-bsp/sources/build/tcc805x/gcc/tcc805x-freertos-debug/obj/bsp.o
PMU_ResetSCWDTInit                                /home/vboxuser/topst/cr5-bsp/sources/build/tcc805x/gcc/tcc805x-freertos-debug/obj/pmu_reset.o
                                                  /home/vboxuser/topst/cr5-bsp/sources/build/tcc805x/gcc/tcc805x-freertos-debug/obj/bsp.o
PMU_ResetSDMRstMskCfg                             /home/vboxuser/topst/cr5-bsp/sources/build/tcc805x/gcc/tcc805x-freertos-debug/obj/pmu_reset.o
                                                  /home/vboxuser/topst/cr5-bsp/sources/build/tcc805x/gcc/tcc805x-freertos-debug/obj/sdm.o
PMU_ResetTRVCRstMskCfg                            /home/vboxuser/topst/cr5-bsp/sources/build/tcc805x/gcc/tcc805x-freertos-debug/obj/pmu_reset.o
PMU_ResetTest                                     /home/vboxuser/topst/cr5-bsp/sources/build/tcc805x/gcc/tcc805x-freertos-debug/obj/reset_demo.o
                                                  /home/vboxuser/topst/cr5-bsp/sources/build/tcc805x/gcc/tcc805x-freertos-debug/obj/console.o
PWM_SelectTestCase                                /home/vboxuser/topst/cr5-bsp/sources/build/tcc805x/gcc/tcc805x-freertos-debug/obj/pwm_test.o
                                                  /home/vboxuser/topst/cr5-bsp/sources/build/tcc805x/gcc/tcc805x-freertos-debug/obj/console.o
PWM_SwitchCtrl                                    /home/vboxuser/topst/cr5-bsp/sources/build/tcc805x/gcc/tcc805x-freertos-debug/obj/pwm_test.o
PWM_TestLED                                       /home/vboxuser/topst/cr5-bsp/sources/build/tcc805x/gcc/tcc805x-freertos-debug/obj/pwm_test.o
PWM_TestMotorGpio                                 /home/vboxuser/topst/cr5-bsp/sources/build/tcc805x/gcc/tcc805x-freertos-debug/obj/pwm_test.o
                                                  /home/vboxuser/topst/cr5-bsp/sources/build/tcc805x/gcc/tcc805x-freertos-debug/obj/hap.o
                                                  /home/vboxuser/topst/cr5-bsp/sources/build/tcc805x/gcc/tcc805x-freertos-debug/obj/console.o
PWM_TestSetGpio                                   /home/vboxuser/topst/cr5-bsp/sources/build/tcc805x/gcc/tcc805x-freertos-debug/obj/pwm_test.o
PWM_TestSleepForSec                               /home/vboxuser/topst/cr5-bsp/sources/build/tcc805x/gcc/tcc805x-freertos-debug/obj/pwm_test.o
PWM_TestSwitchGpio                                /home/vboxuser/topst/cr5-bsp/sources/build/tcc805x/gcc/tcc805x-freertos-debug/obj/pwm_test.o
RxBufferFIFO0InfoPar                              /home/vboxuser/topst/cr5-bsp/sources/build/tcc805x/gcc/tcc805x-freertos-debug/obj/can_par.o
                                                  /home/vboxuser/topst/cr5-bsp/sources/build/tcc805x/gcc/tcc805x-freertos-debug/obj/can_drv.o
RxBufferFIFO1InfoPar                              /home/vboxuser/topst/cr5-bsp/sources/build/tcc805x/gcc/tcc805x-freertos-debug/obj/can_par.o
                                                  /home/vboxuser/topst/cr5-bsp/sources/build/tcc805x/gcc/tcc805x-freertos-debug/obj/can_drv.o
RxBufferInfoPar                                   /home/vboxuser/topst/cr5-bsp/sources/build/tcc805x/gcc/tcc805x-freertos-debug/obj/can_par.o
                                                  /home/vboxuser/topst/cr5-bsp/sources/build/tcc805x/gcc/tcc805x-freertos-debug/obj/can_drv.o
SAL_Init                                          /home/vboxuser/topst/cr5-bsp/sources/build/tcc805x/gcc/tcc805x-freertos-debug/obj/sal_freertos_impl.o
                                                  /home/vboxuser/topst/cr5-bsp/sources/build/tcc805x/gcc/tcc805x-freertos-debug/obj/main.o
SAL_RegisterFunction                              /home/vboxuser/topst/cr5-bsp/sources/build/tcc805x/gcc/tcc805x-freertos-debug/obj/sal_api.o
                                                  /home/vboxuser/topst/cr5-bsp/sources/build/tcc805x/gcc/tcc805x-freertos-debug/obj/sal_freertos_impl.o
SDM_Init                                          /home/vboxuser/topst/cr5-bsp/sources/build/tcc805x/gcc/tcc805x-freertos-debug/obj/sdm.o
                                                  /home/vboxuser/topst/cr5-bsp/sources/build/tcc805x/gcc/tcc805x-freertos-debug/obj/main.o
SDM_ReadReg                                       /home/vboxuser/topst/cr5-bsp/sources/build/tcc805x/gcc/tcc805x-freertos-debug/obj/sdm.o
                                                  /home/vboxuser/topst/cr5-bsp/sources/build/tcc805x/gcc/tcc805x-freertos-debug/obj/console.o
SDM_WriteReg                                      /home/vboxuser/topst/cr5-bsp/sources/build/tcc805x/gcc/tcc805x-freertos-debug/obj/sdm.o
                                                  /home/vboxuser/topst/cr5-bsp/sources/build/tcc805x/gcc/tcc805x-freertos-debug/obj/console.o
SM_CreateAppTask                                  /home/vboxuser/topst/cr5-bsp/sources/build/tcc805x/gcc/tcc805x-freertos-debug/obj/system_monitoring.o
StandardIDFilterPar                               /home/vboxuser/topst/cr5-bsp/sources/build/tcc805x/gcc/tcc805x-freertos-debug/obj/can_par.o
                                                  /home/vboxuser/topst/cr5-bsp/sources/build/tcc805x/gcc/tcc805x-freertos-debug/obj/can_drv.o
TIMER_Disable                                     /home/vboxuser/topst/cr5-bsp/sources/build/tcc805x/gcc/tcc805x-freertos-debug/obj/timer.o
                                                  /home/vboxuser/topst/cr5-bsp/sources/build/tcc805x/gcc/tcc805x-freertos-debug/obj/pmio_dev.o
                                                  /home/vboxuser/topst/cr5-bsp/sources/build/tcc805x/gcc/tcc805x-freertos-debug/obj/hap.o
                                                  /home/vboxuser/topst/cr5-bsp/sources/build/tcc805x/gcc/tcc805x-freertos-debug/obj/timer_test.o
TIMER_Enable                                      /home/vboxuser/topst/cr5-bsp/sources/build/tcc805x/gcc/tcc805x-freertos-debug/obj/timer.o
                                                  /home/vboxuser/topst/cr5-bsp/sources/build/tcc805x/gcc/tcc805x-freertos-debug/obj/port.o
                                                  /home/vboxuser/topst/cr5-bsp/sources/build/tcc805x/gcc/tcc805x-freertos-debug/obj/pmio_dev.o
                                                  /home/vboxuser/topst/cr5-bsp/sources/build/tcc805x/gcc/tcc805x-freertos-debug/obj/wdt_test.o
TIMER_EnableWithCfg                               /home/vboxuser/topst/cr5-bsp/sources/build/tcc805x/gcc/tcc805x-freertos-debug/obj/timer.o
                                                  /home/vboxuser/topst/cr5-bsp/sources/build/tcc805x/gcc/tcc805x-freertos-debug/obj/timer_test.o
TIMER_EnableWithMode                              /home/vboxuser/topst/cr5-bsp/sources/build/tcc805x/gcc/tcc805x-freertos-debug/obj/timer.o
                                                  /home/vboxuser/topst/cr5-bsp/sources/build/tcc805x/gcc/tcc805x-freertos-debug/obj/wdt_test.o
                                                  /home/vboxuser/topst/cr5-bsp/sources/build/tcc805x/gcc/tcc805x-freertos-debug/obj/timer_test.o
TIMER_GetCurrentMainCounter                       /home/vboxuser/topst/cr5-bsp/sources/build/tcc805x/gcc/tcc805x-freertos-debug/obj/timer.o
                                                  /home/vboxuser/topst/cr5-bsp/sources/build/tcc805x/gcc/tcc805x-freertos-debug/obj/hap.o
                                                  /home/vboxuser/topst/cr5-bsp/sources/build/tcc805x/gcc/tcc805x-freertos-debug/obj/timer_test.o
TIMER_GetCurrentMainCounter1                      /home/vboxuser/topst/cr5-bsp/sources/build/tcc805x/gcc/tcc805x-freertos-debug/obj/timer.o
TIMER_Init                                        /home/vboxuser/topst/cr5-bsp/sources/build/tcc805x/gcc/tcc805x-freertos-debug/obj/timer.o
                                                  /home/vboxuser/topst/cr5-bsp/sources/build/tcc805x/gcc/tcc805x-freertos-debug/obj/bsp.o
TIMER_InterruptClear                              /home/vboxuser/topst/cr5-bsp/sources/build/tcc805x/gcc/tcc805x-freertos-debug/obj/timer.o
                                                  /home/vboxuser/topst/cr5-bsp/sources/build/tcc805x/gcc/tcc805x-freertos-debug/obj/port.o
TIMER_StartTimerTest                              /home/vboxuser/topst/cr5-bsp/sources/build/tcc805x/gcc/tcc805x-freertos-debug/obj/timer_test.o
                                                  /home/vboxuser/topst/cr5-bsp/sources/build/tcc805x/gcc/tcc805x-freertos-debug/obj/console.o
TxBufferInfoPar                                   /home/vboxuser/topst/cr5-bsp/sources/build/tcc805x/gcc/tcc805x-freertos-debug/obj/can_par.o
                                                  /home/vboxuser/topst/cr5-bsp/sources/build/tcc805x/gcc/tcc805x-freertos-debug/obj/can_drv.o
UART_Close                                        /home/vboxuser/topst/cr5-bsp/sources/build/tcc805x/gcc/tcc805x-freertos-debug/obj/uart.o
UART_GetChar                                      /home/vboxuser/topst/cr5-bsp/sources/build/tcc805x/gcc/tcc805x-freertos-debug/obj/uart.o
                                                  /home/vboxuser/topst/cr5-bsp/sources/build/tcc805x/gcc/tcc805x-freertos-debug/obj/console.o
UART_GetData                                      /home/vboxuser/topst/cr5-bsp/sources/build/tcc805x/gcc/tcc805x-freertos-debug/obj/uart.o
                                                  /home/vboxuser/topst/cr5-bsp/sources/build/tcc805x/gcc/tcc805x-freertos-debug/obj/lin.o
UART_GetRawInterruptStatusReg                     /home/vboxuser/topst/cr5-bsp/sources/build/tcc805x/gcc/tcc805x-freertos-debug/obj/uart.o
UART_GetReceiveStatusReg                          /home/vboxuser/topst/cr5-bsp/sources/build/tcc805x/gcc/tcc805x-freertos-debug/obj/uart.o
UART_ISR                                          /home/vboxuser/topst/cr5-bsp/sources/build/tcc805x/gcc/tcc805x-freertos-debug/obj/uart.o
UART_Init                                         /home/vboxuser/topst/cr5-bsp/sources/build/tcc805x/gcc/tcc805x-freertos-debug/obj/uart.o
                                                  /home/vboxuser/topst/cr5-bsp/sources/build/tcc805x/gcc/tcc805x-freertos-debug/obj/bsp.o
UART_Open                                         /home/vboxuser/topst/cr5-bsp/sources/build/tcc805x/gcc/tcc805x-freertos-debug/obj/uart.o
                                                  /home/vboxuser/topst/cr5-bsp/sources/build/tcc805x/gcc/tcc805x-freertos-debug/obj/lin.o
UART_PutChar                                      /home/vboxuser/topst/cr5-bsp/sources/build/tcc805x/gcc/tcc805x-freertos-debug/obj/uart.o
                                                  /home/vboxuser/topst/cr5-bsp/sources/build/tcc805x/gcc/tcc805x-freertos-debug/obj/debug.o
                                                  /home/vboxuser/topst/cr5-bsp/sources/build/tcc805x/gcc/tcc805x-freertos-debug/obj/lin.o
UART_Read                                         /home/vboxuser/topst/cr5-bsp/sources/build/tcc805x/gcc/tcc805x-freertos-debug/obj/uart.o
                                                  /home/vboxuser/topst/cr5-bsp/sources/build/tcc805x/gcc/tcc805x-freertos-debug/obj/hap.o
                                                  /home/vboxuser/topst/cr5-bsp/sources/build/tcc805x/gcc/tcc805x-freertos-debug/obj/console.o
UART_SetErrorClearReg                             /home/vboxuser/topst/cr5-bsp/sources/build/tcc805x/gcc/tcc805x-freertos-debug/obj/uart.o
UART_SetInterruptClearReg                         /home/vboxuser/topst/cr5-bsp/sources/build/tcc805x/gcc/tcc805x-freertos-debug/obj/uart.o
UART_SetLineControlReg                            /home/vboxuser/topst/cr5-bsp/sources/build/tcc805x/gcc/tcc805x-freertos-debug/obj/uart.o
                                                  /home/vboxuser/topst/cr5-bsp/sources/build/tcc805x/gcc/tcc805x-freertos-debug/obj/lin.o
UART_Write                                        /home/vboxuser/topst/cr5-bsp/sources/build/tcc805x/gcc/tcc805x-freertos-debug/obj/uart.o
                                                  /home/vboxuser/topst/cr5-bsp/sources/build/tcc805x/gcc/tcc805x-freertos-debug/obj/hap.o
                                                  /home/vboxuser/topst/cr5-bsp/sources/build/tcc805x/gcc/tcc805x-freertos-debug/obj/console.o
UDMA_ChannelDisable                               /home/vboxuser/topst/cr5-bsp/sources/build/tcc805x/gcc/tcc805x-freertos-debug/obj/udma.o
UDMA_ChannelEnable                                /home/vboxuser/topst/cr5-bsp/sources/build/tcc805x/gcc/tcc805x-freertos-debug/obj/udma.o
                                                  /home/vboxuser/topst/cr5-bsp/sources/build/tcc805x/gcc/tcc805x-freertos-debug/obj/uart.o
UDMA_GetDestAddr                                  /home/vboxuser/topst/cr5-bsp/sources/build/tcc805x/gcc/tcc805x-freertos-debug/obj/udma.o
UDMA_GetTransferSize                              /home/vboxuser/topst/cr5-bsp/sources/build/tcc805x/gcc/tcc805x-freertos-debug/obj/udma.o
                                                  /home/vboxuser/topst/cr5-bsp/sources/build/tcc805x/gcc/tcc805x-freertos-debug/obj/uart.o
UDMA_Init                                         /home/vboxuser/topst/cr5-bsp/sources/build/tcc805x/gcc/tcc805x-freertos-debug/obj/udma.o
                                                  /home/vboxuser/topst/cr5-bsp/sources/build/tcc805x/gcc/tcc805x-freertos-debug/obj/uart.o
UDMA_InterruptDisable                             /home/vboxuser/topst/cr5-bsp/sources/build/tcc805x/gcc/tcc805x-freertos-debug/obj/udma.o
UDMA_InterruptEnable                              /home/vboxuser/topst/cr5-bsp/sources/build/tcc805x/gcc/tcc805x-freertos-debug/obj/udma.o
                                                  /home/vboxuser/topst/cr5-bsp/sources/build/tcc805x/gcc/tcc805x-freertos-debug/obj/uart.o
UDMA_Reset                                        /home/vboxuser/topst/cr5-bsp/sources/build/tcc805x/gcc/tcc805x-freertos-debug/obj/udma.o
                                                  /home/vboxuser/topst/cr5-bsp/sources/build/tcc805x/gcc/tcc805x-freertos-debug/obj/uart.o
UDMA_SetAddrIncrement                             /home/vboxuser/topst/cr5-bsp/sources/build/tcc805x/gcc/tcc805x-freertos-debug/obj/udma.o
                                                  /home/vboxuser/topst/cr5-bsp/sources/build/tcc805x/gcc/tcc805x-freertos-debug/obj/uart.o
UDMA_SetBurstSize                                 /home/vboxuser/topst/cr5-bsp/sources/build/tcc805x/gcc/tcc805x-freertos-debug/obj/udma.o
                                                  /home/vboxuser/topst/cr5-bsp/sources/build/tcc805x/gcc/tcc805x-freertos-debug/obj/uart.o
UDMA_SetDestAddr                                  /home/vboxuser/topst/cr5-bsp/sources/build/tcc805x/gcc/tcc805x-freertos-debug/obj/udma.o
                                                  /home/vboxuser/topst/cr5-bsp/sources/build/tcc805x/gcc/tcc805x-freertos-debug/obj/uart.o
UDMA_SetFlowControl                               /home/vboxuser/topst/cr5-bsp/sources/build/tcc805x/gcc/tcc805x-freertos-debug/obj/udma.o
                                                  /home/vboxuser/topst/cr5-bsp/sources/build/tcc805x/gcc/tcc805x-freertos-debug/obj/uart.o
UDMA_SetPeri                                      /home/vboxuser/topst/cr5-bsp/sources/build/tcc805x/gcc/tcc805x-freertos-debug/obj/udma.o
                                                  /home/vboxuser/topst/cr5-bsp/sources/build/tcc805x/gcc/tcc805x-freertos-debug/obj/uart.o
UDMA_SetSrcAddr                                   /home/vboxuser/topst/cr5-bsp/sources/build/tcc805x/gcc/tcc805x-freertos-debug/obj/udma.o
                                                  /home/vboxuser/topst/cr5-bsp/sources/build/tcc805x/gcc/tcc805x-freertos-debug/obj/uart.o
UDMA_SetTransferSize                              /home/vboxuser/topst/cr5-bsp/sources/build/tcc805x/gcc/tcc805x-freertos-debug/obj/udma.o
                                                  /home/vboxuser/topst/cr5-bsp/sources/build/tcc805x/gcc/tcc805x-freertos-debug/obj/uart.o
UDMA_SetTransferWidth                             /home/vboxuser/topst/cr5-bsp/sources/build/tcc805x/gcc/tcc805x-freertos-debug/obj/udma.o
                                                  /home/vboxuser/topst/cr5-bsp/sources/build/tcc805x/gcc/tcc805x-freertos-debug/obj/uart.o
UDMA_SetlliAddr                                   /home/vboxuser/topst/cr5-bsp/sources/build/tcc805x/gcc/tcc805x-freertos-debug/obj/udma.o
UDMA_TransferMem2Mem                              /home/vboxuser/topst/cr5-bsp/sources/build/tcc805x/gcc/tcc805x-freertos-debug/obj/udma.o
UartJIN2                                          /home/vboxuser/topst/cr5-bsp/sources/build/tcc805x/gcc/tcc805x-freertos-debug/obj/hap.o
                                                  /home/vboxuser/topst/cr5-bsp/sources/build/tcc805x/gcc/tcc805x-freertos-debug/obj/console.o
Ultra_Test                                        /home/vboxuser/topst/cr5-bsp/sources/build/tcc805x/gcc/tcc805x-freertos-debug/obj/hap.o
Ultravalue                                        /home/vboxuser/topst/cr5-bsp/sources/build/tcc805x/gcc/tcc805x-freertos-debug/obj/hap.o
WDT_Init                                          /home/vboxuser/topst/cr5-bsp/sources/build/tcc805x/gcc/tcc805x-freertos-debug/obj/wdt.o
                                                  /home/vboxuser/topst/cr5-bsp/sources/build/tcc805x/gcc/tcc805x-freertos-debug/obj/bsp.o
                                                  /home/vboxuser/topst/cr5-bsp/sources/build/tcc805x/gcc/tcc805x-freertos-debug/obj/wdt_test.o
WDT_KickPing                                      /home/vboxuser/topst/cr5-bsp/sources/build/tcc805x/gcc/tcc805x-freertos-debug/obj/wdt.o
                                                  /home/vboxuser/topst/cr5-bsp/sources/build/tcc805x/gcc/tcc805x-freertos-debug/obj/wdt_test.o
                                                  /home/vboxuser/topst/cr5-bsp/sources/build/tcc805x/gcc/tcc805x-freertos-debug/obj/timer_test.o
WDT_ResetSystem                                   /home/vboxuser/topst/cr5-bsp/sources/build/tcc805x/gcc/tcc805x-freertos-debug/obj/wdt.o
                                                  /home/vboxuser/topst/cr5-bsp/sources/build/tcc805x/gcc/tcc805x-freertos-debug/obj/wdt_test.o
WDT_SmMode                                        /home/vboxuser/topst/cr5-bsp/sources/build/tcc805x/gcc/tcc805x-freertos-debug/obj/wdt.o
                                                  /home/vboxuser/topst/cr5-bsp/sources/build/tcc805x/gcc/tcc805x-freertos-debug/obj/wdt_test.o
                                                  /home/vboxuser/topst/cr5-bsp/sources/build/tcc805x/gcc/tcc805x-freertos-debug/obj/timer_test.o
WDT_StartTest                                     /home/vboxuser/topst/cr5-bsp/sources/build/tcc805x/gcc/tcc805x-freertos-debug/obj/wdt_test.o
                                                  /home/vboxuser/topst/cr5-bsp/sources/build/tcc805x/gcc/tcc805x-freertos-debug/obj/console.o
WDT_Stop                                          /home/vboxuser/topst/cr5-bsp/sources/build/tcc805x/gcc/tcc805x-freertos-debug/obj/wdt.o
                                                  /home/vboxuser/topst/cr5-bsp/sources/build/tcc805x/gcc/tcc805x-freertos-debug/obj/wdt_test.o
                                                  /home/vboxuser/topst/cr5-bsp/sources/build/tcc805x/gcc/tcc805x-freertos-debug/obj/timer_test.o
                                                  /home/vboxuser/topst/cr5-bsp/sources/build/tcc805x/gcc/tcc805x-freertos-debug/obj/fwug.o
_Balloc                                           /home/vboxuser/topst/buildtools/gcc-linaro-7.2.1-2017.11-x86_64_arm-eabi/arm-eabi/libc/usr/lib/libc.a(lib_a-mprec.o)
                                                  /home/vboxuser/topst/buildtools/gcc-linaro-7.2.1-2017.11-x86_64_arm-eabi/arm-eabi/libc/usr/lib/libc.a(lib_a-dtoa.o)
_Bfree                                            /home/vboxuser/topst/buildtools/gcc-linaro-7.2.1-2017.11-x86_64_arm-eabi/arm-eabi/libc/usr/lib/libc.a(lib_a-mprec.o)
                                                  /home/vboxuser/topst/buildtools/gcc-linaro-7.2.1-2017.11-x86_64_arm-eabi/arm-eabi/libc/usr/lib/libc.a(lib_a-dtoa.o)
_PathLocale                                       /home/vboxuser/topst/buildtools/gcc-linaro-7.2.1-2017.11-x86_64_arm-eabi/arm-eabi/libc/usr/lib/libc.a(lib_a-locale.o)
__BSS_END__                                       /home/vboxuser/topst/cr5-bsp/sources/build/tcc805x/gcc/tcc805x-freertos-debug/obj/startup.o
__BSS_START__                                     /home/vboxuser/topst/cr5-bsp/sources/build/tcc805x/gcc/tcc805x-freertos-debug/obj/startup.o
__C_locale                                        /home/vboxuser/topst/buildtools/gcc-linaro-7.2.1-2017.11-x86_64_arm-eabi/arm-eabi/libc/usr/lib/libc.a(lib_a-locale.o)
__DATA_END__                                      /home/vboxuser/topst/cr5-bsp/sources/build/tcc805x/gcc/tcc805x-freertos-debug/obj/startup.o
__DATA_START_LOAD                                 /home/vboxuser/topst/cr5-bsp/sources/build/tcc805x/gcc/tcc805x-freertos-debug/obj/startup.o
__DATA_START__                                    /home/vboxuser/topst/cr5-bsp/sources/build/tcc805x/gcc/tcc805x-freertos-debug/obj/startup.o
__DSB                                             /home/vboxuser/topst/cr5-bsp/sources/build/tcc805x/gcc/tcc805x-freertos-debug/obj/freertos.o
                                                  /home/vboxuser/topst/cr5-bsp/sources/build/tcc805x/gcc/tcc805x-freertos-debug/obj/sal_freertos_impl.o
__RODATA_END__                                    /home/vboxuser/topst/cr5-bsp/sources/build/tcc805x/gcc/tcc805x-freertos-debug/obj/startup.o
__TEXT_START__                                    /home/vboxuser/topst/cr5-bsp/sources/build/tcc805x/gcc/tcc805x-freertos-debug/obj/startup.o
__VECTOR_END__                                    /home/vboxuser/topst/cr5-bsp/sources/build/tcc805x/gcc/tcc805x-freertos-debug/obj/startup.o
__VECTOR_START_LOAD                               /home/vboxuser/topst/cr5-bsp/sources/build/tcc805x/gcc/tcc805x-freertos-debug/obj/startup.o
__VECTOR_START__                                  /home/vboxuser/topst/cr5-bsp/sources/build/tcc805x/gcc/tcc805x-freertos-debug/obj/startup.o
__action_table                                    /home/vboxuser/topst/buildtools/gcc-linaro-7.2.1-2017.11-x86_64_arm-eabi/arm-eabi/libc/usr/lib/libc.a(lib_a-svfiprintf.o)
                                                  /home/vboxuser/topst/buildtools/gcc-linaro-7.2.1-2017.11-x86_64_arm-eabi/arm-eabi/libc/usr/lib/libc.a(lib_a-svfprintf.o)
__adddf3                                          /home/vboxuser/topst/buildtools/gcc-linaro-7.2.1-2017.11-x86_64_arm-eabi/arm-eabi/libc/usr/lib/libgcc.a(_arm_addsubdf3.o)
__addsf3                                          /home/vboxuser/topst/buildtools/gcc-linaro-7.2.1-2017.11-x86_64_arm-eabi/arm-eabi/libc/usr/lib/libgcc.a(_arm_addsubsf3.o)
__aeabi_cdcmpeq                                   /home/vboxuser/topst/buildtools/gcc-linaro-7.2.1-2017.11-x86_64_arm-eabi/arm-eabi/libc/usr/lib/libgcc.a(_arm_cmpdf2.o)
__aeabi_cdcmple                                   /home/vboxuser/topst/buildtools/gcc-linaro-7.2.1-2017.11-x86_64_arm-eabi/arm-eabi/libc/usr/lib/libgcc.a(_arm_cmpdf2.o)
__aeabi_cdrcmple                                  /home/vboxuser/topst/buildtools/gcc-linaro-7.2.1-2017.11-x86_64_arm-eabi/arm-eabi/libc/usr/lib/libgcc.a(_arm_cmpdf2.o)
__aeabi_d2iz                                      /home/vboxuser/topst/buildtools/gcc-linaro-7.2.1-2017.11-x86_64_arm-eabi/arm-eabi/libc/usr/lib/libgcc.a(_arm_fixdfsi.o)
                                                  /home/vboxuser/topst/buildtools/gcc-linaro-7.2.1-2017.11-x86_64_arm-eabi/arm-eabi/libc/usr/lib/libc.a(lib_a-dtoa.o)
                                                  /home/vboxuser/topst/buildtools/gcc-linaro-7.2.1-2017.11-x86_64_arm-eabi/arm-eabi/libc/usr/lib/libc.a(lib_a-svfprintf.o)
__aeabi_d2uiz                                     /home/vboxuser/topst/buildtools/gcc-linaro-7.2.1-2017.11-x86_64_arm-eabi/arm-eabi/libc/usr/lib/libgcc.a(_arm_fixunsdfsi.o)
                                                  /home/vboxuser/topst/cr5-bsp/sources/build/tcc805x/gcc/tcc805x-freertos-debug/obj/hap.o
__aeabi_dadd                                      /home/vboxuser/topst/buildtools/gcc-linaro-7.2.1-2017.11-x86_64_arm-eabi/arm-eabi/libc/usr/lib/libgcc.a(_arm_addsubdf3.o)
                                                  /home/vboxuser/topst/buildtools/gcc-linaro-7.2.1-2017.11-x86_64_arm-eabi/arm-eabi/libc/usr/lib/libc.a(lib_a-dtoa.o)
__aeabi_dcmpeq                                    /home/vboxuser/topst/buildtools/gcc-linaro-7.2.1-2017.11-x86_64_arm-eabi/arm-eabi/libc/usr/lib/libgcc.a(_arm_cmpdf2.o)
                                                  /home/vboxuser/topst/buildtools/gcc-linaro-7.2.1-2017.11-x86_64_arm-eabi/arm-eabi/libc/usr/lib/libc.a(lib_a-dtoa.o)
                                                  /home/vboxuser/topst/buildtools/gcc-linaro-7.2.1-2017.11-x86_64_arm-eabi/arm-eabi/libc/usr/lib/libc.a(lib_a-svfprintf.o)
__aeabi_dcmpge                                    /home/vboxuser/topst/buildtools/gcc-linaro-7.2.1-2017.11-x86_64_arm-eabi/arm-eabi/libc/usr/lib/libgcc.a(_arm_cmpdf2.o)
                                                  /home/vboxuser/topst/buildtools/gcc-linaro-7.2.1-2017.11-x86_64_arm-eabi/arm-eabi/libc/usr/lib/libc.a(lib_a-dtoa.o)
__aeabi_dcmpgt                                    /home/vboxuser/topst/buildtools/gcc-linaro-7.2.1-2017.11-x86_64_arm-eabi/arm-eabi/libc/usr/lib/libgcc.a(_arm_cmpdf2.o)
                                                  /home/vboxuser/topst/buildtools/gcc-linaro-7.2.1-2017.11-x86_64_arm-eabi/arm-eabi/libc/usr/lib/libc.a(lib_a-dtoa.o)
                                                  /home/vboxuser/topst/buildtools/gcc-linaro-7.2.1-2017.11-x86_64_arm-eabi/arm-eabi/libc/usr/lib/libc.a(lib_a-svfprintf.o)
__aeabi_dcmple                                    /home/vboxuser/topst/buildtools/gcc-linaro-7.2.1-2017.11-x86_64_arm-eabi/arm-eabi/libc/usr/lib/libgcc.a(_arm_cmpdf2.o)
                                                  /home/vboxuser/topst/buildtools/gcc-linaro-7.2.1-2017.11-x86_64_arm-eabi/arm-eabi/libc/usr/lib/libc.a(lib_a-svfprintf.o)
__aeabi_dcmplt                                    /home/vboxuser/topst/buildtools/gcc-linaro-7.2.1-2017.11-x86_64_arm-eabi/arm-eabi/libc/usr/lib/libgcc.a(_arm_cmpdf2.o)
                                                  /home/vboxuser/topst/buildtools/gcc-linaro-7.2.1-2017.11-x86_64_arm-eabi/arm-eabi/libc/usr/lib/libc.a(lib_a-dtoa.o)
                                                  /home/vboxuser/topst/buildtools/gcc-linaro-7.2.1-2017.11-x86_64_arm-eabi/arm-eabi/libc/usr/lib/libc.a(lib_a-svfprintf.o)
__aeabi_dcmpun                                    /home/vboxuser/topst/buildtools/gcc-linaro-7.2.1-2017.11-x86_64_arm-eabi/arm-eabi/libc/usr/lib/libgcc.a(_arm_unorddf2.o)
                                                  /home/vboxuser/topst/buildtools/gcc-linaro-7.2.1-2017.11-x86_64_arm-eabi/arm-eabi/libc/usr/lib/libc.a(lib_a-svfprintf.o)
__aeabi_ddiv                                      /home/vboxuser/topst/buildtools/gcc-linaro-7.2.1-2017.11-x86_64_arm-eabi/arm-eabi/libc/usr/lib/libgcc.a(_arm_muldivdf3.o)
                                                  /home/vboxuser/topst/buildtools/gcc-linaro-7.2.1-2017.11-x86_64_arm-eabi/arm-eabi/libc/usr/lib/libc.a(lib_a-mprec.o)
                                                  /home/vboxuser/topst/buildtools/gcc-linaro-7.2.1-2017.11-x86_64_arm-eabi/arm-eabi/libc/usr/lib/libc.a(lib_a-dtoa.o)
                                                  /home/vboxuser/topst/cr5-bsp/sources/build/tcc805x/gcc/tcc805x-freertos-debug/obj/hap.o
__aeabi_dmul                                      /home/vboxuser/topst/buildtools/gcc-linaro-7.2.1-2017.11-x86_64_arm-eabi/arm-eabi/libc/usr/lib/libgcc.a(_arm_muldivdf3.o)
                                                  /home/vboxuser/topst/buildtools/gcc-linaro-7.2.1-2017.11-x86_64_arm-eabi/arm-eabi/libc/usr/lib/libc.a(lib_a-s_frexp.o)
                                                  /home/vboxuser/topst/buildtools/gcc-linaro-7.2.1-2017.11-x86_64_arm-eabi/arm-eabi/libc/usr/lib/libc.a(lib_a-mprec.o)
                                                  /home/vboxuser/topst/buildtools/gcc-linaro-7.2.1-2017.11-x86_64_arm-eabi/arm-eabi/libc/usr/lib/libc.a(lib_a-dtoa.o)
                                                  /home/vboxuser/topst/buildtools/gcc-linaro-7.2.1-2017.11-x86_64_arm-eabi/arm-eabi/libc/usr/lib/libc.a(lib_a-svfprintf.o)
                                                  /home/vboxuser/topst/cr5-bsp/sources/build/tcc805x/gcc/tcc805x-freertos-debug/obj/hap.o
__aeabi_drsub                                     /home/vboxuser/topst/buildtools/gcc-linaro-7.2.1-2017.11-x86_64_arm-eabi/arm-eabi/libc/usr/lib/libgcc.a(_arm_addsubdf3.o)
__aeabi_dsub                                      /home/vboxuser/topst/buildtools/gcc-linaro-7.2.1-2017.11-x86_64_arm-eabi/arm-eabi/libc/usr/lib/libgcc.a(_arm_addsubdf3.o)
                                                  /home/vboxuser/topst/buildtools/gcc-linaro-7.2.1-2017.11-x86_64_arm-eabi/arm-eabi/libc/usr/lib/libc.a(lib_a-dtoa.o)
                                                  /home/vboxuser/topst/buildtools/gcc-linaro-7.2.1-2017.11-x86_64_arm-eabi/arm-eabi/libc/usr/lib/libc.a(lib_a-svfprintf.o)
__aeabi_f2d                                       /home/vboxuser/topst/buildtools/gcc-linaro-7.2.1-2017.11-x86_64_arm-eabi/arm-eabi/libc/usr/lib/libgcc.a(_arm_addsubdf3.o)
__aeabi_f2uiz                                     /home/vboxuser/topst/buildtools/gcc-linaro-7.2.1-2017.11-x86_64_arm-eabi/arm-eabi/libc/usr/lib/libgcc.a(_arm_fixunssfsi.o)
                                                  /home/vboxuser/topst/cr5-bsp/sources/build/tcc805x/gcc/tcc805x-freertos-debug/obj/hap.o
__aeabi_fadd                                      /home/vboxuser/topst/buildtools/gcc-linaro-7.2.1-2017.11-x86_64_arm-eabi/arm-eabi/libc/usr/lib/libgcc.a(_arm_addsubsf3.o)
__aeabi_fdiv                                      /home/vboxuser/topst/buildtools/gcc-linaro-7.2.1-2017.11-x86_64_arm-eabi/arm-eabi/libc/usr/lib/libgcc.a(_arm_muldivsf3.o)
__aeabi_fmul                                      /home/vboxuser/topst/buildtools/gcc-linaro-7.2.1-2017.11-x86_64_arm-eabi/arm-eabi/libc/usr/lib/libgcc.a(_arm_muldivsf3.o)
                                                  /home/vboxuser/topst/cr5-bsp/sources/build/tcc805x/gcc/tcc805x-freertos-debug/obj/hap.o
__aeabi_frsub                                     /home/vboxuser/topst/buildtools/gcc-linaro-7.2.1-2017.11-x86_64_arm-eabi/arm-eabi/libc/usr/lib/libgcc.a(_arm_addsubsf3.o)
__aeabi_fsub                                      /home/vboxuser/topst/buildtools/gcc-linaro-7.2.1-2017.11-x86_64_arm-eabi/arm-eabi/libc/usr/lib/libgcc.a(_arm_addsubsf3.o)
__aeabi_i2d                                       /home/vboxuser/topst/buildtools/gcc-linaro-7.2.1-2017.11-x86_64_arm-eabi/arm-eabi/libc/usr/lib/libgcc.a(_arm_addsubdf3.o)
                                                  /home/vboxuser/topst/buildtools/gcc-linaro-7.2.1-2017.11-x86_64_arm-eabi/arm-eabi/libc/usr/lib/libc.a(lib_a-dtoa.o)
                                                  /home/vboxuser/topst/buildtools/gcc-linaro-7.2.1-2017.11-x86_64_arm-eabi/arm-eabi/libc/usr/lib/libc.a(lib_a-svfprintf.o)
__aeabi_i2f                                       /home/vboxuser/topst/buildtools/gcc-linaro-7.2.1-2017.11-x86_64_arm-eabi/arm-eabi/libc/usr/lib/libgcc.a(_arm_addsubsf3.o)
                                                  /home/vboxuser/topst/cr5-bsp/sources/build/tcc805x/gcc/tcc805x-freertos-debug/obj/hap.o
__aeabi_idiv0                                     /home/vboxuser/topst/buildtools/gcc-linaro-7.2.1-2017.11-x86_64_arm-eabi/arm-eabi/libc/usr/lib/libgcc.a(_dvmd_tls.o)
                                                  /home/vboxuser/topst/buildtools/gcc-linaro-7.2.1-2017.11-x86_64_arm-eabi/arm-eabi/libc/usr/lib/libgcc.a(_udivsi3.o)
__aeabi_l2d                                       /home/vboxuser/topst/buildtools/gcc-linaro-7.2.1-2017.11-x86_64_arm-eabi/arm-eabi/libc/usr/lib/libgcc.a(_arm_addsubdf3.o)
__aeabi_l2f                                       /home/vboxuser/topst/buildtools/gcc-linaro-7.2.1-2017.11-x86_64_arm-eabi/arm-eabi/libc/usr/lib/libgcc.a(_arm_addsubsf3.o)
__aeabi_ldiv0                                     /home/vboxuser/topst/buildtools/gcc-linaro-7.2.1-2017.11-x86_64_arm-eabi/arm-eabi/libc/usr/lib/libgcc.a(_dvmd_tls.o)
                                                  /home/vboxuser/topst/buildtools/gcc-linaro-7.2.1-2017.11-x86_64_arm-eabi/arm-eabi/libc/usr/lib/libgcc.a(_aeabi_uldivmod.o)
__aeabi_ui2d                                      /home/vboxuser/topst/buildtools/gcc-linaro-7.2.1-2017.11-x86_64_arm-eabi/arm-eabi/libc/usr/lib/libgcc.a(_arm_addsubdf3.o)
                                                  /home/vboxuser/topst/buildtools/gcc-linaro-7.2.1-2017.11-x86_64_arm-eabi/arm-eabi/libc/usr/lib/libc.a(lib_a-dtoa.o)
                                                  /home/vboxuser/topst/cr5-bsp/sources/build/tcc805x/gcc/tcc805x-freertos-debug/obj/hap.o
__aeabi_ui2f                                      /home/vboxuser/topst/buildtools/gcc-linaro-7.2.1-2017.11-x86_64_arm-eabi/arm-eabi/libc/usr/lib/libgcc.a(_arm_addsubsf3.o)
__aeabi_uidiv                                     /home/vboxuser/topst/buildtools/gcc-linaro-7.2.1-2017.11-x86_64_arm-eabi/arm-eabi/libc/usr/lib/libgcc.a(_udivsi3.o)
                                                  /home/vboxuser/topst/buildtools/gcc-linaro-7.2.1-2017.11-x86_64_arm-eabi/arm-eabi/libc/usr/lib/libc.a(lib_a-dtoa.o)
                                                  /home/vboxuser/topst/buildtools/gcc-linaro-7.2.1-2017.11-x86_64_arm-eabi/arm-eabi/libc/usr/lib/libc.a(lib_a-strtoul.o)
__aeabi_uidivmod                                  /home/vboxuser/topst/buildtools/gcc-linaro-7.2.1-2017.11-x86_64_arm-eabi/arm-eabi/libc/usr/lib/libgcc.a(_udivsi3.o)
                                                  /home/vboxuser/topst/buildtools/gcc-linaro-7.2.1-2017.11-x86_64_arm-eabi/arm-eabi/libc/usr/lib/libc.a(lib_a-strtoul.o)
                                                  /home/vboxuser/topst/buildtools/gcc-linaro-7.2.1-2017.11-x86_64_arm-eabi/arm-eabi/libc/usr/lib/libc.a(lib_a-strtol.o)
__aeabi_ul2d                                      /home/vboxuser/topst/buildtools/gcc-linaro-7.2.1-2017.11-x86_64_arm-eabi/arm-eabi/libc/usr/lib/libgcc.a(_arm_addsubdf3.o)
__aeabi_ul2f                                      /home/vboxuser/topst/buildtools/gcc-linaro-7.2.1-2017.11-x86_64_arm-eabi/arm-eabi/libc/usr/lib/libgcc.a(_arm_addsubsf3.o)
__aeabi_uldivmod                                  /home/vboxuser/topst/buildtools/gcc-linaro-7.2.1-2017.11-x86_64_arm-eabi/arm-eabi/libc/usr/lib/libgcc.a(_aeabi_uldivmod.o)
                                                  /home/vboxuser/topst/buildtools/gcc-linaro-7.2.1-2017.11-x86_64_arm-eabi/arm-eabi/libc/usr/lib/libc.a(lib_a-svfiprintf.o)
                                                  /home/vboxuser/topst/buildtools/gcc-linaro-7.2.1-2017.11-x86_64_arm-eabi/arm-eabi/libc/usr/lib/libc.a(lib_a-svfprintf.o)
                                                  /home/vboxuser/topst/cr5-bsp/sources/build/tcc805x/gcc/tcc805x-freertos-debug/obj/clock_dev.o
__any_on                                          /home/vboxuser/topst/buildtools/gcc-linaro-7.2.1-2017.11-x86_64_arm-eabi/arm-eabi/libc/usr/lib/libc.a(lib_a-mprec.o)
__ascii_mbtowc                                    /home/vboxuser/topst/buildtools/gcc-linaro-7.2.1-2017.11-x86_64_arm-eabi/arm-eabi/libc/usr/lib/libc.a(lib_a-mbtowc_r.o)
                                                  /home/vboxuser/topst/buildtools/gcc-linaro-7.2.1-2017.11-x86_64_arm-eabi/arm-eabi/libc/usr/lib/libc.a(lib_a-locale.o)
__ascii_wctomb                                    /home/vboxuser/topst/buildtools/gcc-linaro-7.2.1-2017.11-x86_64_arm-eabi/arm-eabi/libc/usr/lib/libc.a(lib_a-wctomb_r.o)
                                                  /home/vboxuser/topst/buildtools/gcc-linaro-7.2.1-2017.11-x86_64_arm-eabi/arm-eabi/libc/usr/lib/libc.a(lib_a-locale.o)
__b2d                                             /home/vboxuser/topst/buildtools/gcc-linaro-7.2.1-2017.11-x86_64_arm-eabi/arm-eabi/libc/usr/lib/libc.a(lib_a-mprec.o)
__chclass                                         /home/vboxuser/topst/buildtools/gcc-linaro-7.2.1-2017.11-x86_64_arm-eabi/arm-eabi/libc/usr/lib/libc.a(lib_a-svfiprintf.o)
                                                  /home/vboxuser/topst/buildtools/gcc-linaro-7.2.1-2017.11-x86_64_arm-eabi/arm-eabi/libc/usr/lib/libc.a(lib_a-svfprintf.o)
__clzdi2                                          /home/vboxuser/topst/buildtools/gcc-linaro-7.2.1-2017.11-x86_64_arm-eabi/arm-eabi/libc/usr/lib/libgcc.a(_clzdi2.o)
                                                  /home/vboxuser/topst/buildtools/gcc-linaro-7.2.1-2017.11-x86_64_arm-eabi/arm-eabi/libc/usr/lib/libgcc.a(_udivmoddi4.o)
__clzsi2                                          /home/vboxuser/topst/buildtools/gcc-linaro-7.2.1-2017.11-x86_64_arm-eabi/arm-eabi/libc/usr/lib/libgcc.a(_clzsi2.o)
                                                  /home/vboxuser/topst/buildtools/gcc-linaro-7.2.1-2017.11-x86_64_arm-eabi/arm-eabi/libc/usr/lib/libgcc.a(_clzdi2.o)
__cmpdf2                                          /home/vboxuser/topst/buildtools/gcc-linaro-7.2.1-2017.11-x86_64_arm-eabi/arm-eabi/libc/usr/lib/libgcc.a(_arm_cmpdf2.o)
__copybits                                        /home/vboxuser/topst/buildtools/gcc-linaro-7.2.1-2017.11-x86_64_arm-eabi/arm-eabi/libc/usr/lib/libc.a(lib_a-mprec.o)
__d2b                                             /home/vboxuser/topst/buildtools/gcc-linaro-7.2.1-2017.11-x86_64_arm-eabi/arm-eabi/libc/usr/lib/libc.a(lib_a-mprec.o)
                                                  /home/vboxuser/topst/buildtools/gcc-linaro-7.2.1-2017.11-x86_64_arm-eabi/arm-eabi/libc/usr/lib/libc.a(lib_a-dtoa.o)
__default_locale                                  /home/vboxuser/topst/buildtools/gcc-linaro-7.2.1-2017.11-x86_64_arm-eabi/arm-eabi/libc/usr/lib/libc.a(lib_a-locale.o)
__divdf3                                          /home/vboxuser/topst/buildtools/gcc-linaro-7.2.1-2017.11-x86_64_arm-eabi/arm-eabi/libc/usr/lib/libgcc.a(_arm_muldivdf3.o)
__divsf3                                          /home/vboxuser/topst/buildtools/gcc-linaro-7.2.1-2017.11-x86_64_arm-eabi/arm-eabi/libc/usr/lib/libgcc.a(_arm_muldivsf3.o)
__env_lock                                        /home/vboxuser/topst/buildtools/gcc-linaro-7.2.1-2017.11-x86_64_arm-eabi/arm-eabi/libc/usr/lib/libc.a(lib_a-envlock.o)
                                                  /home/vboxuser/topst/buildtools/gcc-linaro-7.2.1-2017.11-x86_64_arm-eabi/arm-eabi/libc/usr/lib/libc.a(lib_a-getenv_r.o)
__env_unlock                                      /home/vboxuser/topst/buildtools/gcc-linaro-7.2.1-2017.11-x86_64_arm-eabi/arm-eabi/libc/usr/lib/libc.a(lib_a-envlock.o)
                                                  /home/vboxuser/topst/buildtools/gcc-linaro-7.2.1-2017.11-x86_64_arm-eabi/arm-eabi/libc/usr/lib/libc.a(lib_a-getenv_r.o)
__eqdf2                                           /home/vboxuser/topst/buildtools/gcc-linaro-7.2.1-2017.11-x86_64_arm-eabi/arm-eabi/libc/usr/lib/libgcc.a(_arm_cmpdf2.o)
__errno                                           /home/vboxuser/topst/buildtools/gcc-linaro-7.2.1-2017.11-x86_64_arm-eabi/arm-eabi/libc/usr/lib/libc.a(lib_a-errno.o)
                                                  /home/vboxuser/topst/buildtools/gcc-linaro-7.2.1-2017.11-x86_64_arm-eabi/arm-eabi/libc/usr/lib/libc.a(lib_a-syscalls.o)
__eucjp_mbtowc                                    /home/vboxuser/topst/buildtools/gcc-linaro-7.2.1-2017.11-x86_64_arm-eabi/arm-eabi/libc/usr/lib/libc.a(lib_a-mbtowc_r.o)
                                                  /home/vboxuser/topst/buildtools/gcc-linaro-7.2.1-2017.11-x86_64_arm-eabi/arm-eabi/libc/usr/lib/libc.a(lib_a-locale.o)
__eucjp_wctomb                                    /home/vboxuser/topst/buildtools/gcc-linaro-7.2.1-2017.11-x86_64_arm-eabi/arm-eabi/libc/usr/lib/libc.a(lib_a-wctomb_r.o)
                                                  /home/vboxuser/topst/buildtools/gcc-linaro-7.2.1-2017.11-x86_64_arm-eabi/arm-eabi/libc/usr/lib/libc.a(lib_a-locale.o)
__extendsfdf2                                     /home/vboxuser/topst/buildtools/gcc-linaro-7.2.1-2017.11-x86_64_arm-eabi/arm-eabi/libc/usr/lib/libgcc.a(_arm_addsubdf3.o)
__fixdfsi                                         /home/vboxuser/topst/buildtools/gcc-linaro-7.2.1-2017.11-x86_64_arm-eabi/arm-eabi/libc/usr/lib/libgcc.a(_arm_fixdfsi.o)
__fixunsdfsi                                      /home/vboxuser/topst/buildtools/gcc-linaro-7.2.1-2017.11-x86_64_arm-eabi/arm-eabi/libc/usr/lib/libgcc.a(_arm_fixunsdfsi.o)
__fixunssfsi                                      /home/vboxuser/topst/buildtools/gcc-linaro-7.2.1-2017.11-x86_64_arm-eabi/arm-eabi/libc/usr/lib/libgcc.a(_arm_fixunssfsi.o)
__floatdidf                                       /home/vboxuser/topst/buildtools/gcc-linaro-7.2.1-2017.11-x86_64_arm-eabi/arm-eabi/libc/usr/lib/libgcc.a(_arm_addsubdf3.o)
__floatdisf                                       /home/vboxuser/topst/buildtools/gcc-linaro-7.2.1-2017.11-x86_64_arm-eabi/arm-eabi/libc/usr/lib/libgcc.a(_arm_addsubsf3.o)
__floatsidf                                       /home/vboxuser/topst/buildtools/gcc-linaro-7.2.1-2017.11-x86_64_arm-eabi/arm-eabi/libc/usr/lib/libgcc.a(_arm_addsubdf3.o)
__floatsisf                                       /home/vboxuser/topst/buildtools/gcc-linaro-7.2.1-2017.11-x86_64_arm-eabi/arm-eabi/libc/usr/lib/libgcc.a(_arm_addsubsf3.o)
__floatundidf                                     /home/vboxuser/topst/buildtools/gcc-linaro-7.2.1-2017.11-x86_64_arm-eabi/arm-eabi/libc/usr/lib/libgcc.a(_arm_addsubdf3.o)
__floatundisf                                     /home/vboxuser/topst/buildtools/gcc-linaro-7.2.1-2017.11-x86_64_arm-eabi/arm-eabi/libc/usr/lib/libgcc.a(_arm_addsubsf3.o)
__floatunsidf                                     /home/vboxuser/topst/buildtools/gcc-linaro-7.2.1-2017.11-x86_64_arm-eabi/arm-eabi/libc/usr/lib/libgcc.a(_arm_addsubdf3.o)
__floatunsisf                                     /home/vboxuser/topst/buildtools/gcc-linaro-7.2.1-2017.11-x86_64_arm-eabi/arm-eabi/libc/usr/lib/libgcc.a(_arm_addsubsf3.o)
__fp_lock_all                                     /home/vboxuser/topst/buildtools/gcc-linaro-7.2.1-2017.11-x86_64_arm-eabi/arm-eabi/libc/usr/lib/libc.a(lib_a-findfp.o)
__fp_unlock_all                                   /home/vboxuser/topst/buildtools/gcc-linaro-7.2.1-2017.11-x86_64_arm-eabi/arm-eabi/libc/usr/lib/libc.a(lib_a-findfp.o)
__gedf2                                           /home/vboxuser/topst/buildtools/gcc-linaro-7.2.1-2017.11-x86_64_arm-eabi/arm-eabi/libc/usr/lib/libgcc.a(_arm_cmpdf2.o)
__get_locale_env                                  /home/vboxuser/topst/buildtools/gcc-linaro-7.2.1-2017.11-x86_64_arm-eabi/arm-eabi/libc/usr/lib/libc.a(lib_a-locale.o)
__global_locale                                   /home/vboxuser/topst/buildtools/gcc-linaro-7.2.1-2017.11-x86_64_arm-eabi/arm-eabi/libc/usr/lib/libc.a(lib_a-locale.o)
                                                  /home/vboxuser/topst/buildtools/gcc-linaro-7.2.1-2017.11-x86_64_arm-eabi/arm-eabi/libc/usr/lib/libc.a(lib_a-wctomb_r.o)
                                                  /home/vboxuser/topst/buildtools/gcc-linaro-7.2.1-2017.11-x86_64_arm-eabi/arm-eabi/libc/usr/lib/libc.a(lib_a-wcsnrtombs.o)
                                                  /home/vboxuser/topst/buildtools/gcc-linaro-7.2.1-2017.11-x86_64_arm-eabi/arm-eabi/libc/usr/lib/libc.a(lib_a-svfiprintf.o)
                                                  /home/vboxuser/topst/buildtools/gcc-linaro-7.2.1-2017.11-x86_64_arm-eabi/arm-eabi/libc/usr/lib/libc.a(lib_a-mbtowc_r.o)
                                                  /home/vboxuser/topst/buildtools/gcc-linaro-7.2.1-2017.11-x86_64_arm-eabi/arm-eabi/libc/usr/lib/libc.a(lib_a-localeconv.o)
                                                  /home/vboxuser/topst/buildtools/gcc-linaro-7.2.1-2017.11-x86_64_arm-eabi/arm-eabi/libc/usr/lib/libc.a(lib_a-wcrtomb.o)
                                                  /home/vboxuser/topst/buildtools/gcc-linaro-7.2.1-2017.11-x86_64_arm-eabi/arm-eabi/libc/usr/lib/libc.a(lib_a-svfprintf.o)
                                                  /home/vboxuser/topst/buildtools/gcc-linaro-7.2.1-2017.11-x86_64_arm-eabi/arm-eabi/libc/usr/lib/libc.a(lib_a-strtoul.o)
                                                  /home/vboxuser/topst/buildtools/gcc-linaro-7.2.1-2017.11-x86_64_arm-eabi/arm-eabi/libc/usr/lib/libc.a(lib_a-strtol.o)
__gtdf2                                           /home/vboxuser/topst/buildtools/gcc-linaro-7.2.1-2017.11-x86_64_arm-eabi/arm-eabi/libc/usr/lib/libgcc.a(_arm_cmpdf2.o)
__hi0bits                                         /home/vboxuser/topst/buildtools/gcc-linaro-7.2.1-2017.11-x86_64_arm-eabi/arm-eabi/libc/usr/lib/libc.a(lib_a-mprec.o)
                                                  /home/vboxuser/topst/buildtools/gcc-linaro-7.2.1-2017.11-x86_64_arm-eabi/arm-eabi/libc/usr/lib/libc.a(lib_a-dtoa.o)
__i2b                                             /home/vboxuser/topst/buildtools/gcc-linaro-7.2.1-2017.11-x86_64_arm-eabi/arm-eabi/libc/usr/lib/libc.a(lib_a-mprec.o)
                                                  /home/vboxuser/topst/buildtools/gcc-linaro-7.2.1-2017.11-x86_64_arm-eabi/arm-eabi/libc/usr/lib/libc.a(lib_a-dtoa.o)
__jis_mbtowc                                      /home/vboxuser/topst/buildtools/gcc-linaro-7.2.1-2017.11-x86_64_arm-eabi/arm-eabi/libc/usr/lib/libc.a(lib_a-mbtowc_r.o)
                                                  /home/vboxuser/topst/buildtools/gcc-linaro-7.2.1-2017.11-x86_64_arm-eabi/arm-eabi/libc/usr/lib/libc.a(lib_a-locale.o)
__jis_wctomb                                      /home/vboxuser/topst/buildtools/gcc-linaro-7.2.1-2017.11-x86_64_arm-eabi/arm-eabi/libc/usr/lib/libc.a(lib_a-wctomb_r.o)
                                                  /home/vboxuser/topst/buildtools/gcc-linaro-7.2.1-2017.11-x86_64_arm-eabi/arm-eabi/libc/usr/lib/libc.a(lib_a-locale.o)
__ledf2                                           /home/vboxuser/topst/buildtools/gcc-linaro-7.2.1-2017.11-x86_64_arm-eabi/arm-eabi/libc/usr/lib/libgcc.a(_arm_cmpdf2.o)
__lo0bits                                         /home/vboxuser/topst/buildtools/gcc-linaro-7.2.1-2017.11-x86_64_arm-eabi/arm-eabi/libc/usr/lib/libc.a(lib_a-mprec.o)
__loadlocale                                      /home/vboxuser/topst/buildtools/gcc-linaro-7.2.1-2017.11-x86_64_arm-eabi/arm-eabi/libc/usr/lib/libc.a(lib_a-locale.o)
__locale_ctype_ptr                                /home/vboxuser/topst/buildtools/gcc-linaro-7.2.1-2017.11-x86_64_arm-eabi/arm-eabi/libc/usr/lib/libc.a(lib_a-locale.o)
                                                  /home/vboxuser/topst/buildtools/gcc-linaro-7.2.1-2017.11-x86_64_arm-eabi/arm-eabi/libc/usr/lib/libc.a(lib_a-strncasecmp.o)
                                                  /home/vboxuser/topst/buildtools/gcc-linaro-7.2.1-2017.11-x86_64_arm-eabi/arm-eabi/libc/usr/lib/libc.a(lib_a-strcasecmp.o)
__locale_ctype_ptr_l                              /home/vboxuser/topst/buildtools/gcc-linaro-7.2.1-2017.11-x86_64_arm-eabi/arm-eabi/libc/usr/lib/libc.a(lib_a-locale.o)
                                                  /home/vboxuser/topst/buildtools/gcc-linaro-7.2.1-2017.11-x86_64_arm-eabi/arm-eabi/libc/usr/lib/libc.a(lib_a-strtoul.o)
                                                  /home/vboxuser/topst/buildtools/gcc-linaro-7.2.1-2017.11-x86_64_arm-eabi/arm-eabi/libc/usr/lib/libc.a(lib_a-strtol.o)
__locale_mb_cur_max                               /home/vboxuser/topst/buildtools/gcc-linaro-7.2.1-2017.11-x86_64_arm-eabi/arm-eabi/libc/usr/lib/libc.a(lib_a-locale.o)
                                                  /home/vboxuser/topst/buildtools/gcc-linaro-7.2.1-2017.11-x86_64_arm-eabi/arm-eabi/libc/usr/lib/libc.a(lib_a-svfiprintf.o)
                                                  /home/vboxuser/topst/buildtools/gcc-linaro-7.2.1-2017.11-x86_64_arm-eabi/arm-eabi/libc/usr/lib/libc.a(lib_a-svfprintf.o)
__localeconv_l                                    /home/vboxuser/topst/buildtools/gcc-linaro-7.2.1-2017.11-x86_64_arm-eabi/arm-eabi/libc/usr/lib/libc.a(lib_a-localeconv.o)
__lshift                                          /home/vboxuser/topst/buildtools/gcc-linaro-7.2.1-2017.11-x86_64_arm-eabi/arm-eabi/libc/usr/lib/libc.a(lib_a-mprec.o)
                                                  /home/vboxuser/topst/buildtools/gcc-linaro-7.2.1-2017.11-x86_64_arm-eabi/arm-eabi/libc/usr/lib/libc.a(lib_a-dtoa.o)
__ltdf2                                           /home/vboxuser/topst/buildtools/gcc-linaro-7.2.1-2017.11-x86_64_arm-eabi/arm-eabi/libc/usr/lib/libgcc.a(_arm_cmpdf2.o)
__malloc_av_                                      /home/vboxuser/topst/buildtools/gcc-linaro-7.2.1-2017.11-x86_64_arm-eabi/arm-eabi/libc/usr/lib/libc.a(lib_a-mallocr.o)
                                                  /home/vboxuser/topst/buildtools/gcc-linaro-7.2.1-2017.11-x86_64_arm-eabi/arm-eabi/libc/usr/lib/libc.a(lib_a-reallocr.o)
                                                  /home/vboxuser/topst/buildtools/gcc-linaro-7.2.1-2017.11-x86_64_arm-eabi/arm-eabi/libc/usr/lib/libc.a(lib_a-freer.o)
__malloc_current_mallinfo                         /home/vboxuser/topst/buildtools/gcc-linaro-7.2.1-2017.11-x86_64_arm-eabi/arm-eabi/libc/usr/lib/libc.a(lib_a-mallocr.o)
                                                  /home/vboxuser/topst/buildtools/gcc-linaro-7.2.1-2017.11-x86_64_arm-eabi/arm-eabi/libc/usr/lib/libc.a(lib_a-freer.o)
__malloc_lock                                     /home/vboxuser/topst/buildtools/gcc-linaro-7.2.1-2017.11-x86_64_arm-eabi/arm-eabi/libc/usr/lib/libc.a(lib_a-mlock.o)
                                                  /home/vboxuser/topst/buildtools/gcc-linaro-7.2.1-2017.11-x86_64_arm-eabi/arm-eabi/libc/usr/lib/libc.a(lib_a-reallocr.o)
                                                  /home/vboxuser/topst/buildtools/gcc-linaro-7.2.1-2017.11-x86_64_arm-eabi/arm-eabi/libc/usr/lib/libc.a(lib_a-mallocr.o)
                                                  /home/vboxuser/topst/buildtools/gcc-linaro-7.2.1-2017.11-x86_64_arm-eabi/arm-eabi/libc/usr/lib/libc.a(lib_a-freer.o)
__malloc_max_sbrked_mem                           /home/vboxuser/topst/buildtools/gcc-linaro-7.2.1-2017.11-x86_64_arm-eabi/arm-eabi/libc/usr/lib/libc.a(lib_a-mallocr.o)
__malloc_max_total_mem                            /home/vboxuser/topst/buildtools/gcc-linaro-7.2.1-2017.11-x86_64_arm-eabi/arm-eabi/libc/usr/lib/libc.a(lib_a-mallocr.o)
__malloc_sbrk_base                                /home/vboxuser/topst/buildtools/gcc-linaro-7.2.1-2017.11-x86_64_arm-eabi/arm-eabi/libc/usr/lib/libc.a(lib_a-mallocr.o)
                                                  /home/vboxuser/topst/buildtools/gcc-linaro-7.2.1-2017.11-x86_64_arm-eabi/arm-eabi/libc/usr/lib/libc.a(lib_a-freer.o)
__malloc_top_pad                                  /home/vboxuser/topst/buildtools/gcc-linaro-7.2.1-2017.11-x86_64_arm-eabi/arm-eabi/libc/usr/lib/libc.a(lib_a-mallocr.o)
                                                  /home/vboxuser/topst/buildtools/gcc-linaro-7.2.1-2017.11-x86_64_arm-eabi/arm-eabi/libc/usr/lib/libc.a(lib_a-freer.o)
__malloc_trim_threshold                           /home/vboxuser/topst/buildtools/gcc-linaro-7.2.1-2017.11-x86_64_arm-eabi/arm-eabi/libc/usr/lib/libc.a(lib_a-mallocr.o)
                                                  /home/vboxuser/topst/buildtools/gcc-linaro-7.2.1-2017.11-x86_64_arm-eabi/arm-eabi/libc/usr/lib/libc.a(lib_a-freer.o)
__malloc_unlock                                   /home/vboxuser/topst/buildtools/gcc-linaro-7.2.1-2017.11-x86_64_arm-eabi/arm-eabi/libc/usr/lib/libc.a(lib_a-mlock.o)
                                                  /home/vboxuser/topst/buildtools/gcc-linaro-7.2.1-2017.11-x86_64_arm-eabi/arm-eabi/libc/usr/lib/libc.a(lib_a-reallocr.o)
                                                  /home/vboxuser/topst/buildtools/gcc-linaro-7.2.1-2017.11-x86_64_arm-eabi/arm-eabi/libc/usr/lib/libc.a(lib_a-mallocr.o)
                                                  /home/vboxuser/topst/buildtools/gcc-linaro-7.2.1-2017.11-x86_64_arm-eabi/arm-eabi/libc/usr/lib/libc.a(lib_a-freer.o)
__mcmp                                            /home/vboxuser/topst/buildtools/gcc-linaro-7.2.1-2017.11-x86_64_arm-eabi/arm-eabi/libc/usr/lib/libc.a(lib_a-mprec.o)
                                                  /home/vboxuser/topst/buildtools/gcc-linaro-7.2.1-2017.11-x86_64_arm-eabi/arm-eabi/libc/usr/lib/libc.a(lib_a-dtoa.o)
__mdiff                                           /home/vboxuser/topst/buildtools/gcc-linaro-7.2.1-2017.11-x86_64_arm-eabi/arm-eabi/libc/usr/lib/libc.a(lib_a-mprec.o)
                                                  /home/vboxuser/topst/buildtools/gcc-linaro-7.2.1-2017.11-x86_64_arm-eabi/arm-eabi/libc/usr/lib/libc.a(lib_a-dtoa.o)
__mprec_bigtens                                   /home/vboxuser/topst/buildtools/gcc-linaro-7.2.1-2017.11-x86_64_arm-eabi/arm-eabi/libc/usr/lib/libc.a(lib_a-mprec.o)
                                                  /home/vboxuser/topst/buildtools/gcc-linaro-7.2.1-2017.11-x86_64_arm-eabi/arm-eabi/libc/usr/lib/libc.a(lib_a-dtoa.o)
__mprec_tens                                      /home/vboxuser/topst/buildtools/gcc-linaro-7.2.1-2017.11-x86_64_arm-eabi/arm-eabi/libc/usr/lib/libc.a(lib_a-mprec.o)
                                                  /home/vboxuser/topst/buildtools/gcc-linaro-7.2.1-2017.11-x86_64_arm-eabi/arm-eabi/libc/usr/lib/libc.a(lib_a-dtoa.o)
__mprec_tinytens                                  /home/vboxuser/topst/buildtools/gcc-linaro-7.2.1-2017.11-x86_64_arm-eabi/arm-eabi/libc/usr/lib/libc.a(lib_a-mprec.o)
__muldf3                                          /home/vboxuser/topst/buildtools/gcc-linaro-7.2.1-2017.11-x86_64_arm-eabi/arm-eabi/libc/usr/lib/libgcc.a(_arm_muldivdf3.o)
__mulsf3                                          /home/vboxuser/topst/buildtools/gcc-linaro-7.2.1-2017.11-x86_64_arm-eabi/arm-eabi/libc/usr/lib/libgcc.a(_arm_muldivsf3.o)
__multadd                                         /home/vboxuser/topst/buildtools/gcc-linaro-7.2.1-2017.11-x86_64_arm-eabi/arm-eabi/libc/usr/lib/libc.a(lib_a-mprec.o)
                                                  /home/vboxuser/topst/buildtools/gcc-linaro-7.2.1-2017.11-x86_64_arm-eabi/arm-eabi/libc/usr/lib/libc.a(lib_a-dtoa.o)
__multiply                                        /home/vboxuser/topst/buildtools/gcc-linaro-7.2.1-2017.11-x86_64_arm-eabi/arm-eabi/libc/usr/lib/libc.a(lib_a-mprec.o)
                                                  /home/vboxuser/topst/buildtools/gcc-linaro-7.2.1-2017.11-x86_64_arm-eabi/arm-eabi/libc/usr/lib/libc.a(lib_a-dtoa.o)
__nc_dmastart                                     /home/vboxuser/topst/cr5-bsp/sources/build/tcc805x/gcc/tcc805x-freertos-debug/obj/mpu.o
__nedf2                                           /home/vboxuser/topst/buildtools/gcc-linaro-7.2.1-2017.11-x86_64_arm-eabi/arm-eabi/libc/usr/lib/libgcc.a(_arm_cmpdf2.o)
__pow5mult                                        /home/vboxuser/topst/buildtools/gcc-linaro-7.2.1-2017.11-x86_64_arm-eabi/arm-eabi/libc/usr/lib/libc.a(lib_a-mprec.o)
                                                  /home/vboxuser/topst/buildtools/gcc-linaro-7.2.1-2017.11-x86_64_arm-eabi/arm-eabi/libc/usr/lib/libc.a(lib_a-dtoa.o)
__ratio                                           /home/vboxuser/topst/buildtools/gcc-linaro-7.2.1-2017.11-x86_64_arm-eabi/arm-eabi/libc/usr/lib/libc.a(lib_a-mprec.o)
__s2b                                             /home/vboxuser/topst/buildtools/gcc-linaro-7.2.1-2017.11-x86_64_arm-eabi/arm-eabi/libc/usr/lib/libc.a(lib_a-mprec.o)
__sclose                                          /home/vboxuser/topst/buildtools/gcc-linaro-7.2.1-2017.11-x86_64_arm-eabi/arm-eabi/libc/usr/lib/libc.a(lib_a-stdio.o)
                                                  /home/vboxuser/topst/buildtools/gcc-linaro-7.2.1-2017.11-x86_64_arm-eabi/arm-eabi/libc/usr/lib/libc.a(lib_a-findfp.o)
__seofread                                        /home/vboxuser/topst/buildtools/gcc-linaro-7.2.1-2017.11-x86_64_arm-eabi/arm-eabi/libc/usr/lib/libc.a(lib_a-stdio.o)
__set_ctype                                       /home/vboxuser/topst/buildtools/gcc-linaro-7.2.1-2017.11-x86_64_arm-eabi/arm-eabi/libc/usr/lib/libc.a(lib_a-ctype_.o)
                                                  /home/vboxuser/topst/buildtools/gcc-linaro-7.2.1-2017.11-x86_64_arm-eabi/arm-eabi/libc/usr/lib/libc.a(lib_a-locale.o)
__sflush_r                                        /home/vboxuser/topst/buildtools/gcc-linaro-7.2.1-2017.11-x86_64_arm-eabi/arm-eabi/libc/usr/lib/libc.a(lib_a-fflush.o)
                                                  /home/vboxuser/topst/buildtools/gcc-linaro-7.2.1-2017.11-x86_64_arm-eabi/arm-eabi/libc/usr/lib/libc.a(lib_a-fclose.o)
__sfmoreglue                                      /home/vboxuser/topst/buildtools/gcc-linaro-7.2.1-2017.11-x86_64_arm-eabi/arm-eabi/libc/usr/lib/libc.a(lib_a-findfp.o)
__sfp                                             /home/vboxuser/topst/buildtools/gcc-linaro-7.2.1-2017.11-x86_64_arm-eabi/arm-eabi/libc/usr/lib/libc.a(lib_a-findfp.o)
__sfp_lock_acquire                                /home/vboxuser/topst/buildtools/gcc-linaro-7.2.1-2017.11-x86_64_arm-eabi/arm-eabi/libc/usr/lib/libc.a(lib_a-findfp.o)
                                                  /home/vboxuser/topst/buildtools/gcc-linaro-7.2.1-2017.11-x86_64_arm-eabi/arm-eabi/libc/usr/lib/libc.a(lib_a-fclose.o)
__sfp_lock_release                                /home/vboxuser/topst/buildtools/gcc-linaro-7.2.1-2017.11-x86_64_arm-eabi/arm-eabi/libc/usr/lib/libc.a(lib_a-findfp.o)
                                                  /home/vboxuser/topst/buildtools/gcc-linaro-7.2.1-2017.11-x86_64_arm-eabi/arm-eabi/libc/usr/lib/libc.a(lib_a-fclose.o)
__sinit                                           /home/vboxuser/topst/buildtools/gcc-linaro-7.2.1-2017.11-x86_64_arm-eabi/arm-eabi/libc/usr/lib/libc.a(lib_a-findfp.o)
                                                  /home/vboxuser/topst/buildtools/gcc-linaro-7.2.1-2017.11-x86_64_arm-eabi/arm-eabi/libc/usr/lib/libc.a(lib_a-fflush.o)
                                                  /home/vboxuser/topst/buildtools/gcc-linaro-7.2.1-2017.11-x86_64_arm-eabi/arm-eabi/libc/usr/lib/libc.a(lib_a-fclose.o)
                                                  /home/vboxuser/topst/buildtools/gcc-linaro-7.2.1-2017.11-x86_64_arm-eabi/arm-eabi/libc/usr/lib/libc.a(lib_a-syscalls.o)
__sinit_lock_acquire                              /home/vboxuser/topst/buildtools/gcc-linaro-7.2.1-2017.11-x86_64_arm-eabi/arm-eabi/libc/usr/lib/libc.a(lib_a-findfp.o)
__sinit_lock_release                              /home/vboxuser/topst/buildtools/gcc-linaro-7.2.1-2017.11-x86_64_arm-eabi/arm-eabi/libc/usr/lib/libc.a(lib_a-findfp.o)
__sjis_mbtowc                                     /home/vboxuser/topst/buildtools/gcc-linaro-7.2.1-2017.11-x86_64_arm-eabi/arm-eabi/libc/usr/lib/libc.a(lib_a-mbtowc_r.o)
                                                  /home/vboxuser/topst/buildtools/gcc-linaro-7.2.1-2017.11-x86_64_arm-eabi/arm-eabi/libc/usr/lib/libc.a(lib_a-locale.o)
__sjis_wctomb                                     /home/vboxuser/topst/buildtools/gcc-linaro-7.2.1-2017.11-x86_64_arm-eabi/arm-eabi/libc/usr/lib/libc.a(lib_a-wctomb_r.o)
                                                  /home/vboxuser/topst/buildtools/gcc-linaro-7.2.1-2017.11-x86_64_arm-eabi/arm-eabi/libc/usr/lib/libc.a(lib_a-locale.o)
__sread                                           /home/vboxuser/topst/buildtools/gcc-linaro-7.2.1-2017.11-x86_64_arm-eabi/arm-eabi/libc/usr/lib/libc.a(lib_a-stdio.o)
                                                  /home/vboxuser/topst/buildtools/gcc-linaro-7.2.1-2017.11-x86_64_arm-eabi/arm-eabi/libc/usr/lib/libc.a(lib_a-findfp.o)
__sseek                                           /home/vboxuser/topst/buildtools/gcc-linaro-7.2.1-2017.11-x86_64_arm-eabi/arm-eabi/libc/usr/lib/libc.a(lib_a-stdio.o)
                                                  /home/vboxuser/topst/buildtools/gcc-linaro-7.2.1-2017.11-x86_64_arm-eabi/arm-eabi/libc/usr/lib/libc.a(lib_a-findfp.o)
__ssprint_r                                       /home/vboxuser/topst/buildtools/gcc-linaro-7.2.1-2017.11-x86_64_arm-eabi/arm-eabi/libc/usr/lib/libc.a(lib_a-svfiprintf.o)
                                                  /home/vboxuser/topst/buildtools/gcc-linaro-7.2.1-2017.11-x86_64_arm-eabi/arm-eabi/libc/usr/lib/libc.a(lib_a-svfprintf.o)
__state_table                                     /home/vboxuser/topst/buildtools/gcc-linaro-7.2.1-2017.11-x86_64_arm-eabi/arm-eabi/libc/usr/lib/libc.a(lib_a-svfiprintf.o)
                                                  /home/vboxuser/topst/buildtools/gcc-linaro-7.2.1-2017.11-x86_64_arm-eabi/arm-eabi/libc/usr/lib/libc.a(lib_a-svfprintf.o)
__subdf3                                          /home/vboxuser/topst/buildtools/gcc-linaro-7.2.1-2017.11-x86_64_arm-eabi/arm-eabi/libc/usr/lib/libgcc.a(_arm_addsubdf3.o)
__subsf3                                          /home/vboxuser/topst/buildtools/gcc-linaro-7.2.1-2017.11-x86_64_arm-eabi/arm-eabi/libc/usr/lib/libgcc.a(_arm_addsubsf3.o)
__swrite                                          /home/vboxuser/topst/buildtools/gcc-linaro-7.2.1-2017.11-x86_64_arm-eabi/arm-eabi/libc/usr/lib/libc.a(lib_a-stdio.o)
                                                  /home/vboxuser/topst/buildtools/gcc-linaro-7.2.1-2017.11-x86_64_arm-eabi/arm-eabi/libc/usr/lib/libc.a(lib_a-findfp.o)
__udivmoddi4                                      /home/vboxuser/topst/buildtools/gcc-linaro-7.2.1-2017.11-x86_64_arm-eabi/arm-eabi/libc/usr/lib/libgcc.a(_udivmoddi4.o)
                                                  /home/vboxuser/topst/buildtools/gcc-linaro-7.2.1-2017.11-x86_64_arm-eabi/arm-eabi/libc/usr/lib/libgcc.a(_aeabi_uldivmod.o)
__udivsi3                                         /home/vboxuser/topst/buildtools/gcc-linaro-7.2.1-2017.11-x86_64_arm-eabi/arm-eabi/libc/usr/lib/libgcc.a(_udivsi3.o)
__ulp                                             /home/vboxuser/topst/buildtools/gcc-linaro-7.2.1-2017.11-x86_64_arm-eabi/arm-eabi/libc/usr/lib/libc.a(lib_a-mprec.o)
__unorddf2                                        /home/vboxuser/topst/buildtools/gcc-linaro-7.2.1-2017.11-x86_64_arm-eabi/arm-eabi/libc/usr/lib/libgcc.a(_arm_unorddf2.o)
__utf8_mbtowc                                     /home/vboxuser/topst/buildtools/gcc-linaro-7.2.1-2017.11-x86_64_arm-eabi/arm-eabi/libc/usr/lib/libc.a(lib_a-mbtowc_r.o)
                                                  /home/vboxuser/topst/buildtools/gcc-linaro-7.2.1-2017.11-x86_64_arm-eabi/arm-eabi/libc/usr/lib/libc.a(lib_a-locale.o)
__utf8_wctomb                                     /home/vboxuser/topst/buildtools/gcc-linaro-7.2.1-2017.11-x86_64_arm-eabi/arm-eabi/libc/usr/lib/libc.a(lib_a-wctomb_r.o)
                                                  /home/vboxuser/topst/buildtools/gcc-linaro-7.2.1-2017.11-x86_64_arm-eabi/arm-eabi/libc/usr/lib/libc.a(lib_a-locale.o)
_atoi_r                                           /home/vboxuser/topst/buildtools/gcc-linaro-7.2.1-2017.11-x86_64_arm-eabi/arm-eabi/libc/usr/lib/libc.a(lib_a-atoi.o)
_atol_r                                           /home/vboxuser/topst/buildtools/gcc-linaro-7.2.1-2017.11-x86_64_arm-eabi/arm-eabi/libc/usr/lib/libc.a(lib_a-atol.o)
_calloc_r                                         /home/vboxuser/topst/buildtools/gcc-linaro-7.2.1-2017.11-x86_64_arm-eabi/arm-eabi/libc/usr/lib/libc.a(lib_a-callocr.o)
                                                  /home/vboxuser/topst/buildtools/gcc-linaro-7.2.1-2017.11-x86_64_arm-eabi/arm-eabi/libc/usr/lib/libc.a(lib_a-mprec.o)
_cleanup                                          /home/vboxuser/topst/buildtools/gcc-linaro-7.2.1-2017.11-x86_64_arm-eabi/arm-eabi/libc/usr/lib/libc.a(lib_a-findfp.o)
_cleanup_r                                        /home/vboxuser/topst/buildtools/gcc-linaro-7.2.1-2017.11-x86_64_arm-eabi/arm-eabi/libc/usr/lib/libc.a(lib_a-findfp.o)
_close                                            /home/vboxuser/topst/buildtools/gcc-linaro-7.2.1-2017.11-x86_64_arm-eabi/arm-eabi/libc/usr/lib/libc.a(lib_a-syscalls.o)
                                                  /home/vboxuser/topst/buildtools/gcc-linaro-7.2.1-2017.11-x86_64_arm-eabi/arm-eabi/libc/usr/lib/libc.a(lib_a-closer.o)
_close_r                                          /home/vboxuser/topst/buildtools/gcc-linaro-7.2.1-2017.11-x86_64_arm-eabi/arm-eabi/libc/usr/lib/libc.a(lib_a-closer.o)
                                                  /home/vboxuser/topst/buildtools/gcc-linaro-7.2.1-2017.11-x86_64_arm-eabi/arm-eabi/libc/usr/lib/libc.a(lib_a-stdio.o)
_ctype_                                           /home/vboxuser/topst/buildtools/gcc-linaro-7.2.1-2017.11-x86_64_arm-eabi/arm-eabi/libc/usr/lib/libc.a(lib_a-ctype_.o)
                                                  /home/vboxuser/topst/buildtools/gcc-linaro-7.2.1-2017.11-x86_64_arm-eabi/arm-eabi/libc/usr/lib/libc.a(lib_a-locale.o)
_dtoa_r                                           /home/vboxuser/topst/buildtools/gcc-linaro-7.2.1-2017.11-x86_64_arm-eabi/arm-eabi/libc/usr/lib/libc.a(lib_a-dtoa.o)
                                                  /home/vboxuser/topst/buildtools/gcc-linaro-7.2.1-2017.11-x86_64_arm-eabi/arm-eabi/libc/usr/lib/libc.a(lib_a-svfprintf.o)
_exit                                             /home/vboxuser/topst/buildtools/gcc-linaro-7.2.1-2017.11-x86_64_arm-eabi/arm-eabi/libc/usr/lib/libc.a(lib_a-syscalls.o)
_fclose_r                                         /home/vboxuser/topst/buildtools/gcc-linaro-7.2.1-2017.11-x86_64_arm-eabi/arm-eabi/libc/usr/lib/libc.a(lib_a-fclose.o)
                                                  /home/vboxuser/topst/buildtools/gcc-linaro-7.2.1-2017.11-x86_64_arm-eabi/arm-eabi/libc/usr/lib/libc.a(lib_a-findfp.o)
_fflush_r                                         /home/vboxuser/topst/buildtools/gcc-linaro-7.2.1-2017.11-x86_64_arm-eabi/arm-eabi/libc/usr/lib/libc.a(lib_a-fflush.o)
_findenv_r                                        /home/vboxuser/topst/buildtools/gcc-linaro-7.2.1-2017.11-x86_64_arm-eabi/arm-eabi/libc/usr/lib/libc.a(lib_a-getenv_r.o)
_free_r                                           /home/vboxuser/topst/buildtools/gcc-linaro-7.2.1-2017.11-x86_64_arm-eabi/arm-eabi/libc/usr/lib/libc.a(lib_a-freer.o)
                                                  /home/vboxuser/topst/buildtools/gcc-linaro-7.2.1-2017.11-x86_64_arm-eabi/arm-eabi/libc/usr/lib/libc.a(lib_a-fflush.o)
                                                  /home/vboxuser/topst/buildtools/gcc-linaro-7.2.1-2017.11-x86_64_arm-eabi/arm-eabi/libc/usr/lib/libc.a(lib_a-fclose.o)
                                                  /home/vboxuser/topst/buildtools/gcc-linaro-7.2.1-2017.11-x86_64_arm-eabi/arm-eabi/libc/usr/lib/libc.a(lib_a-reent.o)
                                                  /home/vboxuser/topst/buildtools/gcc-linaro-7.2.1-2017.11-x86_64_arm-eabi/arm-eabi/libc/usr/lib/libc.a(lib_a-reallocr.o)
                                                  /home/vboxuser/topst/buildtools/gcc-linaro-7.2.1-2017.11-x86_64_arm-eabi/arm-eabi/libc/usr/lib/libc.a(lib_a-svfiprintf.o)
                                                  /home/vboxuser/topst/buildtools/gcc-linaro-7.2.1-2017.11-x86_64_arm-eabi/arm-eabi/libc/usr/lib/libc.a(lib_a-mallocr.o)
                                                  /home/vboxuser/topst/buildtools/gcc-linaro-7.2.1-2017.11-x86_64_arm-eabi/arm-eabi/libc/usr/lib/libc.a(lib_a-svfprintf.o)
_fstat                                            /home/vboxuser/topst/buildtools/gcc-linaro-7.2.1-2017.11-x86_64_arm-eabi/arm-eabi/libc/usr/lib/libc.a(lib_a-syscalls.o)
_fwalk                                            /home/vboxuser/topst/buildtools/gcc-linaro-7.2.1-2017.11-x86_64_arm-eabi/arm-eabi/libc/usr/lib/libc.a(lib_a-fwalk.o)
                                                  /home/vboxuser/topst/buildtools/gcc-linaro-7.2.1-2017.11-x86_64_arm-eabi/arm-eabi/libc/usr/lib/libc.a(lib_a-findfp.o)
_fwalk_reent                                      /home/vboxuser/topst/buildtools/gcc-linaro-7.2.1-2017.11-x86_64_arm-eabi/arm-eabi/libc/usr/lib/libc.a(lib_a-fwalk.o)
                                                  /home/vboxuser/topst/buildtools/gcc-linaro-7.2.1-2017.11-x86_64_arm-eabi/arm-eabi/libc/usr/lib/libc.a(lib_a-fflush.o)
                                                  /home/vboxuser/topst/buildtools/gcc-linaro-7.2.1-2017.11-x86_64_arm-eabi/arm-eabi/libc/usr/lib/libc.a(lib_a-findfp.o)
_getenv_r                                         /home/vboxuser/topst/buildtools/gcc-linaro-7.2.1-2017.11-x86_64_arm-eabi/arm-eabi/libc/usr/lib/libc.a(lib_a-getenv_r.o)
                                                  /home/vboxuser/topst/buildtools/gcc-linaro-7.2.1-2017.11-x86_64_arm-eabi/arm-eabi/libc/usr/lib/libc.a(lib_a-locale.o)
_getpid                                           /home/vboxuser/topst/buildtools/gcc-linaro-7.2.1-2017.11-x86_64_arm-eabi/arm-eabi/libc/usr/lib/libc.a(lib_a-syscalls.o)
_gettimeofday                                     /home/vboxuser/topst/buildtools/gcc-linaro-7.2.1-2017.11-x86_64_arm-eabi/arm-eabi/libc/usr/lib/libc.a(lib_a-syscalls.o)
_global_impure_ptr                                /home/vboxuser/topst/buildtools/gcc-linaro-7.2.1-2017.11-x86_64_arm-eabi/arm-eabi/libc/usr/lib/libc.a(lib_a-impure.o)
                                                  /home/vboxuser/topst/buildtools/gcc-linaro-7.2.1-2017.11-x86_64_arm-eabi/arm-eabi/libc/usr/lib/libc.a(lib_a-fflush.o)
                                                  /home/vboxuser/topst/buildtools/gcc-linaro-7.2.1-2017.11-x86_64_arm-eabi/arm-eabi/libc/usr/lib/libc.a(lib_a-findfp.o)
_impure_ptr                                       /home/vboxuser/topst/buildtools/gcc-linaro-7.2.1-2017.11-x86_64_arm-eabi/arm-eabi/libc/usr/lib/libc.a(lib_a-impure.o)
                                                  /home/vboxuser/topst/buildtools/gcc-linaro-7.2.1-2017.11-x86_64_arm-eabi/arm-eabi/libc/usr/lib/libc.a(lib_a-fflush.o)
                                                  /home/vboxuser/topst/buildtools/gcc-linaro-7.2.1-2017.11-x86_64_arm-eabi/arm-eabi/libc/usr/lib/libc.a(lib_a-fclose.o)
                                                  /home/vboxuser/topst/buildtools/gcc-linaro-7.2.1-2017.11-x86_64_arm-eabi/arm-eabi/libc/usr/lib/libc.a(lib_a-reent.o)
                                                  /home/vboxuser/topst/buildtools/gcc-linaro-7.2.1-2017.11-x86_64_arm-eabi/arm-eabi/libc/usr/lib/libc.a(lib_a-findfp.o)
                                                  /home/vboxuser/topst/buildtools/gcc-linaro-7.2.1-2017.11-x86_64_arm-eabi/arm-eabi/libc/usr/lib/libc.a(lib_a-errno.o)
                                                  /home/vboxuser/topst/buildtools/gcc-linaro-7.2.1-2017.11-x86_64_arm-eabi/arm-eabi/libc/usr/lib/libc.a(lib_a-wctomb_r.o)
                                                  /home/vboxuser/topst/buildtools/gcc-linaro-7.2.1-2017.11-x86_64_arm-eabi/arm-eabi/libc/usr/lib/libc.a(lib_a-wcsnrtombs.o)
                                                  /home/vboxuser/topst/buildtools/gcc-linaro-7.2.1-2017.11-x86_64_arm-eabi/arm-eabi/libc/usr/lib/libc.a(lib_a-syscalls.o)
                                                  /home/vboxuser/topst/buildtools/gcc-linaro-7.2.1-2017.11-x86_64_arm-eabi/arm-eabi/libc/usr/lib/libc.a(lib_a-svfiprintf.o)
                                                  /home/vboxuser/topst/buildtools/gcc-linaro-7.2.1-2017.11-x86_64_arm-eabi/arm-eabi/libc/usr/lib/libc.a(lib_a-mbtowc_r.o)
                                                  /home/vboxuser/topst/buildtools/gcc-linaro-7.2.1-2017.11-x86_64_arm-eabi/arm-eabi/libc/usr/lib/libc.a(lib_a-localeconv.o)
                                                  /home/vboxuser/topst/buildtools/gcc-linaro-7.2.1-2017.11-x86_64_arm-eabi/arm-eabi/libc/usr/lib/libc.a(lib_a-locale.o)
                                                  /home/vboxuser/topst/buildtools/gcc-linaro-7.2.1-2017.11-x86_64_arm-eabi/arm-eabi/libc/usr/lib/libc.a(lib_a-wcsrtombs.o)
                                                  /home/vboxuser/topst/buildtools/gcc-linaro-7.2.1-2017.11-x86_64_arm-eabi/arm-eabi/libc/usr/lib/libc.a(lib_a-wcrtomb.o)
                                                  /home/vboxuser/topst/buildtools/gcc-linaro-7.2.1-2017.11-x86_64_arm-eabi/arm-eabi/libc/usr/lib/libc.a(lib_a-svfprintf.o)
                                                  /home/vboxuser/topst/buildtools/gcc-linaro-7.2.1-2017.11-x86_64_arm-eabi/arm-eabi/libc/usr/lib/libc.a(lib_a-strtoul.o)
                                                  /home/vboxuser/topst/buildtools/gcc-linaro-7.2.1-2017.11-x86_64_arm-eabi/arm-eabi/libc/usr/lib/libc.a(lib_a-strtol.o)
                                                  /home/vboxuser/topst/buildtools/gcc-linaro-7.2.1-2017.11-x86_64_arm-eabi/arm-eabi/libc/usr/lib/libc.a(lib_a-snprintf.o)
_isatty                                           /home/vboxuser/topst/buildtools/gcc-linaro-7.2.1-2017.11-x86_64_arm-eabi/arm-eabi/libc/usr/lib/libc.a(lib_a-syscalls.o)
_kill                                             /home/vboxuser/topst/buildtools/gcc-linaro-7.2.1-2017.11-x86_64_arm-eabi/arm-eabi/libc/usr/lib/libc.a(lib_a-syscalls.o)
_link                                             /home/vboxuser/topst/buildtools/gcc-linaro-7.2.1-2017.11-x86_64_arm-eabi/arm-eabi/libc/usr/lib/libc.a(lib_a-syscalls.o)
_localeconv_r                                     /home/vboxuser/topst/buildtools/gcc-linaro-7.2.1-2017.11-x86_64_arm-eabi/arm-eabi/libc/usr/lib/libc.a(lib_a-localeconv.o)
                                                  /home/vboxuser/topst/buildtools/gcc-linaro-7.2.1-2017.11-x86_64_arm-eabi/arm-eabi/libc/usr/lib/libc.a(lib_a-svfiprintf.o)
                                                  /home/vboxuser/topst/buildtools/gcc-linaro-7.2.1-2017.11-x86_64_arm-eabi/arm-eabi/libc/usr/lib/libc.a(lib_a-svfprintf.o)
_lseek                                            /home/vboxuser/topst/buildtools/gcc-linaro-7.2.1-2017.11-x86_64_arm-eabi/arm-eabi/libc/usr/lib/libc.a(lib_a-syscalls.o)
                                                  /home/vboxuser/topst/buildtools/gcc-linaro-7.2.1-2017.11-x86_64_arm-eabi/arm-eabi/libc/usr/lib/libc.a(lib_a-lseekr.o)
_lseek_r                                          /home/vboxuser/topst/buildtools/gcc-linaro-7.2.1-2017.11-x86_64_arm-eabi/arm-eabi/libc/usr/lib/libc.a(lib_a-lseekr.o)
                                                  /home/vboxuser/topst/buildtools/gcc-linaro-7.2.1-2017.11-x86_64_arm-eabi/arm-eabi/libc/usr/lib/libc.a(lib_a-stdio.o)
_malloc_r                                         /home/vboxuser/topst/buildtools/gcc-linaro-7.2.1-2017.11-x86_64_arm-eabi/arm-eabi/libc/usr/lib/libc.a(lib_a-mallocr.o)
                                                  /home/vboxuser/topst/buildtools/gcc-linaro-7.2.1-2017.11-x86_64_arm-eabi/arm-eabi/libc/usr/lib/libc.a(lib_a-reallocr.o)
                                                  /home/vboxuser/topst/buildtools/gcc-linaro-7.2.1-2017.11-x86_64_arm-eabi/arm-eabi/libc/usr/lib/libc.a(lib_a-findfp.o)
                                                  /home/vboxuser/topst/buildtools/gcc-linaro-7.2.1-2017.11-x86_64_arm-eabi/arm-eabi/libc/usr/lib/libc.a(lib_a-callocr.o)
                                                  /home/vboxuser/topst/buildtools/gcc-linaro-7.2.1-2017.11-x86_64_arm-eabi/arm-eabi/libc/usr/lib/libc.a(lib_a-svfiprintf.o)
                                                  /home/vboxuser/topst/buildtools/gcc-linaro-7.2.1-2017.11-x86_64_arm-eabi/arm-eabi/libc/usr/lib/libc.a(lib_a-svfprintf.o)
_malloc_trim_r                                    /home/vboxuser/topst/buildtools/gcc-linaro-7.2.1-2017.11-x86_64_arm-eabi/arm-eabi/libc/usr/lib/libc.a(lib_a-freer.o)
_mbtowc_r                                         /home/vboxuser/topst/buildtools/gcc-linaro-7.2.1-2017.11-x86_64_arm-eabi/arm-eabi/libc/usr/lib/libc.a(lib_a-mbtowc_r.o)
_mprec_log10                                      /home/vboxuser/topst/buildtools/gcc-linaro-7.2.1-2017.11-x86_64_arm-eabi/arm-eabi/libc/usr/lib/libc.a(lib_a-mprec.o)
_open                                             /home/vboxuser/topst/buildtools/gcc-linaro-7.2.1-2017.11-x86_64_arm-eabi/arm-eabi/libc/usr/lib/libc.a(lib_a-syscalls.o)
_raise                                            /home/vboxuser/topst/buildtools/gcc-linaro-7.2.1-2017.11-x86_64_arm-eabi/arm-eabi/libc/usr/lib/libc.a(lib_a-syscalls.o)
_read                                             /home/vboxuser/topst/buildtools/gcc-linaro-7.2.1-2017.11-x86_64_arm-eabi/arm-eabi/libc/usr/lib/libc.a(lib_a-syscalls.o)
                                                  /home/vboxuser/topst/buildtools/gcc-linaro-7.2.1-2017.11-x86_64_arm-eabi/arm-eabi/libc/usr/lib/libc.a(lib_a-readr.o)
_read_r                                           /home/vboxuser/topst/buildtools/gcc-linaro-7.2.1-2017.11-x86_64_arm-eabi/arm-eabi/libc/usr/lib/libc.a(lib_a-readr.o)
                                                  /home/vboxuser/topst/buildtools/gcc-linaro-7.2.1-2017.11-x86_64_arm-eabi/arm-eabi/libc/usr/lib/libc.a(lib_a-stdio.o)
_realloc_r                                        /home/vboxuser/topst/buildtools/gcc-linaro-7.2.1-2017.11-x86_64_arm-eabi/arm-eabi/libc/usr/lib/libc.a(lib_a-reallocr.o)
                                                  /home/vboxuser/topst/buildtools/gcc-linaro-7.2.1-2017.11-x86_64_arm-eabi/arm-eabi/libc/usr/lib/libc.a(lib_a-svfiprintf.o)
_reclaim_reent                                    /home/vboxuser/topst/buildtools/gcc-linaro-7.2.1-2017.11-x86_64_arm-eabi/arm-eabi/libc/usr/lib/libc.a(lib_a-reent.o)
_rename                                           /home/vboxuser/topst/buildtools/gcc-linaro-7.2.1-2017.11-x86_64_arm-eabi/arm-eabi/libc/usr/lib/libc.a(lib_a-syscalls.o)
_sbrk                                             /home/vboxuser/topst/buildtools/gcc-linaro-7.2.1-2017.11-x86_64_arm-eabi/arm-eabi/libc/usr/lib/libc.a(lib_a-syscalls.o)
                                                  /home/vboxuser/topst/buildtools/gcc-linaro-7.2.1-2017.11-x86_64_arm-eabi/arm-eabi/libc/usr/lib/libc.a(lib_a-sbrkr.o)
_sbrk_r                                           /home/vboxuser/topst/buildtools/gcc-linaro-7.2.1-2017.11-x86_64_arm-eabi/arm-eabi/libc/usr/lib/libc.a(lib_a-sbrkr.o)
                                                  /home/vboxuser/topst/buildtools/gcc-linaro-7.2.1-2017.11-x86_64_arm-eabi/arm-eabi/libc/usr/lib/libc.a(lib_a-mallocr.o)
                                                  /home/vboxuser/topst/buildtools/gcc-linaro-7.2.1-2017.11-x86_64_arm-eabi/arm-eabi/libc/usr/lib/libc.a(lib_a-freer.o)
_setlocale_r                                      /home/vboxuser/topst/buildtools/gcc-linaro-7.2.1-2017.11-x86_64_arm-eabi/arm-eabi/libc/usr/lib/libc.a(lib_a-locale.o)
_snprintf_r                                       /home/vboxuser/topst/buildtools/gcc-linaro-7.2.1-2017.11-x86_64_arm-eabi/arm-eabi/libc/usr/lib/libc.a(lib_a-snprintf.o)
_start                                            /home/vboxuser/topst/cr5-bsp/sources/build/tcc805x/gcc/tcc805x-freertos-debug/obj/vector.o
_stat                                             /home/vboxuser/topst/buildtools/gcc-linaro-7.2.1-2017.11-x86_64_arm-eabi/arm-eabi/libc/usr/lib/libc.a(lib_a-syscalls.o)
_strtol_r                                         /home/vboxuser/topst/buildtools/gcc-linaro-7.2.1-2017.11-x86_64_arm-eabi/arm-eabi/libc/usr/lib/libc.a(lib_a-strtol.o)
                                                  /home/vboxuser/topst/buildtools/gcc-linaro-7.2.1-2017.11-x86_64_arm-eabi/arm-eabi/libc/usr/lib/libc.a(lib_a-atol.o)
                                                  /home/vboxuser/topst/buildtools/gcc-linaro-7.2.1-2017.11-x86_64_arm-eabi/arm-eabi/libc/usr/lib/libc.a(lib_a-atoi.o)
_strtoul_r                                        /home/vboxuser/topst/buildtools/gcc-linaro-7.2.1-2017.11-x86_64_arm-eabi/arm-eabi/libc/usr/lib/libc.a(lib_a-strtoul.o)
_svfiprintf_r                                     /home/vboxuser/topst/buildtools/gcc-linaro-7.2.1-2017.11-x86_64_arm-eabi/arm-eabi/libc/usr/lib/libc.a(lib_a-svfiprintf.o)
_svfprintf_r                                      /home/vboxuser/topst/buildtools/gcc-linaro-7.2.1-2017.11-x86_64_arm-eabi/arm-eabi/libc/usr/lib/libc.a(lib_a-svfprintf.o)
                                                  /home/vboxuser/topst/buildtools/gcc-linaro-7.2.1-2017.11-x86_64_arm-eabi/arm-eabi/libc/usr/lib/libc.a(lib_a-snprintf.o)
_swiclose                                         /home/vboxuser/topst/buildtools/gcc-linaro-7.2.1-2017.11-x86_64_arm-eabi/arm-eabi/libc/usr/lib/libc.a(lib_a-syscalls.o)
_swilseek                                         /home/vboxuser/topst/buildtools/gcc-linaro-7.2.1-2017.11-x86_64_arm-eabi/arm-eabi/libc/usr/lib/libc.a(lib_a-syscalls.o)
_swiopen                                          /home/vboxuser/topst/buildtools/gcc-linaro-7.2.1-2017.11-x86_64_arm-eabi/arm-eabi/libc/usr/lib/libc.a(lib_a-syscalls.o)
_swiread                                          /home/vboxuser/topst/buildtools/gcc-linaro-7.2.1-2017.11-x86_64_arm-eabi/arm-eabi/libc/usr/lib/libc.a(lib_a-syscalls.o)
_swiwrite                                         /home/vboxuser/topst/buildtools/gcc-linaro-7.2.1-2017.11-x86_64_arm-eabi/arm-eabi/libc/usr/lib/libc.a(lib_a-syscalls.o)
_system                                           /home/vboxuser/topst/buildtools/gcc-linaro-7.2.1-2017.11-x86_64_arm-eabi/arm-eabi/libc/usr/lib/libc.a(lib_a-syscalls.o)
_times                                            /home/vboxuser/topst/buildtools/gcc-linaro-7.2.1-2017.11-x86_64_arm-eabi/arm-eabi/libc/usr/lib/libc.a(lib_a-syscalls.o)
_unlink                                           /home/vboxuser/topst/buildtools/gcc-linaro-7.2.1-2017.11-x86_64_arm-eabi/arm-eabi/libc/usr/lib/libc.a(lib_a-syscalls.o)
_vector                                           /home/vboxuser/topst/cr5-bsp/sources/build/tcc805x/gcc/tcc805x-freertos-debug/obj/vector.o
_wcrtomb_r                                        /home/vboxuser/topst/buildtools/gcc-linaro-7.2.1-2017.11-x86_64_arm-eabi/arm-eabi/libc/usr/lib/libc.a(lib_a-wcrtomb.o)
                                                  /home/vboxuser/topst/buildtools/gcc-linaro-7.2.1-2017.11-x86_64_arm-eabi/arm-eabi/libc/usr/lib/libc.a(lib_a-svfiprintf.o)
                                                  /home/vboxuser/topst/buildtools/gcc-linaro-7.2.1-2017.11-x86_64_arm-eabi/arm-eabi/libc/usr/lib/libc.a(lib_a-svfprintf.o)
_wcsnrtombs_l                                     /home/vboxuser/topst/buildtools/gcc-linaro-7.2.1-2017.11-x86_64_arm-eabi/arm-eabi/libc/usr/lib/libc.a(lib_a-wcsnrtombs.o)
_wcsnrtombs_r                                     /home/vboxuser/topst/buildtools/gcc-linaro-7.2.1-2017.11-x86_64_arm-eabi/arm-eabi/libc/usr/lib/libc.a(lib_a-wcsnrtombs.o)
                                                  /home/vboxuser/topst/buildtools/gcc-linaro-7.2.1-2017.11-x86_64_arm-eabi/arm-eabi/libc/usr/lib/libc.a(lib_a-wcsrtombs.o)
_wcsrtombs_r                                      /home/vboxuser/topst/buildtools/gcc-linaro-7.2.1-2017.11-x86_64_arm-eabi/arm-eabi/libc/usr/lib/libc.a(lib_a-wcsrtombs.o)
                                                  /home/vboxuser/topst/buildtools/gcc-linaro-7.2.1-2017.11-x86_64_arm-eabi/arm-eabi/libc/usr/lib/libc.a(lib_a-svfiprintf.o)
                                                  /home/vboxuser/topst/buildtools/gcc-linaro-7.2.1-2017.11-x86_64_arm-eabi/arm-eabi/libc/usr/lib/libc.a(lib_a-svfprintf.o)
_wctomb_r                                         /home/vboxuser/topst/buildtools/gcc-linaro-7.2.1-2017.11-x86_64_arm-eabi/arm-eabi/libc/usr/lib/libc.a(lib_a-wctomb_r.o)
_write                                            /home/vboxuser/topst/buildtools/gcc-linaro-7.2.1-2017.11-x86_64_arm-eabi/arm-eabi/libc/usr/lib/libc.a(lib_a-syscalls.o)
                                                  /home/vboxuser/topst/buildtools/gcc-linaro-7.2.1-2017.11-x86_64_arm-eabi/arm-eabi/libc/usr/lib/libc.a(lib_a-writer.o)
_write_r                                          /home/vboxuser/topst/buildtools/gcc-linaro-7.2.1-2017.11-x86_64_arm-eabi/arm-eabi/libc/usr/lib/libc.a(lib_a-writer.o)
                                                  /home/vboxuser/topst/buildtools/gcc-linaro-7.2.1-2017.11-x86_64_arm-eabi/arm-eabi/libc/usr/lib/libc.a(lib_a-stdio.o)
atoi                                              /home/vboxuser/topst/buildtools/gcc-linaro-7.2.1-2017.11-x86_64_arm-eabi/arm-eabi/libc/usr/lib/libc.a(lib_a-atoi.o)
                                                  /home/vboxuser/topst/cr5-bsp/sources/build/tcc805x/gcc/tcc805x-freertos-debug/obj/hap.o
                                                  /home/vboxuser/topst/cr5-bsp/sources/build/tcc805x/gcc/tcc805x-freertos-debug/obj/console.o
atol                                              /home/vboxuser/topst/buildtools/gcc-linaro-7.2.1-2017.11-x86_64_arm-eabi/arm-eabi/libc/usr/lib/libc.a(lib_a-atol.o)
                                                  /home/vboxuser/topst/cr5-bsp/sources/build/tcc805x/gcc/tcc805x-freertos-debug/obj/hsm_test.o
calculate_distance                                /home/vboxuser/topst/cr5-bsp/sources/build/tcc805x/gcc/tcc805x-freertos-debug/obj/hap.o
cbFunc                                            /home/vboxuser/topst/cr5-bsp/sources/build/tcc805x/gcc/tcc805x-freertos-debug/obj/ipc_api.o
                                                  /home/vboxuser/topst/cr5-bsp/sources/build/tcc805x/gcc/tcc805x-freertos-debug/obj/ipc.o
                                                  /home/vboxuser/topst/cr5-bsp/sources/build/tcc805x/gcc/tcc805x-freertos-debug/obj/ipc_parser.o
cleanup_glue                                      /home/vboxuser/topst/buildtools/gcc-linaro-7.2.1-2017.11-x86_64_arm-eabi/arm-eabi/libc/usr/lib/libc.a(lib_a-reent.o)
cmain                                             /home/vboxuser/topst/cr5-bsp/sources/build/tcc805x/gcc/tcc805x-freertos-debug/obj/main.o
                                                  /home/vboxuser/topst/cr5-bsp/sources/build/tcc805x/gcc/tcc805x-freertos-debug/obj/startup.o
dbgTags                                           /home/vboxuser/topst/cr5-bsp/sources/build/tcc805x/gcc/tcc805x-freertos-debug/obj/debug.o
                                                  /home/vboxuser/topst/cr5-bsp/sources/build/tcc805x/gcc/tcc805x-freertos-debug/obj/sal_freertos_impl.o
                                                  /home/vboxuser/topst/cr5-bsp/sources/build/tcc805x/gcc/tcc805x-freertos-debug/obj/dse.o
                                                  /home/vboxuser/topst/cr5-bsp/sources/build/tcc805x/gcc/tcc805x-freertos-debug/obj/wdt.o
                                                  /home/vboxuser/topst/cr5-bsp/sources/build/tcc805x/gcc/tcc805x-freertos-debug/obj/uart.o
                                                  /home/vboxuser/topst/cr5-bsp/sources/build/tcc805x/gcc/tcc805x-freertos-debug/obj/timer.o
                                                  /home/vboxuser/topst/cr5-bsp/sources/build/tcc805x/gcc/tcc805x-freertos-debug/obj/gpsb.o
                                                  /home/vboxuser/topst/cr5-bsp/sources/build/tcc805x/gcc/tcc805x-freertos-debug/obj/pdm.o
                                                  /home/vboxuser/topst/cr5-bsp/sources/build/tcc805x/gcc/tcc805x-freertos-debug/obj/mbox.o
                                                  /home/vboxuser/topst/cr5-bsp/sources/build/tcc805x/gcc/tcc805x-freertos-debug/obj/mbox_dev.o
                                                  /home/vboxuser/topst/cr5-bsp/sources/build/tcc805x/gcc/tcc805x-freertos-debug/obj/ictc.o
                                                  /home/vboxuser/topst/cr5-bsp/sources/build/tcc805x/gcc/tcc805x-freertos-debug/obj/i2c.o
                                                  /home/vboxuser/topst/cr5-bsp/sources/build/tcc805x/gcc/tcc805x-freertos-debug/obj/gpio.o
                                                  /home/vboxuser/topst/cr5-bsp/sources/build/tcc805x/gcc/tcc805x-freertos-debug/obj/gdma.o
                                                  /home/vboxuser/topst/cr5-bsp/sources/build/tcc805x/gcc/tcc805x-freertos-debug/obj/fmu.o
                                                  /home/vboxuser/topst/cr5-bsp/sources/build/tcc805x/gcc/tcc805x-freertos-debug/obj/can_drv.o
                                                  /home/vboxuser/topst/cr5-bsp/sources/build/tcc805x/gcc/tcc805x-freertos-debug/obj/can.o
                                                  /home/vboxuser/topst/cr5-bsp/sources/build/tcc805x/gcc/tcc805x-freertos-debug/obj/adc.o
                                                  /home/vboxuser/topst/cr5-bsp/sources/build/tcc805x/gcc/tcc805x-freertos-debug/obj/sdm.o
                                                  /home/vboxuser/topst/cr5-bsp/sources/build/tcc805x/gcc/tcc805x-freertos-debug/obj/lin.o
                                                  /home/vboxuser/topst/cr5-bsp/sources/build/tcc805x/gcc/tcc805x-freertos-debug/obj/ipc_api.o
                                                  /home/vboxuser/topst/cr5-bsp/sources/build/tcc805x/gcc/tcc805x-freertos-debug/obj/ipc_ctl.o
                                                  /home/vboxuser/topst/cr5-bsp/sources/build/tcc805x/gcc/tcc805x-freertos-debug/obj/ipc_buffer.o
                                                  /home/vboxuser/topst/cr5-bsp/sources/build/tcc805x/gcc/tcc805x-freertos-debug/obj/mptool.o
                                                  /home/vboxuser/topst/cr5-bsp/sources/build/tcc805x/gcc/tcc805x-freertos-debug/obj/gdma_test.o
                                                  /home/vboxuser/topst/cr5-bsp/sources/build/tcc805x/gcc/tcc805x-freertos-debug/obj/key_i2c.o
                                                  /home/vboxuser/topst/cr5-bsp/sources/build/tcc805x/gcc/tcc805x-freertos-debug/obj/fwug.o
                                                  /home/vboxuser/topst/cr5-bsp/sources/build/tcc805x/gcc/tcc805x-freertos-debug/obj/console.o
                                                  /home/vboxuser/topst/cr5-bsp/sources/build/tcc805x/gcc/tcc805x-freertos-debug/obj/can_demo.o
delay_complete                                    /home/vboxuser/topst/cr5-bsp/sources/build/tcc805x/gcc/tcc805x-freertos-debug/obj/timer_test.o
delay_completed                                   /home/vboxuser/topst/cr5-bsp/sources/build/tcc805x/gcc/tcc805x-freertos-debug/obj/timer.o
delay_us2                                         /home/vboxuser/topst/cr5-bsp/sources/build/tcc805x/gcc/tcc805x-freertos-debug/obj/timer.o
delay_us3                                         /home/vboxuser/topst/cr5-bsp/sources/build/tcc805x/gcc/tcc805x-freertos-debug/obj/timer_test.o
                                                  /home/vboxuser/topst/cr5-bsp/sources/build/tcc805x/gcc/tcc805x-freertos-debug/obj/hap.o
dev                                               /home/vboxuser/topst/cr5-bsp/sources/build/tcc805x/gcc/tcc805x-freertos-debug/obj/ipc_ctl.o
                                                  /home/vboxuser/topst/cr5-bsp/sources/build/tcc805x/gcc/tcc805x-freertos-debug/obj/ipc_cmd.o
eTaskGetState                                     /home/vboxuser/topst/cr5-bsp/sources/build/tcc805x/gcc/tcc805x-freertos-debug/obj/tasks.o
end                                               /home/vboxuser/topst/buildtools/gcc-linaro-7.2.1-2017.11-x86_64_arm-eabi/arm-eabi/libc/usr/lib/libc.a(lib_a-syscalls.o)
environ                                           /home/vboxuser/topst/buildtools/gcc-linaro-7.2.1-2017.11-x86_64_arm-eabi/arm-eabi/libc/usr/lib/libc.a(lib_a-environ.o)
                                                  /home/vboxuser/topst/buildtools/gcc-linaro-7.2.1-2017.11-x86_64_arm-eabi/arm-eabi/libc/usr/lib/libc.a(lib_a-getenv_r.o)
errno                                             /home/vboxuser/topst/buildtools/gcc-linaro-7.2.1-2017.11-x86_64_arm-eabi/arm-eabi/libc/usr/lib/libc.a(lib_a-reent.o)
                                                  /home/vboxuser/topst/buildtools/gcc-linaro-7.2.1-2017.11-x86_64_arm-eabi/arm-eabi/libc/usr/lib/libc.a(lib_a-readr.o)
                                                  /home/vboxuser/topst/buildtools/gcc-linaro-7.2.1-2017.11-x86_64_arm-eabi/arm-eabi/libc/usr/lib/libc.a(lib_a-lseekr.o)
                                                  /home/vboxuser/topst/buildtools/gcc-linaro-7.2.1-2017.11-x86_64_arm-eabi/arm-eabi/libc/usr/lib/libc.a(lib_a-closer.o)
                                                  /home/vboxuser/topst/buildtools/gcc-linaro-7.2.1-2017.11-x86_64_arm-eabi/arm-eabi/libc/usr/lib/libc.a(lib_a-writer.o)
                                                  /home/vboxuser/topst/buildtools/gcc-linaro-7.2.1-2017.11-x86_64_arm-eabi/arm-eabi/libc/usr/lib/libc.a(lib_a-sbrkr.o)
fclose                                            /home/vboxuser/topst/buildtools/gcc-linaro-7.2.1-2017.11-x86_64_arm-eabi/arm-eabi/libc/usr/lib/libc.a(lib_a-fclose.o)
fflush                                            /home/vboxuser/topst/buildtools/gcc-linaro-7.2.1-2017.11-x86_64_arm-eabi/arm-eabi/libc/usr/lib/libc.a(lib_a-fflush.o)
frexp                                             /home/vboxuser/topst/buildtools/gcc-linaro-7.2.1-2017.11-x86_64_arm-eabi/arm-eabi/libc/usr/lib/libc.a(lib_a-s_frexp.o)
                                                  /home/vboxuser/topst/buildtools/gcc-linaro-7.2.1-2017.11-x86_64_arm-eabi/arm-eabi/libc/usr/lib/libc.a(lib_a-svfprintf.o)
gALiveMsgOnOff                                    /home/vboxuser/topst/cr5-bsp/sources/build/tcc805x/gcc/tcc805x-freertos-debug/obj/main.o
                                                  /home/vboxuser/topst/cr5-bsp/sources/build/tcc805x/gcc/tcc805x-freertos-debug/obj/console.o
gDebugOption                                      /home/vboxuser/topst/cr5-bsp/sources/build/tcc805x/gcc/tcc805x-freertos-debug/obj/debug.o
                                                  /home/vboxuser/topst/cr5-bsp/sources/build/tcc805x/gcc/tcc805x-freertos-debug/obj/sal_freertos_impl.o
                                                  /home/vboxuser/topst/cr5-bsp/sources/build/tcc805x/gcc/tcc805x-freertos-debug/obj/dse.o
                                                  /home/vboxuser/topst/cr5-bsp/sources/build/tcc805x/gcc/tcc805x-freertos-debug/obj/wdt.o
                                                  /home/vboxuser/topst/cr5-bsp/sources/build/tcc805x/gcc/tcc805x-freertos-debug/obj/uart.o
                                                  /home/vboxuser/topst/cr5-bsp/sources/build/tcc805x/gcc/tcc805x-freertos-debug/obj/timer.o
                                                  /home/vboxuser/topst/cr5-bsp/sources/build/tcc805x/gcc/tcc805x-freertos-debug/obj/gpsb.o
                                                  /home/vboxuser/topst/cr5-bsp/sources/build/tcc805x/gcc/tcc805x-freertos-debug/obj/pdm.o
                                                  /home/vboxuser/topst/cr5-bsp/sources/build/tcc805x/gcc/tcc805x-freertos-debug/obj/mbox.o
                                                  /home/vboxuser/topst/cr5-bsp/sources/build/tcc805x/gcc/tcc805x-freertos-debug/obj/mbox_dev.o
                                                  /home/vboxuser/topst/cr5-bsp/sources/build/tcc805x/gcc/tcc805x-freertos-debug/obj/ictc.o
                                                  /home/vboxuser/topst/cr5-bsp/sources/build/tcc805x/gcc/tcc805x-freertos-debug/obj/i2c.o
                                                  /home/vboxuser/topst/cr5-bsp/sources/build/tcc805x/gcc/tcc805x-freertos-debug/obj/gpio.o
                                                  /home/vboxuser/topst/cr5-bsp/sources/build/tcc805x/gcc/tcc805x-freertos-debug/obj/gdma.o
                                                  /home/vboxuser/topst/cr5-bsp/sources/build/tcc805x/gcc/tcc805x-freertos-debug/obj/fmu.o
                                                  /home/vboxuser/topst/cr5-bsp/sources/build/tcc805x/gcc/tcc805x-freertos-debug/obj/can_drv.o
                                                  /home/vboxuser/topst/cr5-bsp/sources/build/tcc805x/gcc/tcc805x-freertos-debug/obj/can.o
                                                  /home/vboxuser/topst/cr5-bsp/sources/build/tcc805x/gcc/tcc805x-freertos-debug/obj/adc.o
                                                  /home/vboxuser/topst/cr5-bsp/sources/build/tcc805x/gcc/tcc805x-freertos-debug/obj/sdm.o
                                                  /home/vboxuser/topst/cr5-bsp/sources/build/tcc805x/gcc/tcc805x-freertos-debug/obj/lin.o
                                                  /home/vboxuser/topst/cr5-bsp/sources/build/tcc805x/gcc/tcc805x-freertos-debug/obj/ipc_api.o
                                                  /home/vboxuser/topst/cr5-bsp/sources/build/tcc805x/gcc/tcc805x-freertos-debug/obj/ipc_ctl.o
                                                  /home/vboxuser/topst/cr5-bsp/sources/build/tcc805x/gcc/tcc805x-freertos-debug/obj/ipc_buffer.o
                                                  /home/vboxuser/topst/cr5-bsp/sources/build/tcc805x/gcc/tcc805x-freertos-debug/obj/mptool.o
                                                  /home/vboxuser/topst/cr5-bsp/sources/build/tcc805x/gcc/tcc805x-freertos-debug/obj/gdma_test.o
                                                  /home/vboxuser/topst/cr5-bsp/sources/build/tcc805x/gcc/tcc805x-freertos-debug/obj/key_i2c.o
                                                  /home/vboxuser/topst/cr5-bsp/sources/build/tcc805x/gcc/tcc805x-freertos-debug/obj/fwug.o
                                                  /home/vboxuser/topst/cr5-bsp/sources/build/tcc805x/gcc/tcc805x-freertos-debug/obj/console.o
                                                  /home/vboxuser/topst/cr5-bsp/sources/build/tcc805x/gcc/tcc805x-freertos-debug/obj/can_demo.o
gIPCHandler                                       /home/vboxuser/topst/cr5-bsp/sources/build/tcc805x/gcc/tcc805x-freertos-debug/obj/ipc_ctl.o
                                                  /home/vboxuser/topst/cr5-bsp/sources/build/tcc805x/gcc/tcc805x-freertos-debug/obj/ipc_api.o
gSALCoreTable                                     /home/vboxuser/topst/cr5-bsp/sources/build/tcc805x/gcc/tcc805x-freertos-debug/obj/sal_api.o
                                                  /home/vboxuser/topst/cr5-bsp/sources/build/tcc805x/gcc/tcc805x-freertos-debug/obj/port.o
                                                  /home/vboxuser/topst/cr5-bsp/sources/build/tcc805x/gcc/tcc805x-freertos-debug/obj/gpsb.o
                                                  /home/vboxuser/topst/cr5-bsp/sources/build/tcc805x/gcc/tcc805x-freertos-debug/obj/i2c.o
                                                  /home/vboxuser/topst/cr5-bsp/sources/build/tcc805x/gcc/tcc805x-freertos-debug/obj/gic.o
                                                  /home/vboxuser/topst/cr5-bsp/sources/build/tcc805x/gcc/tcc805x-freertos-debug/obj/bsp.o
                                                  /home/vboxuser/topst/cr5-bsp/sources/build/tcc805x/gcc/tcc805x-freertos-debug/obj/clock_dev.o
                                                  /home/vboxuser/topst/cr5-bsp/sources/build/tcc805x/gcc/tcc805x-freertos-debug/obj/ipc_api.o
                                                  /home/vboxuser/topst/cr5-bsp/sources/build/tcc805x/gcc/tcc805x-freertos-debug/obj/fwug.o
gSALDataStructTable                               /home/vboxuser/topst/cr5-bsp/sources/build/tcc805x/gcc/tcc805x-freertos-debug/obj/sal_api.o
                                                  /home/vboxuser/topst/cr5-bsp/sources/build/tcc805x/gcc/tcc805x-freertos-debug/obj/pmu_reset.o
                                                  /home/vboxuser/topst/cr5-bsp/sources/build/tcc805x/gcc/tcc805x-freertos-debug/obj/ipc_ctl.o
gSALEtcTable                                      /home/vboxuser/topst/cr5-bsp/sources/build/tcc805x/gcc/tcc805x-freertos-debug/obj/sal_api.o
                                                  /home/vboxuser/topst/cr5-bsp/sources/build/tcc805x/gcc/tcc805x-freertos-debug/obj/timer.o
                                                  /home/vboxuser/topst/cr5-bsp/sources/build/tcc805x/gcc/tcc805x-freertos-debug/obj/ipc_os.o
                                                  /home/vboxuser/topst/cr5-bsp/sources/build/tcc805x/gcc/tcc805x-freertos-debug/obj/timer_test.o
                                                  /home/vboxuser/topst/cr5-bsp/sources/build/tcc805x/gcc/tcc805x-freertos-debug/obj/system_monitoring.o
                                                  /home/vboxuser/topst/cr5-bsp/sources/build/tcc805x/gcc/tcc805x-freertos-debug/obj/main.o
gSALFileTable                                     /home/vboxuser/topst/cr5-bsp/sources/build/tcc805x/gcc/tcc805x-freertos-debug/obj/sal_api.o
gSALMemoryTable                                   /home/vboxuser/topst/cr5-bsp/sources/build/tcc805x/gcc/tcc805x-freertos-debug/obj/sal_api.o
                                                  /home/vboxuser/topst/cr5-bsp/sources/build/tcc805x/gcc/tcc805x-freertos-debug/obj/uart.o
                                                  /home/vboxuser/topst/cr5-bsp/sources/build/tcc805x/gcc/tcc805x-freertos-debug/obj/gpsb.o
                                                  /home/vboxuser/topst/cr5-bsp/sources/build/tcc805x/gcc/tcc805x-freertos-debug/obj/pdm.o
                                                  /home/vboxuser/topst/cr5-bsp/sources/build/tcc805x/gcc/tcc805x-freertos-debug/obj/i2c.o
                                                  /home/vboxuser/topst/cr5-bsp/sources/build/tcc805x/gcc/tcc805x-freertos-debug/obj/clock_dev.o
                                                  /home/vboxuser/topst/cr5-bsp/sources/build/tcc805x/gcc/tcc805x-freertos-debug/obj/can_msg.o
                                                  /home/vboxuser/topst/cr5-bsp/sources/build/tcc805x/gcc/tcc805x-freertos-debug/obj/can_drv.o
                                                  /home/vboxuser/topst/cr5-bsp/sources/build/tcc805x/gcc/tcc805x-freertos-debug/obj/hsm_manager.o
                                                  /home/vboxuser/topst/cr5-bsp/sources/build/tcc805x/gcc/tcc805x-freertos-debug/obj/sdm.o
                                                  /home/vboxuser/topst/cr5-bsp/sources/build/tcc805x/gcc/tcc805x-freertos-debug/obj/lin.o
                                                  /home/vboxuser/topst/cr5-bsp/sources/build/tcc805x/gcc/tcc805x-freertos-debug/obj/ipc_ctl.o
                                                  /home/vboxuser/topst/cr5-bsp/sources/build/tcc805x/gcc/tcc805x-freertos-debug/obj/ipc_cmd.o
                                                  /home/vboxuser/topst/cr5-bsp/sources/build/tcc805x/gcc/tcc805x-freertos-debug/obj/ipc_buffer.o
                                                  /home/vboxuser/topst/cr5-bsp/sources/build/tcc805x/gcc/tcc805x-freertos-debug/obj/pmio_test.o
                                                  /home/vboxuser/topst/cr5-bsp/sources/build/tcc805x/gcc/tcc805x-freertos-debug/obj/lin_test.o
                                                  /home/vboxuser/topst/cr5-bsp/sources/build/tcc805x/gcc/tcc805x-freertos-debug/obj/hsm_test.o
                                                  /home/vboxuser/topst/cr5-bsp/sources/build/tcc805x/gcc/tcc805x-freertos-debug/obj/gpsb_test.o
                                                  /home/vboxuser/topst/cr5-bsp/sources/build/tcc805x/gcc/tcc805x-freertos-debug/obj/reset_demo.o
                                                  /home/vboxuser/topst/cr5-bsp/sources/build/tcc805x/gcc/tcc805x-freertos-debug/obj/bootctrl.o
                                                  /home/vboxuser/topst/cr5-bsp/sources/build/tcc805x/gcc/tcc805x-freertos-debug/obj/system_monitoring.o
                                                  /home/vboxuser/topst/cr5-bsp/sources/build/tcc805x/gcc/tcc805x-freertos-debug/obj/key_adc.o
                                                  /home/vboxuser/topst/cr5-bsp/sources/build/tcc805x/gcc/tcc805x-freertos-debug/obj/fwug.o
                                                  /home/vboxuser/topst/cr5-bsp/sources/build/tcc805x/gcc/tcc805x-freertos-debug/obj/console.o
                                                  /home/vboxuser/topst/cr5-bsp/sources/build/tcc805x/gcc/tcc805x-freertos-debug/obj/can_demo.o
gSALOSRunTable                                    /home/vboxuser/topst/cr5-bsp/sources/build/tcc805x/gcc/tcc805x-freertos-debug/obj/sal_api.o
                                                  /home/vboxuser/topst/cr5-bsp/sources/build/tcc805x/gcc/tcc805x-freertos-debug/obj/main.o
gSALSocketTable                                   /home/vboxuser/topst/cr5-bsp/sources/build/tcc805x/gcc/tcc805x-freertos-debug/obj/sal_api.o
gSALSyncObjectTable                               /home/vboxuser/topst/cr5-bsp/sources/build/tcc805x/gcc/tcc805x-freertos-debug/obj/sal_api.o
                                                  /home/vboxuser/topst/cr5-bsp/sources/build/tcc805x/gcc/tcc805x-freertos-debug/obj/pmio_dev.o
                                                  /home/vboxuser/topst/cr5-bsp/sources/build/tcc805x/gcc/tcc805x-freertos-debug/obj/mbox.o
                                                  /home/vboxuser/topst/cr5-bsp/sources/build/tcc805x/gcc/tcc805x-freertos-debug/obj/gdma.o
                                                  /home/vboxuser/topst/cr5-bsp/sources/build/tcc805x/gcc/tcc805x-freertos-debug/obj/ipc_os.o
gSALTaskTable                                     /home/vboxuser/topst/cr5-bsp/sources/build/tcc805x/gcc/tcc805x-freertos-debug/obj/sal_api.o
                                                  /home/vboxuser/topst/cr5-bsp/sources/build/tcc805x/gcc/tcc805x-freertos-debug/obj/pmu_reset.o
                                                  /home/vboxuser/topst/cr5-bsp/sources/build/tcc805x/gcc/tcc805x-freertos-debug/obj/pmio_dev.o
                                                  /home/vboxuser/topst/cr5-bsp/sources/build/tcc805x/gcc/tcc805x-freertos-debug/obj/lin.o
                                                  /home/vboxuser/topst/cr5-bsp/sources/build/tcc805x/gcc/tcc805x-freertos-debug/obj/ipc_parser.o
                                                  /home/vboxuser/topst/cr5-bsp/sources/build/tcc805x/gcc/tcc805x-freertos-debug/obj/ipc_ctl.o
                                                  /home/vboxuser/topst/cr5-bsp/sources/build/tcc805x/gcc/tcc805x-freertos-debug/obj/ipc_os.o
                                                  /home/vboxuser/topst/cr5-bsp/sources/build/tcc805x/gcc/tcc805x-freertos-debug/obj/mptool.o
                                                  /home/vboxuser/topst/cr5-bsp/sources/build/tcc805x/gcc/tcc805x-freertos-debug/obj/hap.o
                                                  /home/vboxuser/topst/cr5-bsp/sources/build/tcc805x/gcc/tcc805x-freertos-debug/obj/pwm_test.o
                                                  /home/vboxuser/topst/cr5-bsp/sources/build/tcc805x/gcc/tcc805x-freertos-debug/obj/pdm_test.o
                                                  /home/vboxuser/topst/cr5-bsp/sources/build/tcc805x/gcc/tcc805x-freertos-debug/obj/ictc_test.o
                                                  /home/vboxuser/topst/cr5-bsp/sources/build/tcc805x/gcc/tcc805x-freertos-debug/obj/adc_test.o
                                                  /home/vboxuser/topst/cr5-bsp/sources/build/tcc805x/gcc/tcc805x-freertos-debug/obj/bootctrl.o
                                                  /home/vboxuser/topst/cr5-bsp/sources/build/tcc805x/gcc/tcc805x-freertos-debug/obj/system_monitoring.o
                                                  /home/vboxuser/topst/cr5-bsp/sources/build/tcc805x/gcc/tcc805x-freertos-debug/obj/fwug.o
                                                  /home/vboxuser/topst/cr5-bsp/sources/build/tcc805x/gcc/tcc805x-freertos-debug/obj/console.o
                                                  /home/vboxuser/topst/cr5-bsp/sources/build/tcc805x/gcc/tcc805x-freertos-debug/obj/can_demo.o
                                                  /home/vboxuser/topst/cr5-bsp/sources/build/tcc805x/gcc/tcc805x-freertos-debug/obj/main.o
gSALTraceTable                                    /home/vboxuser/topst/cr5-bsp/sources/build/tcc805x/gcc/tcc805x-freertos-debug/obj/sal_api.o
                                                  /home/vboxuser/topst/cr5-bsp/sources/build/tcc805x/gcc/tcc805x-freertos-debug/obj/wdt.o
                                                  /home/vboxuser/topst/cr5-bsp/sources/build/tcc805x/gcc/tcc805x-freertos-debug/obj/udma.o
                                                  /home/vboxuser/topst/cr5-bsp/sources/build/tcc805x/gcc/tcc805x-freertos-debug/obj/uart.o
                                                  /home/vboxuser/topst/cr5-bsp/sources/build/tcc805x/gcc/tcc805x-freertos-debug/obj/timer.o
                                                  /home/vboxuser/topst/cr5-bsp/sources/build/tcc805x/gcc/tcc805x-freertos-debug/obj/timer_test.o
gWait_irq                                         /home/vboxuser/topst/cr5-bsp/sources/build/tcc805x/gcc/tcc805x-freertos-debug/obj/dse.o
                                                  /home/vboxuser/topst/cr5-bsp/sources/build/tcc805x/gcc/tcc805x-freertos-debug/obj/dse_test.o
gpsb                                              /home/vboxuser/topst/cr5-bsp/sources/build/tcc805x/gcc/tcc805x-freertos-debug/obj/gpsb_reg.o
                                                  /home/vboxuser/topst/cr5-bsp/sources/build/tcc805x/gcc/tcc805x-freertos-debug/obj/gpsb.o
gpsb_sm                                           /home/vboxuser/topst/cr5-bsp/sources/build/tcc805x/gcc/tcc805x-freertos-debug/obj/gpsb_reg.o
                                                  /home/vboxuser/topst/cr5-bsp/sources/build/tcc805x/gcc/tcc805x-freertos-debug/obj/gpsb.o
gpsbport                                          /home/vboxuser/topst/cr5-bsp/sources/build/tcc805x/gcc/tcc805x-freertos-debug/obj/gpsb_reg.o
                                                  /home/vboxuser/topst/cr5-bsp/sources/build/tcc805x/gcc/tcc805x-freertos-debug/obj/gpsb.o
heap_init                                         /home/vboxuser/topst/cr5-bsp/sources/build/tcc805x/gcc/tcc805x-freertos-debug/obj/port.o
                                                  /home/vboxuser/topst/cr5-bsp/sources/build/tcc805x/gcc/tcc805x-freertos-debug/obj/sal_freertos_impl.o
i2c                                               /home/vboxuser/topst/cr5-bsp/sources/build/tcc805x/gcc/tcc805x-freertos-debug/obj/i2c_reg.o
                                                  /home/vboxuser/topst/cr5-bsp/sources/build/tcc805x/gcc/tcc805x-freertos-debug/obj/i2c.o
                                                  /home/vboxuser/topst/cr5-bsp/sources/build/tcc805x/gcc/tcc805x-freertos-debug/obj/i2c_test.o
i2cport                                           /home/vboxuser/topst/cr5-bsp/sources/build/tcc805x/gcc/tcc805x-freertos-debug/obj/i2c_reg.o
                                                  /home/vboxuser/topst/cr5-bsp/sources/build/tcc805x/gcc/tcc805x-freertos-debug/obj/i2c.o
initialise_monitor_handles                        /home/vboxuser/topst/buildtools/gcc-linaro-7.2.1-2017.11-x86_64_arm-eabi/arm-eabi/libc/usr/lib/libc.a(lib_a-syscalls.o)
localeconv                                        /home/vboxuser/topst/buildtools/gcc-linaro-7.2.1-2017.11-x86_64_arm-eabi/arm-eabi/libc/usr/lib/libc.a(lib_a-localeconv.o)
mboxInfo                                          /home/vboxuser/topst/cr5-bsp/sources/build/tcc805x/gcc/tcc805x-freertos-debug/obj/mbox_phy.o
                                                  /home/vboxuser/topst/cr5-bsp/sources/build/tcc805x/gcc/tcc805x-freertos-debug/obj/mbox_dev.o
memchr                                            /home/vboxuser/topst/buildtools/gcc-linaro-7.2.1-2017.11-x86_64_arm-eabi/arm-eabi/libc/usr/lib/libc.a(lib_a-memchr-stub.o)
                                                  /home/vboxuser/topst/buildtools/gcc-linaro-7.2.1-2017.11-x86_64_arm-eabi/arm-eabi/libc/usr/lib/libc.a(lib_a-svfiprintf.o)
                                                  /home/vboxuser/topst/buildtools/gcc-linaro-7.2.1-2017.11-x86_64_arm-eabi/arm-eabi/libc/usr/lib/libc.a(lib_a-svfprintf.o)
memcmp                                            /home/vboxuser/topst/buildtools/gcc-linaro-7.2.1-2017.11-x86_64_arm-eabi/arm-eabi/libc/usr/lib/libc.a(lib_a-memcmp.o)
                                                  /home/vboxuser/topst/cr5-bsp/sources/build/tcc805x/gcc/tcc805x-freertos-debug/obj/sal_freertos_impl.o
memcpy                                            /home/vboxuser/topst/buildtools/gcc-linaro-7.2.1-2017.11-x86_64_arm-eabi/arm-eabi/libc/usr/lib/libc.a(lib_a-memcpy-stub.o)
                                                  /home/vboxuser/topst/buildtools/gcc-linaro-7.2.1-2017.11-x86_64_arm-eabi/arm-eabi/libc/usr/lib/libc.a(lib_a-svfiprintf.o)
                                                  /home/vboxuser/topst/buildtools/gcc-linaro-7.2.1-2017.11-x86_64_arm-eabi/arm-eabi/libc/usr/lib/libc.a(lib_a-mprec.o)
                                                  /home/vboxuser/topst/buildtools/gcc-linaro-7.2.1-2017.11-x86_64_arm-eabi/arm-eabi/libc/usr/lib/libc.a(lib_a-dtoa.o)
                                                  /home/vboxuser/topst/cr5-bsp/sources/build/tcc805x/gcc/tcc805x-freertos-debug/obj/sal_freertos_impl.o
                                                  /home/vboxuser/topst/cr5-bsp/sources/build/tcc805x/gcc/tcc805x-freertos-debug/obj/stream_buffer.o
                                                  /home/vboxuser/topst/cr5-bsp/sources/build/tcc805x/gcc/tcc805x-freertos-debug/obj/queue.o
                                                  /home/vboxuser/topst/cr5-bsp/sources/build/tcc805x/gcc/tcc805x-freertos-debug/obj/dse_test.o
memmove                                           /home/vboxuser/topst/buildtools/gcc-linaro-7.2.1-2017.11-x86_64_arm-eabi/arm-eabi/libc/usr/lib/libc.a(lib_a-memmove.o)
                                                  /home/vboxuser/topst/buildtools/gcc-linaro-7.2.1-2017.11-x86_64_arm-eabi/arm-eabi/libc/usr/lib/libc.a(lib_a-reallocr.o)
                                                  /home/vboxuser/topst/buildtools/gcc-linaro-7.2.1-2017.11-x86_64_arm-eabi/arm-eabi/libc/usr/lib/libc.a(lib_a-svfiprintf.o)
memset                                            /home/vboxuser/topst/buildtools/gcc-linaro-7.2.1-2017.11-x86_64_arm-eabi/arm-eabi/libc/usr/lib/libc.a(lib_a-memset.o)
                                                  /home/vboxuser/topst/buildtools/gcc-linaro-7.2.1-2017.11-x86_64_arm-eabi/arm-eabi/libc/usr/lib/libc.a(lib_a-findfp.o)
                                                  /home/vboxuser/topst/buildtools/gcc-linaro-7.2.1-2017.11-x86_64_arm-eabi/arm-eabi/libc/usr/lib/libc.a(lib_a-callocr.o)
                                                  /home/vboxuser/topst/buildtools/gcc-linaro-7.2.1-2017.11-x86_64_arm-eabi/arm-eabi/libc/usr/lib/libc.a(lib_a-syscalls.o)
                                                  /home/vboxuser/topst/buildtools/gcc-linaro-7.2.1-2017.11-x86_64_arm-eabi/arm-eabi/libc/usr/lib/libc.a(lib_a-svfiprintf.o)
                                                  /home/vboxuser/topst/buildtools/gcc-linaro-7.2.1-2017.11-x86_64_arm-eabi/arm-eabi/libc/usr/lib/libc.a(lib_a-svfprintf.o)
                                                  /home/vboxuser/topst/cr5-bsp/sources/build/tcc805x/gcc/tcc805x-freertos-debug/obj/sal_freertos_impl.o
                                                  /home/vboxuser/topst/cr5-bsp/sources/build/tcc805x/gcc/tcc805x-freertos-debug/obj/stream_buffer.o
                                                  /home/vboxuser/topst/cr5-bsp/sources/build/tcc805x/gcc/tcc805x-freertos-debug/obj/tasks.o
                                                  /home/vboxuser/topst/cr5-bsp/sources/build/tcc805x/gcc/tcc805x-freertos-debug/obj/mbox_dev.o
                                                  /home/vboxuser/topst/cr5-bsp/sources/build/tcc805x/gcc/tcc805x-freertos-debug/obj/hsm_manager.o
                                                  /home/vboxuser/topst/cr5-bsp/sources/build/tcc805x/gcc/tcc805x-freertos-debug/obj/hap.o
                                                  /home/vboxuser/topst/cr5-bsp/sources/build/tcc805x/gcc/tcc805x-freertos-debug/obj/hsm_test.o
                                                  /home/vboxuser/topst/cr5-bsp/sources/build/tcc805x/gcc/tcc805x-freertos-debug/obj/console.o
pcQueueGetName                                    /home/vboxuser/topst/cr5-bsp/sources/build/tcc805x/gcc/tcc805x-freertos-debug/obj/queue.o
pcTaskGetName                                     /home/vboxuser/topst/cr5-bsp/sources/build/tcc805x/gcc/tcc805x-freertos-debug/obj/tasks.o
pcTimerGetName                                    /home/vboxuser/topst/cr5-bsp/sources/build/tcc805x/gcc/tcc805x-freertos-debug/obj/timers.o
pvPortMalloc                                      /home/vboxuser/topst/cr5-bsp/sources/build/tcc805x/gcc/tcc805x-freertos-debug/obj/heap_5.o
                                                  /home/vboxuser/topst/cr5-bsp/sources/build/tcc805x/gcc/tcc805x-freertos-debug/obj/sal_freertos_impl.o
                                                  /home/vboxuser/topst/cr5-bsp/sources/build/tcc805x/gcc/tcc805x-freertos-debug/obj/stream_buffer.o
                                                  /home/vboxuser/topst/cr5-bsp/sources/build/tcc805x/gcc/tcc805x-freertos-debug/obj/timers.o
                                                  /home/vboxuser/topst/cr5-bsp/sources/build/tcc805x/gcc/tcc805x-freertos-debug/obj/event_groups.o
                                                  /home/vboxuser/topst/cr5-bsp/sources/build/tcc805x/gcc/tcc805x-freertos-debug/obj/queue.o
                                                  /home/vboxuser/topst/cr5-bsp/sources/build/tcc805x/gcc/tcc805x-freertos-debug/obj/tasks.o
pvTaskIncrementMutexHeldCount                     /home/vboxuser/topst/cr5-bsp/sources/build/tcc805x/gcc/tcc805x-freertos-debug/obj/tasks.o
                                                  /home/vboxuser/topst/cr5-bsp/sources/build/tcc805x/gcc/tcc805x-freertos-debug/obj/queue.o
pvTimerGetTimerID                                 /home/vboxuser/topst/cr5-bsp/sources/build/tcc805x/gcc/tcc805x-freertos-debug/obj/timers.o
pxCurrentTCB                                      /home/vboxuser/topst/cr5-bsp/sources/build/tcc805x/gcc/tcc805x-freertos-debug/obj/tasks.o
                                                  /home/vboxuser/topst/cr5-bsp/sources/build/tcc805x/gcc/tcc805x-freertos-debug/obj/portASM.o
pxPortInitialiseStack                             /home/vboxuser/topst/cr5-bsp/sources/build/tcc805x/gcc/tcc805x-freertos-debug/obj/port.o
                                                  /home/vboxuser/topst/cr5-bsp/sources/build/tcc805x/gcc/tcc805x-freertos-debug/obj/tasks.o
reset                                             /home/vboxuser/topst/cr5-bsp/sources/build/tcc805x/gcc/tcc805x-freertos-debug/obj/startup.o
                                                  /home/vboxuser/topst/cr5-bsp/sources/build/tcc805x/gcc/tcc805x-freertos-debug/obj/vector.o
sMPUTable                                         /home/vboxuser/topst/cr5-bsp/sources/build/tcc805x/gcc/tcc805x-freertos-debug/obj/mpu.o
setlocale                                         /home/vboxuser/topst/buildtools/gcc-linaro-7.2.1-2017.11-x86_64_arm-eabi/arm-eabi/libc/usr/lib/libc.a(lib_a-locale.o)
snprintf                                          /home/vboxuser/topst/buildtools/gcc-linaro-7.2.1-2017.11-x86_64_arm-eabi/arm-eabi/libc/usr/lib/libc.a(lib_a-snprintf.o)
                                                  /home/vboxuser/topst/cr5-bsp/sources/build/tcc805x/gcc/tcc805x-freertos-debug/obj/hap.o
spMboxDev                                         /home/vboxuser/topst/cr5-bsp/sources/build/tcc805x/gcc/tcc805x-freertos-debug/obj/mbox_dev.o
                                                  /home/vboxuser/topst/cr5-bsp/sources/build/tcc805x/gcc/tcc805x-freertos-debug/obj/bootctrl.o
strcasecmp                                        /home/vboxuser/topst/buildtools/gcc-linaro-7.2.1-2017.11-x86_64_arm-eabi/arm-eabi/libc/usr/lib/libc.a(lib_a-strcasecmp.o)
                                                  /home/vboxuser/topst/buildtools/gcc-linaro-7.2.1-2017.11-x86_64_arm-eabi/arm-eabi/libc/usr/lib/libc.a(lib_a-locale.o)
strcat                                            /home/vboxuser/topst/buildtools/gcc-linaro-7.2.1-2017.11-x86_64_arm-eabi/arm-eabi/libc/usr/lib/libc.a(lib_a-strcat.o)
                                                  /home/vboxuser/topst/buildtools/gcc-linaro-7.2.1-2017.11-x86_64_arm-eabi/arm-eabi/libc/usr/lib/libc.a(lib_a-locale.o)
strchr                                            /home/vboxuser/topst/buildtools/gcc-linaro-7.2.1-2017.11-x86_64_arm-eabi/arm-eabi/libc/usr/lib/libc.a(lib_a-strchr.o)
                                                  /home/vboxuser/topst/buildtools/gcc-linaro-7.2.1-2017.11-x86_64_arm-eabi/arm-eabi/libc/usr/lib/libc.a(lib_a-locale.o)
strcmp                                            /home/vboxuser/topst/buildtools/gcc-linaro-7.2.1-2017.11-x86_64_arm-eabi/arm-eabi/libc/usr/lib/libc.a(lib_a-strcmp.o)
                                                  /home/vboxuser/topst/buildtools/gcc-linaro-7.2.1-2017.11-x86_64_arm-eabi/arm-eabi/libc/usr/lib/libc.a(lib_a-locale.o)
strcpy                                            /home/vboxuser/topst/buildtools/gcc-linaro-7.2.1-2017.11-x86_64_arm-eabi/arm-eabi/libc/usr/lib/libc.a(lib_a-strcpy.o)
                                                  /home/vboxuser/topst/buildtools/gcc-linaro-7.2.1-2017.11-x86_64_arm-eabi/arm-eabi/libc/usr/lib/libc.a(lib_a-strcat.o)
                                                  /home/vboxuser/topst/buildtools/gcc-linaro-7.2.1-2017.11-x86_64_arm-eabi/arm-eabi/libc/usr/lib/libc.a(lib_a-locale.o)
strlcpy                                           /home/vboxuser/topst/buildtools/gcc-linaro-7.2.1-2017.11-x86_64_arm-eabi/arm-eabi/libc/usr/lib/libc.a(lib_a-strlcpy.o)
                                                  /home/vboxuser/topst/buildtools/gcc-linaro-7.2.1-2017.11-x86_64_arm-eabi/arm-eabi/libc/usr/lib/libc.a(lib_a-locale.o)
strlen                                            /home/vboxuser/topst/buildtools/gcc-linaro-7.2.1-2017.11-x86_64_arm-eabi/arm-eabi/libc/usr/lib/libc.a(lib_a-strlen-stub.o)
                                                  /home/vboxuser/topst/buildtools/gcc-linaro-7.2.1-2017.11-x86_64_arm-eabi/arm-eabi/libc/usr/lib/libc.a(lib_a-syscalls.o)
                                                  /home/vboxuser/topst/buildtools/gcc-linaro-7.2.1-2017.11-x86_64_arm-eabi/arm-eabi/libc/usr/lib/libc.a(lib_a-svfiprintf.o)
                                                  /home/vboxuser/topst/buildtools/gcc-linaro-7.2.1-2017.11-x86_64_arm-eabi/arm-eabi/libc/usr/lib/libc.a(lib_a-locale.o)
                                                  /home/vboxuser/topst/buildtools/gcc-linaro-7.2.1-2017.11-x86_64_arm-eabi/arm-eabi/libc/usr/lib/libc.a(lib_a-svfprintf.o)
                                                  /home/vboxuser/topst/cr5-bsp/sources/build/tcc805x/gcc/tcc805x-freertos-debug/obj/tasks.o
                                                  /home/vboxuser/topst/cr5-bsp/sources/build/tcc805x/gcc/tcc805x-freertos-debug/obj/hap.o
strncasecmp                                       /home/vboxuser/topst/buildtools/gcc-linaro-7.2.1-2017.11-x86_64_arm-eabi/arm-eabi/libc/usr/lib/libc.a(lib_a-strncasecmp.o)
                                                  /home/vboxuser/topst/buildtools/gcc-linaro-7.2.1-2017.11-x86_64_arm-eabi/arm-eabi/libc/usr/lib/libc.a(lib_a-locale.o)
strncmp                                           /home/vboxuser/topst/buildtools/gcc-linaro-7.2.1-2017.11-x86_64_arm-eabi/arm-eabi/libc/usr/lib/libc.a(lib_a-strncmp.o)
                                                  /home/vboxuser/topst/buildtools/gcc-linaro-7.2.1-2017.11-x86_64_arm-eabi/arm-eabi/libc/usr/lib/libc.a(lib_a-getenv_r.o)
                                                  /home/vboxuser/topst/buildtools/gcc-linaro-7.2.1-2017.11-x86_64_arm-eabi/arm-eabi/libc/usr/lib/libc.a(lib_a-locale.o)
                                                  /home/vboxuser/topst/cr5-bsp/sources/build/tcc805x/gcc/tcc805x-freertos-debug/obj/sal_freertos_impl.o
strncpy                                           /home/vboxuser/topst/buildtools/gcc-linaro-7.2.1-2017.11-x86_64_arm-eabi/arm-eabi/libc/usr/lib/libc.a(lib_a-strncpy.o)
                                                  /home/vboxuser/topst/buildtools/gcc-linaro-7.2.1-2017.11-x86_64_arm-eabi/arm-eabi/libc/usr/lib/libc.a(lib_a-svfiprintf.o)
                                                  /home/vboxuser/topst/buildtools/gcc-linaro-7.2.1-2017.11-x86_64_arm-eabi/arm-eabi/libc/usr/lib/libc.a(lib_a-locale.o)
                                                  /home/vboxuser/topst/buildtools/gcc-linaro-7.2.1-2017.11-x86_64_arm-eabi/arm-eabi/libc/usr/lib/libc.a(lib_a-svfprintf.o)
                                                  /home/vboxuser/topst/cr5-bsp/sources/build/tcc805x/gcc/tcc805x-freertos-debug/obj/sal_freertos_impl.o
strnlen                                           /home/vboxuser/topst/buildtools/gcc-linaro-7.2.1-2017.11-x86_64_arm-eabi/arm-eabi/libc/usr/lib/libc.a(lib_a-strnlen.o)
                                                  /home/vboxuser/topst/cr5-bsp/sources/build/tcc805x/gcc/tcc805x-freertos-debug/obj/sal_freertos_impl.o
strtol                                            /home/vboxuser/topst/buildtools/gcc-linaro-7.2.1-2017.11-x86_64_arm-eabi/arm-eabi/libc/usr/lib/libc.a(lib_a-strtol.o)
                                                  /home/vboxuser/topst/buildtools/gcc-linaro-7.2.1-2017.11-x86_64_arm-eabi/arm-eabi/libc/usr/lib/libc.a(lib_a-locale.o)
                                                  /home/vboxuser/topst/buildtools/gcc-linaro-7.2.1-2017.11-x86_64_arm-eabi/arm-eabi/libc/usr/lib/libc.a(lib_a-atol.o)
                                                  /home/vboxuser/topst/buildtools/gcc-linaro-7.2.1-2017.11-x86_64_arm-eabi/arm-eabi/libc/usr/lib/libc.a(lib_a-atoi.o)
                                                  /home/vboxuser/topst/cr5-bsp/sources/build/tcc805x/gcc/tcc805x-freertos-debug/obj/console.o
strtol_l                                          /home/vboxuser/topst/buildtools/gcc-linaro-7.2.1-2017.11-x86_64_arm-eabi/arm-eabi/libc/usr/lib/libc.a(lib_a-strtol.o)
strtoul                                           /home/vboxuser/topst/buildtools/gcc-linaro-7.2.1-2017.11-x86_64_arm-eabi/arm-eabi/libc/usr/lib/libc.a(lib_a-strtoul.o)
                                                  /home/vboxuser/topst/cr5-bsp/sources/build/tcc805x/gcc/tcc805x-freertos-debug/obj/console.o
strtoul_l                                         /home/vboxuser/topst/buildtools/gcc-linaro-7.2.1-2017.11-x86_64_arm-eabi/arm-eabi/libc/usr/lib/libc.a(lib_a-strtoul.o)
timer_on                                          /home/vboxuser/topst/cr5-bsp/sources/build/tcc805x/gcc/tcc805x-freertos-debug/obj/timer_test.o
                                                  /home/vboxuser/topst/cr5-bsp/sources/build/tcc805x/gcc/tcc805x-freertos-debug/obj/hap.o
ucHeap                                            /home/vboxuser/topst/cr5-bsp/sources/build/tcc805x/gcc/tcc805x-freertos-debug/obj/port.o
ulCriticalNesting                                 /home/vboxuser/topst/cr5-bsp/sources/build/tcc805x/gcc/tcc805x-freertos-debug/obj/port.o
                                                  /home/vboxuser/topst/cr5-bsp/sources/build/tcc805x/gcc/tcc805x-freertos-debug/obj/portASM.o
ulICCEOIR                                         /home/vboxuser/topst/cr5-bsp/sources/build/tcc805x/gcc/tcc805x-freertos-debug/obj/port.o
                                                  /home/vboxuser/topst/cr5-bsp/sources/build/tcc805x/gcc/tcc805x-freertos-debug/obj/portASM.o
ulICCIAR                                          /home/vboxuser/topst/cr5-bsp/sources/build/tcc805x/gcc/tcc805x-freertos-debug/obj/port.o
                                                  /home/vboxuser/topst/cr5-bsp/sources/build/tcc805x/gcc/tcc805x-freertos-debug/obj/portASM.o
ulICCPMR                                          /home/vboxuser/topst/cr5-bsp/sources/build/tcc805x/gcc/tcc805x-freertos-debug/obj/port.o
                                                  /home/vboxuser/topst/cr5-bsp/sources/build/tcc805x/gcc/tcc805x-freertos-debug/obj/portASM.o
ulMaxAPIPriorityMask                              /home/vboxuser/topst/cr5-bsp/sources/build/tcc805x/gcc/tcc805x-freertos-debug/obj/port.o
                                                  /home/vboxuser/topst/cr5-bsp/sources/build/tcc805x/gcc/tcc805x-freertos-debug/obj/portASM.o
ulPortInterruptNesting                            /home/vboxuser/topst/cr5-bsp/sources/build/tcc805x/gcc/tcc805x-freertos-debug/obj/port.o
                                                  /home/vboxuser/topst/cr5-bsp/sources/build/tcc805x/gcc/tcc805x-freertos-debug/obj/portASM.o
ulPortSetInterruptMask                            /home/vboxuser/topst/cr5-bsp/sources/build/tcc805x/gcc/tcc805x-freertos-debug/obj/port.o
                                                  /home/vboxuser/topst/cr5-bsp/sources/build/tcc805x/gcc/tcc805x-freertos-debug/obj/stream_buffer.o
                                                  /home/vboxuser/topst/cr5-bsp/sources/build/tcc805x/gcc/tcc805x-freertos-debug/obj/event_groups.o
                                                  /home/vboxuser/topst/cr5-bsp/sources/build/tcc805x/gcc/tcc805x-freertos-debug/obj/queue.o
                                                  /home/vboxuser/topst/cr5-bsp/sources/build/tcc805x/gcc/tcc805x-freertos-debug/obj/tasks.o
ulPortTaskHasFPUContext                           /home/vboxuser/topst/cr5-bsp/sources/build/tcc805x/gcc/tcc805x-freertos-debug/obj/port.o
                                                  /home/vboxuser/topst/cr5-bsp/sources/build/tcc805x/gcc/tcc805x-freertos-debug/obj/portASM.o
ulPortYieldRequired                               /home/vboxuser/topst/cr5-bsp/sources/build/tcc805x/gcc/tcc805x-freertos-debug/obj/port.o
                                                  /home/vboxuser/topst/cr5-bsp/sources/build/tcc805x/gcc/tcc805x-freertos-debug/obj/portASM.o
                                                  /home/vboxuser/topst/cr5-bsp/sources/build/tcc805x/gcc/tcc805x-freertos-debug/obj/sal_freertos_impl.o
ulTaskNotifyTake                                  /home/vboxuser/topst/cr5-bsp/sources/build/tcc805x/gcc/tcc805x-freertos-debug/obj/tasks.o
ulTaskNotifyValueClear                            /home/vboxuser/topst/cr5-bsp/sources/build/tcc805x/gcc/tcc805x-freertos-debug/obj/tasks.o
ultrasonic_read_distance                          /home/vboxuser/topst/cr5-bsp/sources/build/tcc805x/gcc/tcc805x-freertos-debug/obj/hap.o
                                                  /home/vboxuser/topst/cr5-bsp/sources/build/tcc805x/gcc/tcc805x-freertos-debug/obj/console.o
uxListRemove                                      /home/vboxuser/topst/cr5-bsp/sources/build/tcc805x/gcc/tcc805x-freertos-debug/obj/list.o
                                                  /home/vboxuser/topst/cr5-bsp/sources/build/tcc805x/gcc/tcc805x-freertos-debug/obj/timers.o
                                                  /home/vboxuser/topst/cr5-bsp/sources/build/tcc805x/gcc/tcc805x-freertos-debug/obj/tasks.o
uxQueueMessagesWaiting                            /home/vboxuser/topst/cr5-bsp/sources/build/tcc805x/gcc/tcc805x-freertos-debug/obj/queue.o
uxQueueMessagesWaitingFromISR                     /home/vboxuser/topst/cr5-bsp/sources/build/tcc805x/gcc/tcc805x-freertos-debug/obj/queue.o
uxQueueSpacesAvailable                            /home/vboxuser/topst/cr5-bsp/sources/build/tcc805x/gcc/tcc805x-freertos-debug/obj/queue.o
uxTaskGetNumberOfTasks                            /home/vboxuser/topst/cr5-bsp/sources/build/tcc805x/gcc/tcc805x-freertos-debug/obj/tasks.o
uxTaskPriorityGet                                 /home/vboxuser/topst/cr5-bsp/sources/build/tcc805x/gcc/tcc805x-freertos-debug/obj/tasks.o
uxTaskPriorityGetFromISR                          /home/vboxuser/topst/cr5-bsp/sources/build/tcc805x/gcc/tcc805x-freertos-debug/obj/tasks.o
uxTaskResetEventItemValue                         /home/vboxuser/topst/cr5-bsp/sources/build/tcc805x/gcc/tcc805x-freertos-debug/obj/tasks.o
                                                  /home/vboxuser/topst/cr5-bsp/sources/build/tcc805x/gcc/tcc805x-freertos-debug/obj/event_groups.o
uxTimerGetReloadMode                              /home/vboxuser/topst/cr5-bsp/sources/build/tcc805x/gcc/tcc805x-freertos-debug/obj/timers.o
vApplicationFPUSafeIRQHandler                     /home/vboxuser/topst/cr5-bsp/sources/build/tcc805x/gcc/tcc805x-freertos-debug/obj/port.o
                                                  /home/vboxuser/topst/cr5-bsp/sources/build/tcc805x/gcc/tcc805x-freertos-debug/obj/portASM.o
vApplicationGetIdleTaskMemory                     /home/vboxuser/topst/cr5-bsp/sources/build/tcc805x/gcc/tcc805x-freertos-debug/obj/port.o
                                                  /home/vboxuser/topst/cr5-bsp/sources/build/tcc805x/gcc/tcc805x-freertos-debug/obj/tasks.o
vApplicationGetTimerTaskMemory                    /home/vboxuser/topst/cr5-bsp/sources/build/tcc805x/gcc/tcc805x-freertos-debug/obj/port.o
                                                  /home/vboxuser/topst/cr5-bsp/sources/build/tcc805x/gcc/tcc805x-freertos-debug/obj/timers.o
vApplicationIRQHandler                            /home/vboxuser/topst/cr5-bsp/sources/build/tcc805x/gcc/tcc805x-freertos-debug/obj/portASM.o
vApplicationStackOverflowHook                     /home/vboxuser/topst/cr5-bsp/sources/build/tcc805x/gcc/tcc805x-freertos-debug/obj/port.o
                                                  /home/vboxuser/topst/cr5-bsp/sources/build/tcc805x/gcc/tcc805x-freertos-debug/obj/tasks.o
vClearTickInterrupt                               /home/vboxuser/topst/cr5-bsp/sources/build/tcc805x/gcc/tcc805x-freertos-debug/obj/port.o
vConfigureTickInterrupt                           /home/vboxuser/topst/cr5-bsp/sources/build/tcc805x/gcc/tcc805x-freertos-debug/obj/port.o
vEventGroupClearBitsCallback                      /home/vboxuser/topst/cr5-bsp/sources/build/tcc805x/gcc/tcc805x-freertos-debug/obj/event_groups.o
                                                  /home/vboxuser/topst/cr5-bsp/sources/build/tcc805x/gcc/tcc805x-freertos-debug/obj/sal_freertos_impl.o
vEventGroupDelete                                 /home/vboxuser/topst/cr5-bsp/sources/build/tcc805x/gcc/tcc805x-freertos-debug/obj/event_groups.o
vEventGroupSetBitsCallback                        /home/vboxuser/topst/cr5-bsp/sources/build/tcc805x/gcc/tcc805x-freertos-debug/obj/event_groups.o
                                                  /home/vboxuser/topst/cr5-bsp/sources/build/tcc805x/gcc/tcc805x-freertos-debug/obj/sal_freertos_impl.o
vInitialiseTimerForRunTimeStats                   /home/vboxuser/topst/cr5-bsp/sources/build/tcc805x/gcc/tcc805x-freertos-debug/obj/port.o
                                                  /home/vboxuser/topst/cr5-bsp/sources/build/tcc805x/gcc/tcc805x-freertos-debug/obj/tasks.o
vListInitialise                                   /home/vboxuser/topst/cr5-bsp/sources/build/tcc805x/gcc/tcc805x-freertos-debug/obj/list.o
                                                  /home/vboxuser/topst/cr5-bsp/sources/build/tcc805x/gcc/tcc805x-freertos-debug/obj/timers.o
                                                  /home/vboxuser/topst/cr5-bsp/sources/build/tcc805x/gcc/tcc805x-freertos-debug/obj/event_groups.o
                                                  /home/vboxuser/topst/cr5-bsp/sources/build/tcc805x/gcc/tcc805x-freertos-debug/obj/queue.o
                                                  /home/vboxuser/topst/cr5-bsp/sources/build/tcc805x/gcc/tcc805x-freertos-debug/obj/tasks.o
vListInitialiseItem                               /home/vboxuser/topst/cr5-bsp/sources/build/tcc805x/gcc/tcc805x-freertos-debug/obj/list.o
                                                  /home/vboxuser/topst/cr5-bsp/sources/build/tcc805x/gcc/tcc805x-freertos-debug/obj/timers.o
                                                  /home/vboxuser/topst/cr5-bsp/sources/build/tcc805x/gcc/tcc805x-freertos-debug/obj/tasks.o
vListInsert                                       /home/vboxuser/topst/cr5-bsp/sources/build/tcc805x/gcc/tcc805x-freertos-debug/obj/list.o
                                                  /home/vboxuser/topst/cr5-bsp/sources/build/tcc805x/gcc/tcc805x-freertos-debug/obj/timers.o
                                                  /home/vboxuser/topst/cr5-bsp/sources/build/tcc805x/gcc/tcc805x-freertos-debug/obj/tasks.o
vListInsertEnd                                    /home/vboxuser/topst/cr5-bsp/sources/build/tcc805x/gcc/tcc805x-freertos-debug/obj/list.o
                                                  /home/vboxuser/topst/cr5-bsp/sources/build/tcc805x/gcc/tcc805x-freertos-debug/obj/tasks.o
vPortClearInterruptMask                           /home/vboxuser/topst/cr5-bsp/sources/build/tcc805x/gcc/tcc805x-freertos-debug/obj/port.o
                                                  /home/vboxuser/topst/cr5-bsp/sources/build/tcc805x/gcc/tcc805x-freertos-debug/obj/stream_buffer.o
                                                  /home/vboxuser/topst/cr5-bsp/sources/build/tcc805x/gcc/tcc805x-freertos-debug/obj/event_groups.o
                                                  /home/vboxuser/topst/cr5-bsp/sources/build/tcc805x/gcc/tcc805x-freertos-debug/obj/queue.o
                                                  /home/vboxuser/topst/cr5-bsp/sources/build/tcc805x/gcc/tcc805x-freertos-debug/obj/tasks.o
vPortDefineHeapRegions                            /home/vboxuser/topst/cr5-bsp/sources/build/tcc805x/gcc/tcc805x-freertos-debug/obj/heap_5.o
                                                  /home/vboxuser/topst/cr5-bsp/sources/build/tcc805x/gcc/tcc805x-freertos-debug/obj/port.o
vPortEndScheduler                                 /home/vboxuser/topst/cr5-bsp/sources/build/tcc805x/gcc/tcc805x-freertos-debug/obj/port.o
                                                  /home/vboxuser/topst/cr5-bsp/sources/build/tcc805x/gcc/tcc805x-freertos-debug/obj/tasks.o
vPortEnterCritical                                /home/vboxuser/topst/cr5-bsp/sources/build/tcc805x/gcc/tcc805x-freertos-debug/obj/port.o
                                                  /home/vboxuser/topst/cr5-bsp/sources/build/tcc805x/gcc/tcc805x-freertos-debug/obj/heap_5.o
                                                  /home/vboxuser/topst/cr5-bsp/sources/build/tcc805x/gcc/tcc805x-freertos-debug/obj/stream_buffer.o
                                                  /home/vboxuser/topst/cr5-bsp/sources/build/tcc805x/gcc/tcc805x-freertos-debug/obj/timers.o
                                                  /home/vboxuser/topst/cr5-bsp/sources/build/tcc805x/gcc/tcc805x-freertos-debug/obj/event_groups.o
                                                  /home/vboxuser/topst/cr5-bsp/sources/build/tcc805x/gcc/tcc805x-freertos-debug/obj/queue.o
                                                  /home/vboxuser/topst/cr5-bsp/sources/build/tcc805x/gcc/tcc805x-freertos-debug/obj/tasks.o
vPortExitCritical                                 /home/vboxuser/topst/cr5-bsp/sources/build/tcc805x/gcc/tcc805x-freertos-debug/obj/port.o
                                                  /home/vboxuser/topst/cr5-bsp/sources/build/tcc805x/gcc/tcc805x-freertos-debug/obj/heap_5.o
                                                  /home/vboxuser/topst/cr5-bsp/sources/build/tcc805x/gcc/tcc805x-freertos-debug/obj/stream_buffer.o
                                                  /home/vboxuser/topst/cr5-bsp/sources/build/tcc805x/gcc/tcc805x-freertos-debug/obj/timers.o
                                                  /home/vboxuser/topst/cr5-bsp/sources/build/tcc805x/gcc/tcc805x-freertos-debug/obj/event_groups.o
                                                  /home/vboxuser/topst/cr5-bsp/sources/build/tcc805x/gcc/tcc805x-freertos-debug/obj/queue.o
                                                  /home/vboxuser/topst/cr5-bsp/sources/build/tcc805x/gcc/tcc805x-freertos-debug/obj/tasks.o
vPortFree                                         /home/vboxuser/topst/cr5-bsp/sources/build/tcc805x/gcc/tcc805x-freertos-debug/obj/heap_5.o
                                                  /home/vboxuser/topst/cr5-bsp/sources/build/tcc805x/gcc/tcc805x-freertos-debug/obj/stream_buffer.o
                                                  /home/vboxuser/topst/cr5-bsp/sources/build/tcc805x/gcc/tcc805x-freertos-debug/obj/timers.o
                                                  /home/vboxuser/topst/cr5-bsp/sources/build/tcc805x/gcc/tcc805x-freertos-debug/obj/event_groups.o
                                                  /home/vboxuser/topst/cr5-bsp/sources/build/tcc805x/gcc/tcc805x-freertos-debug/obj/queue.o
                                                  /home/vboxuser/topst/cr5-bsp/sources/build/tcc805x/gcc/tcc805x-freertos-debug/obj/tasks.o
vPortGetHeapStats                                 /home/vboxuser/topst/cr5-bsp/sources/build/tcc805x/gcc/tcc805x-freertos-debug/obj/heap_5.o
vPortRestoreTaskContext                           /home/vboxuser/topst/cr5-bsp/sources/build/tcc805x/gcc/tcc805x-freertos-debug/obj/portASM.o
                                                  /home/vboxuser/topst/cr5-bsp/sources/build/tcc805x/gcc/tcc805x-freertos-debug/obj/port.o
vPortTaskUsesFPU                                  /home/vboxuser/topst/cr5-bsp/sources/build/tcc805x/gcc/tcc805x-freertos-debug/obj/port.o
vPortValidateInterruptPriority                    /home/vboxuser/topst/cr5-bsp/sources/build/tcc805x/gcc/tcc805x-freertos-debug/obj/port.o
                                                  /home/vboxuser/topst/cr5-bsp/sources/build/tcc805x/gcc/tcc805x-freertos-debug/obj/queue.o
                                                  /home/vboxuser/topst/cr5-bsp/sources/build/tcc805x/gcc/tcc805x-freertos-debug/obj/tasks.o
vQueueAddToRegistry                               /home/vboxuser/topst/cr5-bsp/sources/build/tcc805x/gcc/tcc805x-freertos-debug/obj/queue.o
                                                  /home/vboxuser/topst/cr5-bsp/sources/build/tcc805x/gcc/tcc805x-freertos-debug/obj/timers.o
vQueueDelete                                      /home/vboxuser/topst/cr5-bsp/sources/build/tcc805x/gcc/tcc805x-freertos-debug/obj/queue.o
vQueueUnregisterQueue                             /home/vboxuser/topst/cr5-bsp/sources/build/tcc805x/gcc/tcc805x-freertos-debug/obj/queue.o
vQueueWaitForMessageRestricted                    /home/vboxuser/topst/cr5-bsp/sources/build/tcc805x/gcc/tcc805x-freertos-debug/obj/queue.o
                                                  /home/vboxuser/topst/cr5-bsp/sources/build/tcc805x/gcc/tcc805x-freertos-debug/obj/timers.o
vStreamBufferDelete                               /home/vboxuser/topst/cr5-bsp/sources/build/tcc805x/gcc/tcc805x-freertos-debug/obj/stream_buffer.o
vTaskDelay                                        /home/vboxuser/topst/cr5-bsp/sources/build/tcc805x/gcc/tcc805x-freertos-debug/obj/tasks.o
                                                  /home/vboxuser/topst/cr5-bsp/sources/build/tcc805x/gcc/tcc805x-freertos-debug/obj/sal_freertos_impl.o
vTaskDelayUntil                                   /home/vboxuser/topst/cr5-bsp/sources/build/tcc805x/gcc/tcc805x-freertos-debug/obj/tasks.o
vTaskDelete                                       /home/vboxuser/topst/cr5-bsp/sources/build/tcc805x/gcc/tcc805x-freertos-debug/obj/tasks.o
vTaskEndScheduler                                 /home/vboxuser/topst/cr5-bsp/sources/build/tcc805x/gcc/tcc805x-freertos-debug/obj/tasks.o
vTaskInternalSetTimeOutState                      /home/vboxuser/topst/cr5-bsp/sources/build/tcc805x/gcc/tcc805x-freertos-debug/obj/tasks.o
                                                  /home/vboxuser/topst/cr5-bsp/sources/build/tcc805x/gcc/tcc805x-freertos-debug/obj/queue.o
vTaskMissedYield                                  /home/vboxuser/topst/cr5-bsp/sources/build/tcc805x/gcc/tcc805x-freertos-debug/obj/tasks.o
                                                  /home/vboxuser/topst/cr5-bsp/sources/build/tcc805x/gcc/tcc805x-freertos-debug/obj/queue.o
vTaskNotifyGiveFromISR                            /home/vboxuser/topst/cr5-bsp/sources/build/tcc805x/gcc/tcc805x-freertos-debug/obj/tasks.o
vTaskPlaceOnEventList                             /home/vboxuser/topst/cr5-bsp/sources/build/tcc805x/gcc/tcc805x-freertos-debug/obj/tasks.o
                                                  /home/vboxuser/topst/cr5-bsp/sources/build/tcc805x/gcc/tcc805x-freertos-debug/obj/queue.o
vTaskPlaceOnEventListRestricted                   /home/vboxuser/topst/cr5-bsp/sources/build/tcc805x/gcc/tcc805x-freertos-debug/obj/tasks.o
                                                  /home/vboxuser/topst/cr5-bsp/sources/build/tcc805x/gcc/tcc805x-freertos-debug/obj/queue.o
vTaskPlaceOnUnorderedEventList                    /home/vboxuser/topst/cr5-bsp/sources/build/tcc805x/gcc/tcc805x-freertos-debug/obj/tasks.o
                                                  /home/vboxuser/topst/cr5-bsp/sources/build/tcc805x/gcc/tcc805x-freertos-debug/obj/event_groups.o
vTaskPriorityDisinheritAfterTimeout               /home/vboxuser/topst/cr5-bsp/sources/build/tcc805x/gcc/tcc805x-freertos-debug/obj/tasks.o
                                                  /home/vboxuser/topst/cr5-bsp/sources/build/tcc805x/gcc/tcc805x-freertos-debug/obj/queue.o
vTaskPrioritySet                                  /home/vboxuser/topst/cr5-bsp/sources/build/tcc805x/gcc/tcc805x-freertos-debug/obj/tasks.o
vTaskRemoveFromUnorderedEventList                 /home/vboxuser/topst/cr5-bsp/sources/build/tcc805x/gcc/tcc805x-freertos-debug/obj/tasks.o
                                                  /home/vboxuser/topst/cr5-bsp/sources/build/tcc805x/gcc/tcc805x-freertos-debug/obj/event_groups.o
vTaskResume                                       /home/vboxuser/topst/cr5-bsp/sources/build/tcc805x/gcc/tcc805x-freertos-debug/obj/tasks.o
vTaskSetTimeOutState                              /home/vboxuser/topst/cr5-bsp/sources/build/tcc805x/gcc/tcc805x-freertos-debug/obj/tasks.o
                                                  /home/vboxuser/topst/cr5-bsp/sources/build/tcc805x/gcc/tcc805x-freertos-debug/obj/stream_buffer.o
vTaskStartScheduler                               /home/vboxuser/topst/cr5-bsp/sources/build/tcc805x/gcc/tcc805x-freertos-debug/obj/tasks.o
                                                  /home/vboxuser/topst/cr5-bsp/sources/build/tcc805x/gcc/tcc805x-freertos-debug/obj/sal_freertos_impl.o
vTaskSuspend                                      /home/vboxuser/topst/cr5-bsp/sources/build/tcc805x/gcc/tcc805x-freertos-debug/obj/tasks.o
vTaskSuspendAll                                   /home/vboxuser/topst/cr5-bsp/sources/build/tcc805x/gcc/tcc805x-freertos-debug/obj/tasks.o
                                                  /home/vboxuser/topst/cr5-bsp/sources/build/tcc805x/gcc/tcc805x-freertos-debug/obj/heap_5.o
                                                  /home/vboxuser/topst/cr5-bsp/sources/build/tcc805x/gcc/tcc805x-freertos-debug/obj/stream_buffer.o
                                                  /home/vboxuser/topst/cr5-bsp/sources/build/tcc805x/gcc/tcc805x-freertos-debug/obj/timers.o
                                                  /home/vboxuser/topst/cr5-bsp/sources/build/tcc805x/gcc/tcc805x-freertos-debug/obj/event_groups.o
                                                  /home/vboxuser/topst/cr5-bsp/sources/build/tcc805x/gcc/tcc805x-freertos-debug/obj/queue.o
vTaskSwitchContext                                /home/vboxuser/topst/cr5-bsp/sources/build/tcc805x/gcc/tcc805x-freertos-debug/obj/tasks.o
                                                  /home/vboxuser/topst/cr5-bsp/sources/build/tcc805x/gcc/tcc805x-freertos-debug/obj/portASM.o
vTimerSetReloadMode                               /home/vboxuser/topst/cr5-bsp/sources/build/tcc805x/gcc/tcc805x-freertos-debug/obj/timers.o
vTimerSetTimerID                                  /home/vboxuser/topst/cr5-bsp/sources/build/tcc805x/gcc/tcc805x-freertos-debug/obj/timers.o
vfp_init                                          /home/vboxuser/topst/cr5-bsp/sources/build/tcc805x/gcc/tcc805x-freertos-debug/obj/vfp_init.o
                                                  /home/vboxuser/topst/cr5-bsp/sources/build/tcc805x/gcc/tcc805x-freertos-debug/obj/startup.o
wcrtomb                                           /home/vboxuser/topst/buildtools/gcc-linaro-7.2.1-2017.11-x86_64_arm-eabi/arm-eabi/libc/usr/lib/libc.a(lib_a-wcrtomb.o)
wcsnrtombs                                        /home/vboxuser/topst/buildtools/gcc-linaro-7.2.1-2017.11-x86_64_arm-eabi/arm-eabi/libc/usr/lib/libc.a(lib_a-wcsnrtombs.o)
wcsrtombs                                         /home/vboxuser/topst/buildtools/gcc-linaro-7.2.1-2017.11-x86_64_arm-eabi/arm-eabi/libc/usr/lib/libc.a(lib_a-wcsrtombs.o)
xEventGroupClearBits                              /home/vboxuser/topst/cr5-bsp/sources/build/tcc805x/gcc/tcc805x-freertos-debug/obj/event_groups.o
                                                  /home/vboxuser/topst/cr5-bsp/sources/build/tcc805x/gcc/tcc805x-freertos-debug/obj/sal_freertos_impl.o
xEventGroupCreate                                 /home/vboxuser/topst/cr5-bsp/sources/build/tcc805x/gcc/tcc805x-freertos-debug/obj/event_groups.o
xEventGroupCreateStatic                           /home/vboxuser/topst/cr5-bsp/sources/build/tcc805x/gcc/tcc805x-freertos-debug/obj/event_groups.o
                                                  /home/vboxuser/topst/cr5-bsp/sources/build/tcc805x/gcc/tcc805x-freertos-debug/obj/sal_freertos_impl.o
xEventGroupGetBitsFromISR                         /home/vboxuser/topst/cr5-bsp/sources/build/tcc805x/gcc/tcc805x-freertos-debug/obj/event_groups.o
xEventGroupSetBits                                /home/vboxuser/topst/cr5-bsp/sources/build/tcc805x/gcc/tcc805x-freertos-debug/obj/event_groups.o
                                                  /home/vboxuser/topst/cr5-bsp/sources/build/tcc805x/gcc/tcc805x-freertos-debug/obj/sal_freertos_impl.o
xEventGroupSync                                   /home/vboxuser/topst/cr5-bsp/sources/build/tcc805x/gcc/tcc805x-freertos-debug/obj/event_groups.o
xEventGroupWaitBits                               /home/vboxuser/topst/cr5-bsp/sources/build/tcc805x/gcc/tcc805x-freertos-debug/obj/event_groups.o
                                                  /home/vboxuser/topst/cr5-bsp/sources/build/tcc805x/gcc/tcc805x-freertos-debug/obj/sal_freertos_impl.o
xPortGetFreeHeapSize                              /home/vboxuser/topst/cr5-bsp/sources/build/tcc805x/gcc/tcc805x-freertos-debug/obj/heap_5.o
xPortGetInterruptNestingCount                     /home/vboxuser/topst/cr5-bsp/sources/build/tcc805x/gcc/tcc805x-freertos-debug/obj/port.o
                                                  /home/vboxuser/topst/cr5-bsp/sources/build/tcc805x/gcc/tcc805x-freertos-debug/obj/sal_freertos_impl.o
xPortGetMinimumEverFreeHeapSize                   /home/vboxuser/topst/cr5-bsp/sources/build/tcc805x/gcc/tcc805x-freertos-debug/obj/heap_5.o
xPortStartScheduler                               /home/vboxuser/topst/cr5-bsp/sources/build/tcc805x/gcc/tcc805x-freertos-debug/obj/port.o
                                                  /home/vboxuser/topst/cr5-bsp/sources/build/tcc805x/gcc/tcc805x-freertos-debug/obj/tasks.o
xQueueAddToSet                                    /home/vboxuser/topst/cr5-bsp/sources/build/tcc805x/gcc/tcc805x-freertos-debug/obj/queue.o
xQueueCreateCountingSemaphore                     /home/vboxuser/topst/cr5-bsp/sources/build/tcc805x/gcc/tcc805x-freertos-debug/obj/queue.o
xQueueCreateCountingSemaphoreStatic               /home/vboxuser/topst/cr5-bsp/sources/build/tcc805x/gcc/tcc805x-freertos-debug/obj/queue.o
xQueueCreateMutex                                 /home/vboxuser/topst/cr5-bsp/sources/build/tcc805x/gcc/tcc805x-freertos-debug/obj/queue.o
xQueueCreateMutexStatic                           /home/vboxuser/topst/cr5-bsp/sources/build/tcc805x/gcc/tcc805x-freertos-debug/obj/queue.o
xQueueCreateSet                                   /home/vboxuser/topst/cr5-bsp/sources/build/tcc805x/gcc/tcc805x-freertos-debug/obj/queue.o
xQueueGenericCreate                               /home/vboxuser/topst/cr5-bsp/sources/build/tcc805x/gcc/tcc805x-freertos-debug/obj/queue.o
xQueueGenericCreateStatic                         /home/vboxuser/topst/cr5-bsp/sources/build/tcc805x/gcc/tcc805x-freertos-debug/obj/queue.o
                                                  /home/vboxuser/topst/cr5-bsp/sources/build/tcc805x/gcc/tcc805x-freertos-debug/obj/sal_freertos_impl.o
                                                  /home/vboxuser/topst/cr5-bsp/sources/build/tcc805x/gcc/tcc805x-freertos-debug/obj/timers.o
xQueueGenericReset                                /home/vboxuser/topst/cr5-bsp/sources/build/tcc805x/gcc/tcc805x-freertos-debug/obj/queue.o
xQueueGenericSend                                 /home/vboxuser/topst/cr5-bsp/sources/build/tcc805x/gcc/tcc805x-freertos-debug/obj/queue.o
                                                  /home/vboxuser/topst/cr5-bsp/sources/build/tcc805x/gcc/tcc805x-freertos-debug/obj/sal_freertos_impl.o
                                                  /home/vboxuser/topst/cr5-bsp/sources/build/tcc805x/gcc/tcc805x-freertos-debug/obj/timers.o
xQueueGenericSendFromISR                          /home/vboxuser/topst/cr5-bsp/sources/build/tcc805x/gcc/tcc805x-freertos-debug/obj/queue.o
                                                  /home/vboxuser/topst/cr5-bsp/sources/build/tcc805x/gcc/tcc805x-freertos-debug/obj/sal_freertos_impl.o
                                                  /home/vboxuser/topst/cr5-bsp/sources/build/tcc805x/gcc/tcc805x-freertos-debug/obj/timers.o
xQueueGetMutexHolder                              /home/vboxuser/topst/cr5-bsp/sources/build/tcc805x/gcc/tcc805x-freertos-debug/obj/queue.o
xQueueGetMutexHolderFromISR                       /home/vboxuser/topst/cr5-bsp/sources/build/tcc805x/gcc/tcc805x-freertos-debug/obj/queue.o
xQueueGiveFromISR                                 /home/vboxuser/topst/cr5-bsp/sources/build/tcc805x/gcc/tcc805x-freertos-debug/obj/queue.o
                                                  /home/vboxuser/topst/cr5-bsp/sources/build/tcc805x/gcc/tcc805x-freertos-debug/obj/sal_freertos_impl.o
xQueueGiveMutexRecursive                          /home/vboxuser/topst/cr5-bsp/sources/build/tcc805x/gcc/tcc805x-freertos-debug/obj/queue.o
xQueueIsQueueEmptyFromISR                         /home/vboxuser/topst/cr5-bsp/sources/build/tcc805x/gcc/tcc805x-freertos-debug/obj/queue.o
xQueueIsQueueFullFromISR                          /home/vboxuser/topst/cr5-bsp/sources/build/tcc805x/gcc/tcc805x-freertos-debug/obj/queue.o
xQueuePeek                                        /home/vboxuser/topst/cr5-bsp/sources/build/tcc805x/gcc/tcc805x-freertos-debug/obj/queue.o
xQueuePeekFromISR                                 /home/vboxuser/topst/cr5-bsp/sources/build/tcc805x/gcc/tcc805x-freertos-debug/obj/queue.o
xQueueReceive                                     /home/vboxuser/topst/cr5-bsp/sources/build/tcc805x/gcc/tcc805x-freertos-debug/obj/queue.o
                                                  /home/vboxuser/topst/cr5-bsp/sources/build/tcc805x/gcc/tcc805x-freertos-debug/obj/sal_freertos_impl.o
                                                  /home/vboxuser/topst/cr5-bsp/sources/build/tcc805x/gcc/tcc805x-freertos-debug/obj/timers.o
xQueueReceiveFromISR                              /home/vboxuser/topst/cr5-bsp/sources/build/tcc805x/gcc/tcc805x-freertos-debug/obj/queue.o
                                                  /home/vboxuser/topst/cr5-bsp/sources/build/tcc805x/gcc/tcc805x-freertos-debug/obj/sal_freertos_impl.o
xQueueRegistry                                    /home/vboxuser/topst/cr5-bsp/sources/build/tcc805x/gcc/tcc805x-freertos-debug/obj/queue.o
xQueueRemoveFromSet                               /home/vboxuser/topst/cr5-bsp/sources/build/tcc805x/gcc/tcc805x-freertos-debug/obj/queue.o
xQueueSelectFromSet                               /home/vboxuser/topst/cr5-bsp/sources/build/tcc805x/gcc/tcc805x-freertos-debug/obj/queue.o
xQueueSelectFromSetFromISR                        /home/vboxuser/topst/cr5-bsp/sources/build/tcc805x/gcc/tcc805x-freertos-debug/obj/queue.o
xQueueSemaphoreTake                               /home/vboxuser/topst/cr5-bsp/sources/build/tcc805x/gcc/tcc805x-freertos-debug/obj/queue.o
                                                  /home/vboxuser/topst/cr5-bsp/sources/build/tcc805x/gcc/tcc805x-freertos-debug/obj/sal_freertos_impl.o
xQueueTakeMutexRecursive                          /home/vboxuser/topst/cr5-bsp/sources/build/tcc805x/gcc/tcc805x-freertos-debug/obj/queue.o
xStreamBufferBytesAvailable                       /home/vboxuser/topst/cr5-bsp/sources/build/tcc805x/gcc/tcc805x-freertos-debug/obj/stream_buffer.o
xStreamBufferGenericCreate                        /home/vboxuser/topst/cr5-bsp/sources/build/tcc805x/gcc/tcc805x-freertos-debug/obj/stream_buffer.o
xStreamBufferGenericCreateStatic                  /home/vboxuser/topst/cr5-bsp/sources/build/tcc805x/gcc/tcc805x-freertos-debug/obj/stream_buffer.o
xStreamBufferIsEmpty                              /home/vboxuser/topst/cr5-bsp/sources/build/tcc805x/gcc/tcc805x-freertos-debug/obj/stream_buffer.o
xStreamBufferIsFull                               /home/vboxuser/topst/cr5-bsp/sources/build/tcc805x/gcc/tcc805x-freertos-debug/obj/stream_buffer.o
xStreamBufferNextMessageLengthBytes               /home/vboxuser/topst/cr5-bsp/sources/build/tcc805x/gcc/tcc805x-freertos-debug/obj/stream_buffer.o
xStreamBufferReceive                              /home/vboxuser/topst/cr5-bsp/sources/build/tcc805x/gcc/tcc805x-freertos-debug/obj/stream_buffer.o
xStreamBufferReceiveCompletedFromISR              /home/vboxuser/topst/cr5-bsp/sources/build/tcc805x/gcc/tcc805x-freertos-debug/obj/stream_buffer.o
xStreamBufferReceiveFromISR                       /home/vboxuser/topst/cr5-bsp/sources/build/tcc805x/gcc/tcc805x-freertos-debug/obj/stream_buffer.o
xStreamBufferReset                                /home/vboxuser/topst/cr5-bsp/sources/build/tcc805x/gcc/tcc805x-freertos-debug/obj/stream_buffer.o
xStreamBufferSend                                 /home/vboxuser/topst/cr5-bsp/sources/build/tcc805x/gcc/tcc805x-freertos-debug/obj/stream_buffer.o
xStreamBufferSendCompletedFromISR                 /home/vboxuser/topst/cr5-bsp/sources/build/tcc805x/gcc/tcc805x-freertos-debug/obj/stream_buffer.o
xStreamBufferSendFromISR                          /home/vboxuser/topst/cr5-bsp/sources/build/tcc805x/gcc/tcc805x-freertos-debug/obj/stream_buffer.o
xStreamBufferSetTriggerLevel                      /home/vboxuser/topst/cr5-bsp/sources/build/tcc805x/gcc/tcc805x-freertos-debug/obj/stream_buffer.o
xStreamBufferSpacesAvailable                      /home/vboxuser/topst/cr5-bsp/sources/build/tcc805x/gcc/tcc805x-freertos-debug/obj/stream_buffer.o
xTaskAbortDelay                                   /home/vboxuser/topst/cr5-bsp/sources/build/tcc805x/gcc/tcc805x-freertos-debug/obj/tasks.o
xTaskCatchUpTicks                                 /home/vboxuser/topst/cr5-bsp/sources/build/tcc805x/gcc/tcc805x-freertos-debug/obj/tasks.o
xTaskCheckForTimeOut                              /home/vboxuser/topst/cr5-bsp/sources/build/tcc805x/gcc/tcc805x-freertos-debug/obj/tasks.o
                                                  /home/vboxuser/topst/cr5-bsp/sources/build/tcc805x/gcc/tcc805x-freertos-debug/obj/stream_buffer.o
                                                  /home/vboxuser/topst/cr5-bsp/sources/build/tcc805x/gcc/tcc805x-freertos-debug/obj/queue.o
xTaskCreate                                       /home/vboxuser/topst/cr5-bsp/sources/build/tcc805x/gcc/tcc805x-freertos-debug/obj/tasks.o
xTaskCreateStatic                                 /home/vboxuser/topst/cr5-bsp/sources/build/tcc805x/gcc/tcc805x-freertos-debug/obj/tasks.o
                                                  /home/vboxuser/topst/cr5-bsp/sources/build/tcc805x/gcc/tcc805x-freertos-debug/obj/sal_freertos_impl.o
                                                  /home/vboxuser/topst/cr5-bsp/sources/build/tcc805x/gcc/tcc805x-freertos-debug/obj/timers.o
xTaskGenericNotify                                /home/vboxuser/topst/cr5-bsp/sources/build/tcc805x/gcc/tcc805x-freertos-debug/obj/tasks.o
                                                  /home/vboxuser/topst/cr5-bsp/sources/build/tcc805x/gcc/tcc805x-freertos-debug/obj/stream_buffer.o
xTaskGenericNotifyFromISR                         /home/vboxuser/topst/cr5-bsp/sources/build/tcc805x/gcc/tcc805x-freertos-debug/obj/tasks.o
                                                  /home/vboxuser/topst/cr5-bsp/sources/build/tcc805x/gcc/tcc805x-freertos-debug/obj/stream_buffer.o
xTaskGetCurrentTaskHandle                         /home/vboxuser/topst/cr5-bsp/sources/build/tcc805x/gcc/tcc805x-freertos-debug/obj/tasks.o
                                                  /home/vboxuser/topst/cr5-bsp/sources/build/tcc805x/gcc/tcc805x-freertos-debug/obj/stream_buffer.o
                                                  /home/vboxuser/topst/cr5-bsp/sources/build/tcc805x/gcc/tcc805x-freertos-debug/obj/queue.o
xTaskGetHandle                                    /home/vboxuser/topst/cr5-bsp/sources/build/tcc805x/gcc/tcc805x-freertos-debug/obj/tasks.o
xTaskGetSchedulerState                            /home/vboxuser/topst/cr5-bsp/sources/build/tcc805x/gcc/tcc805x-freertos-debug/obj/tasks.o
                                                  /home/vboxuser/topst/cr5-bsp/sources/build/tcc805x/gcc/tcc805x-freertos-debug/obj/timers.o
                                                  /home/vboxuser/topst/cr5-bsp/sources/build/tcc805x/gcc/tcc805x-freertos-debug/obj/event_groups.o
                                                  /home/vboxuser/topst/cr5-bsp/sources/build/tcc805x/gcc/tcc805x-freertos-debug/obj/queue.o
xTaskGetTickCount                                 /home/vboxuser/topst/cr5-bsp/sources/build/tcc805x/gcc/tcc805x-freertos-debug/obj/tasks.o
                                                  /home/vboxuser/topst/cr5-bsp/sources/build/tcc805x/gcc/tcc805x-freertos-debug/obj/sal_freertos_impl.o
                                                  /home/vboxuser/topst/cr5-bsp/sources/build/tcc805x/gcc/tcc805x-freertos-debug/obj/timers.o
xTaskGetTickCountFromISR                          /home/vboxuser/topst/cr5-bsp/sources/build/tcc805x/gcc/tcc805x-freertos-debug/obj/tasks.o
                                                  /home/vboxuser/topst/cr5-bsp/sources/build/tcc805x/gcc/tcc805x-freertos-debug/obj/sal_freertos_impl.o
xTaskIncrementTick                                /home/vboxuser/topst/cr5-bsp/sources/build/tcc805x/gcc/tcc805x-freertos-debug/obj/tasks.o
                                                  /home/vboxuser/topst/cr5-bsp/sources/build/tcc805x/gcc/tcc805x-freertos-debug/obj/port.o
xTaskNotifyStateClear                             /home/vboxuser/topst/cr5-bsp/sources/build/tcc805x/gcc/tcc805x-freertos-debug/obj/tasks.o
                                                  /home/vboxuser/topst/cr5-bsp/sources/build/tcc805x/gcc/tcc805x-freertos-debug/obj/stream_buffer.o
xTaskNotifyWait                                   /home/vboxuser/topst/cr5-bsp/sources/build/tcc805x/gcc/tcc805x-freertos-debug/obj/tasks.o
                                                  /home/vboxuser/topst/cr5-bsp/sources/build/tcc805x/gcc/tcc805x-freertos-debug/obj/stream_buffer.o
xTaskPriorityDisinherit                           /home/vboxuser/topst/cr5-bsp/sources/build/tcc805x/gcc/tcc805x-freertos-debug/obj/tasks.o
                                                  /home/vboxuser/topst/cr5-bsp/sources/build/tcc805x/gcc/tcc805x-freertos-debug/obj/queue.o
xTaskPriorityInherit                              /home/vboxuser/topst/cr5-bsp/sources/build/tcc805x/gcc/tcc805x-freertos-debug/obj/tasks.o
                                                  /home/vboxuser/topst/cr5-bsp/sources/build/tcc805x/gcc/tcc805x-freertos-debug/obj/queue.o
xTaskRemoveFromEventList                          /home/vboxuser/topst/cr5-bsp/sources/build/tcc805x/gcc/tcc805x-freertos-debug/obj/tasks.o
                                                  /home/vboxuser/topst/cr5-bsp/sources/build/tcc805x/gcc/tcc805x-freertos-debug/obj/queue.o
xTaskResumeAll                                    /home/vboxuser/topst/cr5-bsp/sources/build/tcc805x/gcc/tcc805x-freertos-debug/obj/tasks.o
                                                  /home/vboxuser/topst/cr5-bsp/sources/build/tcc805x/gcc/tcc805x-freertos-debug/obj/heap_5.o
                                                  /home/vboxuser/topst/cr5-bsp/sources/build/tcc805x/gcc/tcc805x-freertos-debug/obj/stream_buffer.o
                                                  /home/vboxuser/topst/cr5-bsp/sources/build/tcc805x/gcc/tcc805x-freertos-debug/obj/timers.o
                                                  /home/vboxuser/topst/cr5-bsp/sources/build/tcc805x/gcc/tcc805x-freertos-debug/obj/event_groups.o
                                                  /home/vboxuser/topst/cr5-bsp/sources/build/tcc805x/gcc/tcc805x-freertos-debug/obj/queue.o
xTaskResumeFromISR                                /home/vboxuser/topst/cr5-bsp/sources/build/tcc805x/gcc/tcc805x-freertos-debug/obj/tasks.o
xTimerCreate                                      /home/vboxuser/topst/cr5-bsp/sources/build/tcc805x/gcc/tcc805x-freertos-debug/obj/timers.o
xTimerCreateStatic                                /home/vboxuser/topst/cr5-bsp/sources/build/tcc805x/gcc/tcc805x-freertos-debug/obj/timers.o
xTimerCreateTimerTask                             /home/vboxuser/topst/cr5-bsp/sources/build/tcc805x/gcc/tcc805x-freertos-debug/obj/timers.o
                                                  /home/vboxuser/topst/cr5-bsp/sources/build/tcc805x/gcc/tcc805x-freertos-debug/obj/tasks.o
xTimerGenericCommand                              /home/vboxuser/topst/cr5-bsp/sources/build/tcc805x/gcc/tcc805x-freertos-debug/obj/timers.o
xTimerGetExpiryTime                               /home/vboxuser/topst/cr5-bsp/sources/build/tcc805x/gcc/tcc805x-freertos-debug/obj/timers.o
xTimerGetPeriod                                   /home/vboxuser/topst/cr5-bsp/sources/build/tcc805x/gcc/tcc805x-freertos-debug/obj/timers.o
xTimerGetTimerDaemonTaskHandle                    /home/vboxuser/topst/cr5-bsp/sources/build/tcc805x/gcc/tcc805x-freertos-debug/obj/timers.o
xTimerIsTimerActive                               /home/vboxuser/topst/cr5-bsp/sources/build/tcc805x/gcc/tcc805x-freertos-debug/obj/timers.o
xTimerPendFunctionCall                            /home/vboxuser/topst/cr5-bsp/sources/build/tcc805x/gcc/tcc805x-freertos-debug/obj/timers.o
xTimerPendFunctionCallFromISR                     /home/vboxuser/topst/cr5-bsp/sources/build/tcc805x/gcc/tcc805x-freertos-debug/obj/timers.o
                                                  /home/vboxuser/topst/cr5-bsp/sources/build/tcc805x/gcc/tcc805x-freertos-debug/obj/sal_freertos_impl.o
